
mat:     file format elf32-littleriscv


Disassembly of section .text:

00800074 <main>:
  800074:	fa010113          	addi	sp,sp,-96
  800078:	04812e23          	sw	s0,92(sp)
  80007c:	06010413          	addi	s0,sp,96
  800080:	fe042623          	sw	zero,-20(s0)
  800084:	1100006f          	j	800194 <main+0x120>
  800088:	fe042423          	sw	zero,-24(s0)
  80008c:	0f00006f          	j	80017c <main+0x108>
  800090:	fec42703          	lw	a4,-20(s0)
  800094:	fe842783          	lw	a5,-24(s0)
  800098:	00f706b3          	add	a3,a4,a5
  80009c:	fec42703          	lw	a4,-20(s0)
  8000a0:	00070793          	mv	a5,a4
  8000a4:	00179793          	slli	a5,a5,0x1
  8000a8:	00e787b3          	add	a5,a5,a4
  8000ac:	fe842703          	lw	a4,-24(s0)
  8000b0:	00e787b3          	add	a5,a5,a4
  8000b4:	00279793          	slli	a5,a5,0x2
  8000b8:	ff040713          	addi	a4,s0,-16
  8000bc:	00f707b3          	add	a5,a4,a5
  8000c0:	fcd7aa23          	sw	a3,-44(a5)
  8000c4:	fe842783          	lw	a5,-24(s0)
  8000c8:	00178693          	addi	a3,a5,1
  8000cc:	fec42703          	lw	a4,-20(s0)
  8000d0:	00070793          	mv	a5,a4
  8000d4:	00179793          	slli	a5,a5,0x1
  8000d8:	00e787b3          	add	a5,a5,a4
  8000dc:	fe842703          	lw	a4,-24(s0)
  8000e0:	00e787b3          	add	a5,a5,a4
  8000e4:	00279793          	slli	a5,a5,0x2
  8000e8:	ff040713          	addi	a4,s0,-16
  8000ec:	00f707b3          	add	a5,a4,a5
  8000f0:	fad7a823          	sw	a3,-80(a5)
  8000f4:	fec42703          	lw	a4,-20(s0)
  8000f8:	00070793          	mv	a5,a4
  8000fc:	00179793          	slli	a5,a5,0x1
  800100:	00e787b3          	add	a5,a5,a4
  800104:	fe842703          	lw	a4,-24(s0)
  800108:	00e787b3          	add	a5,a5,a4
  80010c:	00279793          	slli	a5,a5,0x2
  800110:	ff040713          	addi	a4,s0,-16
  800114:	00f707b3          	add	a5,a4,a5
  800118:	fd47a683          	lw	a3,-44(a5)
  80011c:	fec42703          	lw	a4,-20(s0)
  800120:	00070793          	mv	a5,a4
  800124:	00179793          	slli	a5,a5,0x1
  800128:	00e787b3          	add	a5,a5,a4
  80012c:	fe842703          	lw	a4,-24(s0)
  800130:	00e787b3          	add	a5,a5,a4
  800134:	00279793          	slli	a5,a5,0x2
  800138:	ff040713          	addi	a4,s0,-16
  80013c:	00f707b3          	add	a5,a4,a5
  800140:	fb07a783          	lw	a5,-80(a5)
  800144:	00f686b3          	add	a3,a3,a5
  800148:	fec42703          	lw	a4,-20(s0)
  80014c:	00070793          	mv	a5,a4
  800150:	00179793          	slli	a5,a5,0x1
  800154:	00e787b3          	add	a5,a5,a4
  800158:	fe842703          	lw	a4,-24(s0)
  80015c:	00e787b3          	add	a5,a5,a4
  800160:	00279713          	slli	a4,a5,0x2
  800164:	80018793          	addi	a5,gp,-2048 # 8011b4 <__bss_start>
  800168:	00f707b3          	add	a5,a4,a5
  80016c:	00d7a023          	sw	a3,0(a5)
  800170:	fe842783          	lw	a5,-24(s0)
  800174:	00178793          	addi	a5,a5,1
  800178:	fef42423          	sw	a5,-24(s0)
  80017c:	fe842703          	lw	a4,-24(s0)
  800180:	00200793          	li	a5,2
  800184:	f0e7d6e3          	ble	a4,a5,800090 <main+0x1c>
  800188:	fec42783          	lw	a5,-20(s0)
  80018c:	00178793          	addi	a5,a5,1
  800190:	fef42623          	sw	a5,-20(s0)
  800194:	fec42703          	lw	a4,-20(s0)
  800198:	00200793          	li	a5,2
  80019c:	eee7d6e3          	ble	a4,a5,800088 <main+0x14>
  8001a0:	00000793          	li	a5,0
  8001a4:	00078513          	mv	a0,a5
  8001a8:	05c12403          	lw	s0,92(sp)
  8001ac:	06010113          	addi	sp,sp,96
  8001b0:	00008067          	ret
