
add:     file format elf32-littleriscv


Disassembly of section .text:

00010000 <_ftext>:
   10000:	0000d197          	auipc	gp,0xd
   10004:	d9018193          	addi	gp,gp,-624 # 1cd90 <_gp>
   10008:	0000c297          	auipc	t0,0xc
   1000c:	60028293          	addi	t0,t0,1536 # 1c608 <_PathLocale>
   10010:	0000c317          	auipc	t1,0xc
   10014:	67030313          	addi	t1,t1,1648 # 1c680 <_end>
   10018:	0002a023          	sw	zero,0(t0)
   1001c:	00428293          	addi	t0,t0,4
   10020:	fe62ece3          	bltu	t0,t1,10018 <_ftext+0x18>
   10024:	00000517          	auipc	a0,0x0
   10028:	25450513          	addi	a0,a0,596 # 10278 <__libc_fini_array>
   1002c:	168000ef          	jal	10194 <atexit>
   10030:	1a8000ef          	jal	101d8 <__libc_init_array>
   10034:	00012503          	lw	a0,0(sp)
   10038:	00410593          	addi	a1,sp,4
   1003c:	00000613          	li	a2,0
   10040:	100000ef          	jal	10140 <main>
   10044:	1640006f          	j	101a8 <exit>

00010048 <_fini>:
   10048:	00008067          	ret

0001004c <deregister_tm_clones>:
   1004c:	80018713          	addi	a4,gp,-2048 # 1c590 <_edata>
   10050:	80318793          	addi	a5,gp,-2045 # 1c593 <_edata+0x3>
   10054:	40e787b3          	sub	a5,a5,a4
   10058:	00600713          	li	a4,6
   1005c:	00f77c63          	bleu	a5,a4,10074 <deregister_tm_clones+0x28>
   10060:	00000293          	li	t0,0
   10064:	00028863          	beqz	t0,10074 <deregister_tm_clones+0x28>
   10068:	80018513          	addi	a0,gp,-2048 # 1c590 <_edata>
   1006c:	00028313          	mv	t1,t0
   10070:	00030067          	jr	t1
   10074:	00008067          	ret

00010078 <register_tm_clones>:
   10078:	80018593          	addi	a1,gp,-2048 # 1c590 <_edata>
   1007c:	80018793          	addi	a5,gp,-2048 # 1c590 <_edata>
   10080:	40b787b3          	sub	a5,a5,a1
   10084:	4027d793          	srai	a5,a5,0x2
   10088:	01f7d593          	srli	a1,a5,0x1f
   1008c:	00f585b3          	add	a1,a1,a5
   10090:	4015d593          	srai	a1,a1,0x1
   10094:	00058c63          	beqz	a1,100ac <register_tm_clones+0x34>
   10098:	00000293          	li	t0,0
   1009c:	00028863          	beqz	t0,100ac <register_tm_clones+0x34>
   100a0:	80018513          	addi	a0,gp,-2048 # 1c590 <_edata>
   100a4:	00028313          	mv	t1,t0
   100a8:	00030067          	jr	t1
   100ac:	00008067          	ret

000100b0 <__do_global_dtors_aux>:
   100b0:	ff010113          	addi	sp,sp,-16
   100b4:	00812423          	sw	s0,8(sp)
   100b8:	8981c783          	lbu	a5,-1896(gp) # 1c628 <completed.3081>
   100bc:	00112623          	sw	ra,12(sp)
   100c0:	02079263          	bnez	a5,100e4 <__do_global_dtors_aux+0x34>
   100c4:	f89ff0ef          	jal	1004c <deregister_tm_clones>
   100c8:	00000793          	li	a5,0
   100cc:	00078863          	beqz	a5,100dc <__do_global_dtors_aux+0x2c>
   100d0:	0001b537          	lui	a0,0x1b
   100d4:	af450513          	addi	a0,a0,-1292 # 1aaf4 <__fini_array_end>
   100d8:	f29ef0ef          	jal	0 <_ftext-0x10000>
   100dc:	00100793          	li	a5,1
   100e0:	88f18c23          	sb	a5,-1896(gp) # 1c628 <completed.3081>
   100e4:	00c12083          	lw	ra,12(sp)
   100e8:	00812403          	lw	s0,8(sp)
   100ec:	01010113          	addi	sp,sp,16
   100f0:	00008067          	ret

000100f4 <frame_dummy>:
   100f4:	ff010113          	addi	sp,sp,-16
   100f8:	00000793          	li	a5,0
   100fc:	00112623          	sw	ra,12(sp)
   10100:	00078a63          	beqz	a5,10114 <frame_dummy+0x20>
   10104:	0001b537          	lui	a0,0x1b
   10108:	89c18593          	addi	a1,gp,-1892 # 1c62c <object.3086>
   1010c:	af450513          	addi	a0,a0,-1292 # 1aaf4 <__fini_array_end>
   10110:	ef1ef0ef          	jal	0 <_ftext-0x10000>
   10114:	0001c537          	lui	a0,0x1c
   10118:	d1850513          	addi	a0,a0,-744 # 1bd18 <__JCR_END__>
   1011c:	00052783          	lw	a5,0(a0)
   10120:	00079863          	bnez	a5,10130 <frame_dummy+0x3c>
   10124:	00c12083          	lw	ra,12(sp)
   10128:	01010113          	addi	sp,sp,16
   1012c:	f4dff06f          	j	10078 <register_tm_clones>
   10130:	00000793          	li	a5,0
   10134:	fe0788e3          	beqz	a5,10124 <frame_dummy+0x30>
   10138:	000780e7          	jalr	a5
   1013c:	fe9ff06f          	j	10124 <frame_dummy+0x30>

00010140 <main>:
   10140:	fe010113          	addi	sp,sp,-32
   10144:	00112e23          	sw	ra,28(sp)
   10148:	00812c23          	sw	s0,24(sp)
   1014c:	02010413          	addi	s0,sp,32
   10150:	00100793          	li	a5,1
   10154:	fef42623          	sw	a5,-20(s0)
   10158:	00200793          	li	a5,2
   1015c:	fef42423          	sw	a5,-24(s0)
   10160:	fec42703          	lw	a4,-20(s0)
   10164:	fe842783          	lw	a5,-24(s0)
   10168:	00f707b3          	add	a5,a4,a5
   1016c:	fef42223          	sw	a5,-28(s0)
   10170:	fe442583          	lw	a1,-28(s0)
   10174:	0001a7b7          	lui	a5,0x1a
   10178:	4e078513          	addi	a0,a5,1248 # 1a4e0 <__errno+0xc>
   1017c:	1a0000ef          	jal	1031c <printf>
   10180:	00000013          	nop
   10184:	01c12083          	lw	ra,28(sp)
   10188:	01812403          	lw	s0,24(sp)
   1018c:	02010113          	addi	sp,sp,32
   10190:	00008067          	ret

00010194 <atexit>:
   10194:	00050593          	mv	a1,a0
   10198:	00000693          	li	a3,0
   1019c:	00000613          	li	a2,0
   101a0:	00000513          	li	a0,0
   101a4:	6a50106f          	j	12048 <__register_exitproc>

000101a8 <exit>:
   101a8:	ff010113          	addi	sp,sp,-16
   101ac:	00000593          	li	a1,0
   101b0:	00812423          	sw	s0,8(sp)
   101b4:	00112623          	sw	ra,12(sp)
   101b8:	00050413          	mv	s0,a0
   101bc:	781010ef          	jal	1213c <__call_exitprocs>
   101c0:	8041a503          	lw	a0,-2044(gp) # 1c594 <_global_impure_ptr>
   101c4:	03c52783          	lw	a5,60(a0)
   101c8:	00078463          	beqz	a5,101d0 <exit+0x28>
   101cc:	000780e7          	jalr	a5
   101d0:	00040513          	mv	a0,s0
   101d4:	644080ef          	jal	18818 <_exit>

000101d8 <__libc_init_array>:
   101d8:	ff010113          	addi	sp,sp,-16
   101dc:	00812423          	sw	s0,8(sp)
   101e0:	0001b7b7          	lui	a5,0x1b
   101e4:	0001b437          	lui	s0,0x1b
   101e8:	01212023          	sw	s2,0(sp)
   101ec:	aec78793          	addi	a5,a5,-1300 # 1aaec <_etext>
   101f0:	aec40913          	addi	s2,s0,-1300 # 1aaec <_etext>
   101f4:	41278933          	sub	s2,a5,s2
   101f8:	40295913          	srai	s2,s2,0x2
   101fc:	00912223          	sw	s1,4(sp)
   10200:	00112623          	sw	ra,12(sp)
   10204:	aec40413          	addi	s0,s0,-1300
   10208:	00000493          	li	s1,0
   1020c:	00090c63          	beqz	s2,10224 <__libc_init_array+0x4c>
   10210:	00042783          	lw	a5,0(s0)
   10214:	00148493          	addi	s1,s1,1
   10218:	00440413          	addi	s0,s0,4
   1021c:	000780e7          	jalr	a5
   10220:	fe9918e3          	bne	s2,s1,10210 <__libc_init_array+0x38>
   10224:	0001b437          	lui	s0,0x1b
   10228:	e21ff0ef          	jal	10048 <_fini>
   1022c:	0001b7b7          	lui	a5,0x1b
   10230:	aec40913          	addi	s2,s0,-1300 # 1aaec <_etext>
   10234:	af078793          	addi	a5,a5,-1296 # 1aaf0 <__init_array_end>
   10238:	41278933          	sub	s2,a5,s2
   1023c:	40295913          	srai	s2,s2,0x2
   10240:	aec40413          	addi	s0,s0,-1300
   10244:	00000493          	li	s1,0
   10248:	00090c63          	beqz	s2,10260 <__libc_init_array+0x88>
   1024c:	00042783          	lw	a5,0(s0)
   10250:	00148493          	addi	s1,s1,1
   10254:	00440413          	addi	s0,s0,4
   10258:	000780e7          	jalr	a5
   1025c:	fe9918e3          	bne	s2,s1,1024c <__libc_init_array+0x74>
   10260:	00c12083          	lw	ra,12(sp)
   10264:	00812403          	lw	s0,8(sp)
   10268:	00412483          	lw	s1,4(sp)
   1026c:	00012903          	lw	s2,0(sp)
   10270:	01010113          	addi	sp,sp,16
   10274:	00008067          	ret

00010278 <__libc_fini_array>:
   10278:	ff010113          	addi	sp,sp,-16
   1027c:	00812423          	sw	s0,8(sp)
   10280:	00912223          	sw	s1,4(sp)
   10284:	0001b437          	lui	s0,0x1b
   10288:	0001b4b7          	lui	s1,0x1b
   1028c:	af048493          	addi	s1,s1,-1296 # 1aaf0 <__init_array_end>
   10290:	af440413          	addi	s0,s0,-1292 # 1aaf4 <__fini_array_end>
   10294:	40940433          	sub	s0,s0,s1
   10298:	40245413          	srai	s0,s0,0x2
   1029c:	00241793          	slli	a5,s0,0x2
   102a0:	ffc78793          	addi	a5,a5,-4
   102a4:	00112623          	sw	ra,12(sp)
   102a8:	009784b3          	add	s1,a5,s1
   102ac:	00040c63          	beqz	s0,102c4 <__libc_fini_array+0x4c>
   102b0:	0004a783          	lw	a5,0(s1)
   102b4:	fff40413          	addi	s0,s0,-1
   102b8:	ffc48493          	addi	s1,s1,-4
   102bc:	000780e7          	jalr	a5
   102c0:	fe0418e3          	bnez	s0,102b0 <__libc_fini_array+0x38>
   102c4:	00c12083          	lw	ra,12(sp)
   102c8:	00812403          	lw	s0,8(sp)
   102cc:	00412483          	lw	s1,4(sp)
   102d0:	01010113          	addi	sp,sp,16
   102d4:	d75ff06f          	j	10048 <_fini>

000102d8 <_printf_r>:
   102d8:	fc010113          	addi	sp,sp,-64
   102dc:	02c12423          	sw	a2,40(sp)
   102e0:	02d12623          	sw	a3,44(sp)
   102e4:	02f12a23          	sw	a5,52(sp)
   102e8:	02e12823          	sw	a4,48(sp)
   102ec:	03012c23          	sw	a6,56(sp)
   102f0:	03112e23          	sw	a7,60(sp)
   102f4:	00058613          	mv	a2,a1
   102f8:	00852583          	lw	a1,8(a0)
   102fc:	02810793          	addi	a5,sp,40
   10300:	00078693          	mv	a3,a5
   10304:	00112e23          	sw	ra,28(sp)
   10308:	00f12623          	sw	a5,12(sp)
   1030c:	060000ef          	jal	1036c <_vfprintf_r>
   10310:	01c12083          	lw	ra,28(sp)
   10314:	04010113          	addi	sp,sp,64
   10318:	00008067          	ret

0001031c <printf>:
   1031c:	8081a283          	lw	t0,-2040(gp) # 1c598 <_impure_ptr>
   10320:	fc010113          	addi	sp,sp,-64
   10324:	02c12423          	sw	a2,40(sp)
   10328:	02d12623          	sw	a3,44(sp)
   1032c:	02f12a23          	sw	a5,52(sp)
   10330:	02b12223          	sw	a1,36(sp)
   10334:	02e12823          	sw	a4,48(sp)
   10338:	03012c23          	sw	a6,56(sp)
   1033c:	03112e23          	sw	a7,60(sp)
   10340:	0082a583          	lw	a1,8(t0)
   10344:	02410793          	addi	a5,sp,36
   10348:	00050613          	mv	a2,a0
   1034c:	00078693          	mv	a3,a5
   10350:	00028513          	mv	a0,t0
   10354:	00112e23          	sw	ra,28(sp)
   10358:	00f12623          	sw	a5,12(sp)
   1035c:	010000ef          	jal	1036c <_vfprintf_r>
   10360:	01c12083          	lw	ra,28(sp)
   10364:	04010113          	addi	sp,sp,64
   10368:	00008067          	ret

0001036c <_vfprintf_r>:
   1036c:	ab010113          	addi	sp,sp,-1360
   10370:	54112623          	sw	ra,1356(sp)
   10374:	55212023          	sw	s2,1344(sp)
   10378:	53312e23          	sw	s3,1340(sp)
   1037c:	53612823          	sw	s6,1328(sp)
   10380:	00058993          	mv	s3,a1
   10384:	00060913          	mv	s2,a2
   10388:	02d12a23          	sw	a3,52(sp)
   1038c:	54812423          	sw	s0,1352(sp)
   10390:	54912223          	sw	s1,1348(sp)
   10394:	53412c23          	sw	s4,1336(sp)
   10398:	53512a23          	sw	s5,1332(sp)
   1039c:	53712623          	sw	s7,1324(sp)
   103a0:	53812423          	sw	s8,1320(sp)
   103a4:	53912223          	sw	s9,1316(sp)
   103a8:	53a12023          	sw	s10,1312(sp)
   103ac:	51b12e23          	sw	s11,1308(sp)
   103b0:	50813427          	fsd	fs0,1288(sp)
   103b4:	00050b13          	mv	s6,a0
   103b8:	54d030ef          	jal	14104 <_localeconv_r>
   103bc:	00052503          	lw	a0,0(a0)
   103c0:	04a12023          	sw	a0,64(sp)
   103c4:	421050ef          	jal	15fe4 <strlen>
   103c8:	04a12623          	sw	a0,76(sp)
   103cc:	000b0663          	beqz	s6,103d8 <_vfprintf_r+0x6c>
   103d0:	038b2783          	lw	a5,56(s6)
   103d4:	32078663          	beqz	a5,10700 <_vfprintf_r+0x394>
   103d8:	00c99703          	lh	a4,12(s3)
   103dc:	01071793          	slli	a5,a4,0x10
   103e0:	0107d793          	srli	a5,a5,0x10
   103e4:	01279293          	slli	t0,a5,0x12
   103e8:	0202c663          	bltz	t0,10414 <_vfprintf_r+0xa8>
   103ec:	0649a683          	lw	a3,100(s3)
   103f0:	000027b7          	lui	a5,0x2
   103f4:	00f76733          	or	a4,a4,a5
   103f8:	ffffe7b7          	lui	a5,0xffffe
   103fc:	fff78793          	addi	a5,a5,-1 # ffffdfff <_gp+0xfffe126f>
   10400:	00f6f7b3          	and	a5,a3,a5
   10404:	06f9a223          	sw	a5,100(s3)
   10408:	01071793          	slli	a5,a4,0x10
   1040c:	00e99623          	sh	a4,12(s3)
   10410:	0107d793          	srli	a5,a5,0x10
   10414:	0087f693          	andi	a3,a5,8
   10418:	18068e63          	beqz	a3,105b4 <_vfprintf_r+0x248>
   1041c:	0109a683          	lw	a3,16(s3)
   10420:	18068a63          	beqz	a3,105b4 <_vfprintf_r+0x248>
   10424:	01a7f793          	andi	a5,a5,26
   10428:	00a00693          	li	a3,10
   1042c:	1ad78a63          	beq	a5,a3,105e0 <_vfprintf_r+0x274>
   10430:	0001a7b7          	lui	a5,0x1a
   10434:	10010b93          	addi	s7,sp,256
   10438:	65478c13          	addi	s8,a5,1620 # 1a654 <blanks.4004>
   1043c:	0001a7b7          	lui	a5,0x1a
   10440:	04012823          	sw	zero,80(sp)
   10444:	04012a23          	sw	zero,84(sp)
   10448:	09712623          	sw	s7,140(sp)
   1044c:	08012a23          	sw	zero,148(sp)
   10450:	08012823          	sw	zero,144(sp)
   10454:	04012223          	sw	zero,68(sp)
   10458:	04012c23          	sw	zero,88(sp)
   1045c:	04012e23          	sw	zero,92(sp)
   10460:	02012c23          	sw	zero,56(sp)
   10464:	000b8693          	mv	a3,s7
   10468:	66478c93          	addi	s9,a5,1636 # 1a664 <zeroes.4005>
   1046c:	00094783          	lbu	a5,0(s2)
   10470:	120782e3          	beqz	a5,10d94 <_vfprintf_r+0xa28>
   10474:	02500713          	li	a4,37
   10478:	00090413          	mv	s0,s2
   1047c:	00e79663          	bne	a5,a4,10488 <_vfprintf_r+0x11c>
   10480:	0540006f          	j	104d4 <_vfprintf_r+0x168>
   10484:	00e78863          	beq	a5,a4,10494 <_vfprintf_r+0x128>
   10488:	00140413          	addi	s0,s0,1
   1048c:	00044783          	lbu	a5,0(s0)
   10490:	fe079ae3          	bnez	a5,10484 <_vfprintf_r+0x118>
   10494:	412404b3          	sub	s1,s0,s2
   10498:	02048e63          	beqz	s1,104d4 <_vfprintf_r+0x168>
   1049c:	09412703          	lw	a4,148(sp)
   104a0:	09012783          	lw	a5,144(sp)
   104a4:	0126a023          	sw	s2,0(a3)
   104a8:	00970733          	add	a4,a4,s1
   104ac:	00178793          	addi	a5,a5,1
   104b0:	08e12a23          	sw	a4,148(sp)
   104b4:	00700713          	li	a4,7
   104b8:	0096a223          	sw	s1,4(a3)
   104bc:	08f12823          	sw	a5,144(sp)
   104c0:	00868693          	addi	a3,a3,8
   104c4:	1af74a63          	blt	a4,a5,10678 <_vfprintf_r+0x30c>
   104c8:	03812283          	lw	t0,56(sp)
   104cc:	009282b3          	add	t0,t0,s1
   104d0:	02512c23          	sw	t0,56(sp)
   104d4:	00044783          	lbu	a5,0(s0)
   104d8:	1a078e63          	beqz	a5,10694 <_vfprintf_r+0x328>
   104dc:	00140913          	addi	s2,s0,1
   104e0:	060107a3          	sb	zero,111(sp)
   104e4:	00000593          	li	a1,0
   104e8:	00000513          	li	a0,0
   104ec:	fff00413          	li	s0,-1
   104f0:	02012423          	sw	zero,40(sp)
   104f4:	00000a93          	li	s5,0
   104f8:	05800713          	li	a4,88
   104fc:	00900613          	li	a2,9
   10500:	02a00813          	li	a6,42
   10504:	00000893          	li	a7,0
   10508:	00094d03          	lbu	s10,0(s2)
   1050c:	00190913          	addi	s2,s2,1
   10510:	fe0d0793          	addi	a5,s10,-32
   10514:	7ef76863          	bltu	a4,a5,10d04 <_vfprintf_r+0x998>
   10518:	0001a2b7          	lui	t0,0x1a
   1051c:	00279793          	slli	a5,a5,0x2
   10520:	4f028293          	addi	t0,t0,1264 # 1a4f0 <__errno+0x1c>
   10524:	005787b3          	add	a5,a5,t0
   10528:	0007a783          	lw	a5,0(a5)
   1052c:	00078067          	jr	a5
   10530:	010aea93          	ori	s5,s5,16
   10534:	fd5ff06f          	j	10508 <_vfprintf_r+0x19c>
   10538:	03412283          	lw	t0,52(sp)
   1053c:	0002a883          	lw	a7,0(t0)
   10540:	00428293          	addi	t0,t0,4
   10544:	02512a23          	sw	t0,52(sp)
   10548:	fc08d0e3          	bgez	a7,10508 <_vfprintf_r+0x19c>
   1054c:	411008b3          	neg	a7,a7
   10550:	004aea93          	ori	s5,s5,4
   10554:	fb5ff06f          	j	10508 <_vfprintf_r+0x19c>
   10558:	03412283          	lw	t0,52(sp)
   1055c:	03000613          	li	a2,48
   10560:	06c10823          	sb	a2,112(sp)
   10564:	07800613          	li	a2,120
   10568:	03112423          	sw	a7,40(sp)
   1056c:	00428713          	addi	a4,t0,4
   10570:	0002a783          	lw	a5,0(t0)
   10574:	002ae593          	ori	a1,s5,2
   10578:	06c108a3          	sb	a2,113(sp)
   1057c:	060107a3          	sb	zero,111(sp)
   10580:	7a044a63          	bltz	s0,10d34 <_vfprintf_r+0x9c8>
   10584:	f7fafa93          	andi	s5,s5,-129
   10588:	002aea93          	ori	s5,s5,2
   1058c:	02e12a23          	sw	a4,52(sp)
   10590:	74079e63          	bnez	a5,10cec <_vfprintf_r+0x980>
   10594:	0001b7b7          	lui	a5,0x1b
   10598:	ab078793          	addi	a5,a5,-1360 # 1aab0 <__clz_tab+0x128>
   1059c:	04f12c23          	sw	a5,88(sp)
   105a0:	07800d13          	li	s10,120
   105a4:	00000813          	li	a6,0
   105a8:	00000793          	li	a5,0
   105ac:	64041c63          	bnez	s0,10c04 <_vfprintf_r+0x898>
   105b0:	4b40006f          	j	10a64 <_vfprintf_r+0x6f8>
   105b4:	00098593          	mv	a1,s3
   105b8:	000b0513          	mv	a0,s6
   105bc:	141010ef          	jal	11efc <__swsetup_r>
   105c0:	00050463          	beqz	a0,105c8 <_vfprintf_r+0x25c>
   105c4:	2f40106f          	j	118b8 <_vfprintf_r+0x154c>
   105c8:	00c99703          	lh	a4,12(s3)
   105cc:	00a00693          	li	a3,10
   105d0:	01071793          	slli	a5,a4,0x10
   105d4:	0107d793          	srli	a5,a5,0x10
   105d8:	01a7f793          	andi	a5,a5,26
   105dc:	e4d79ae3          	bne	a5,a3,10430 <_vfprintf_r+0xc4>
   105e0:	00e99783          	lh	a5,14(s3)
   105e4:	e407c6e3          	bltz	a5,10430 <_vfprintf_r+0xc4>
   105e8:	0649a303          	lw	t1,100(s3)
   105ec:	01c9a283          	lw	t0,28(s3)
   105f0:	0249a883          	lw	a7,36(s3)
   105f4:	03412683          	lw	a3,52(sp)
   105f8:	ffd77713          	andi	a4,a4,-3
   105fc:	40000813          	li	a6,1024
   10600:	0ae11223          	sh	a4,164(sp)
   10604:	00090613          	mv	a2,s2
   10608:	10010713          	addi	a4,sp,256
   1060c:	09810593          	addi	a1,sp,152
   10610:	000b0513          	mv	a0,s6
   10614:	0e612e23          	sw	t1,252(sp)
   10618:	0af11323          	sh	a5,166(sp)
   1061c:	0a512a23          	sw	t0,180(sp)
   10620:	0b112e23          	sw	a7,188(sp)
   10624:	08e12c23          	sw	a4,152(sp)
   10628:	0ae12423          	sw	a4,168(sp)
   1062c:	0b012023          	sw	a6,160(sp)
   10630:	0b012623          	sw	a6,172(sp)
   10634:	0a012823          	sw	zero,176(sp)
   10638:	d35ff0ef          	jal	1036c <_vfprintf_r>
   1063c:	00050413          	mv	s0,a0
   10640:	00054c63          	bltz	a0,10658 <_vfprintf_r+0x2ec>
   10644:	09810593          	addi	a1,sp,152
   10648:	000b0513          	mv	a0,s6
   1064c:	6bd020ef          	jal	13508 <_fflush_r>
   10650:	00050463          	beqz	a0,10658 <_vfprintf_r+0x2ec>
   10654:	7bc0106f          	j	11e10 <_vfprintf_r+0x1aa4>
   10658:	0a415783          	lhu	a5,164(sp)
   1065c:	0407f793          	andi	a5,a5,64
   10660:	00078863          	beqz	a5,10670 <_vfprintf_r+0x304>
   10664:	00c9d783          	lhu	a5,12(s3)
   10668:	0407e793          	ori	a5,a5,64
   1066c:	00f99623          	sh	a5,12(s3)
   10670:	00040513          	mv	a0,s0
   10674:	04c0006f          	j	106c0 <_vfprintf_r+0x354>
   10678:	08c10613          	addi	a2,sp,140
   1067c:	00098593          	mv	a1,s3
   10680:	000b0513          	mv	a0,s6
   10684:	2d9050ef          	jal	1615c <__sprint_r>
   10688:	02051263          	bnez	a0,106ac <_vfprintf_r+0x340>
   1068c:	000b8693          	mv	a3,s7
   10690:	e39ff06f          	j	104c8 <_vfprintf_r+0x15c>
   10694:	09412783          	lw	a5,148(sp)
   10698:	00078a63          	beqz	a5,106ac <_vfprintf_r+0x340>
   1069c:	08c10613          	addi	a2,sp,140
   106a0:	00098593          	mv	a1,s3
   106a4:	000b0513          	mv	a0,s6
   106a8:	2b5050ef          	jal	1615c <__sprint_r>
   106ac:	00c9d783          	lhu	a5,12(s3)
   106b0:	0407f793          	andi	a5,a5,64
   106b4:	00078463          	beqz	a5,106bc <_vfprintf_r+0x350>
   106b8:	2000106f          	j	118b8 <_vfprintf_r+0x154c>
   106bc:	03812503          	lw	a0,56(sp)
   106c0:	54c12083          	lw	ra,1356(sp)
   106c4:	54812403          	lw	s0,1352(sp)
   106c8:	54412483          	lw	s1,1348(sp)
   106cc:	54012903          	lw	s2,1344(sp)
   106d0:	53c12983          	lw	s3,1340(sp)
   106d4:	53812a03          	lw	s4,1336(sp)
   106d8:	53412a83          	lw	s5,1332(sp)
   106dc:	53012b03          	lw	s6,1328(sp)
   106e0:	52c12b83          	lw	s7,1324(sp)
   106e4:	52812c03          	lw	s8,1320(sp)
   106e8:	52412c83          	lw	s9,1316(sp)
   106ec:	52012d03          	lw	s10,1312(sp)
   106f0:	51c12d83          	lw	s11,1308(sp)
   106f4:	50813407          	fld	fs0,1288(sp)
   106f8:	55010113          	addi	sp,sp,1360
   106fc:	00008067          	ret
   10700:	000b0513          	mv	a0,s6
   10704:	3f4030ef          	jal	13af8 <__sinit>
   10708:	cd1ff06f          	j	103d8 <_vfprintf_r+0x6c>
   1070c:	00100593          	li	a1,1
   10710:	02b00513          	li	a0,43
   10714:	df5ff06f          	j	10508 <_vfprintf_r+0x19c>
   10718:	03112423          	sw	a7,40(sp)
   1071c:	00058463          	beqz	a1,10724 <_vfprintf_r+0x3b8>
   10720:	7600106f          	j	11e80 <_vfprintf_r+0x1b14>
   10724:	010af793          	andi	a5,s5,16
   10728:	40078263          	beqz	a5,10b2c <_vfprintf_r+0x7c0>
   1072c:	03412283          	lw	t0,52(sp)
   10730:	0002a783          	lw	a5,0(t0)
   10734:	00428713          	addi	a4,t0,4
   10738:	060107a3          	sb	zero,111(sp)
   1073c:	40044663          	bltz	s0,10b48 <_vfprintf_r+0x7dc>
   10740:	f7fafa93          	andi	s5,s5,-129
   10744:	02e12a23          	sw	a4,52(sp)
   10748:	40079663          	bnez	a5,10b54 <_vfprintf_r+0x7e8>
   1074c:	00000813          	li	a6,0
   10750:	00000793          	li	a5,0
   10754:	00041463          	bnez	s0,1075c <_vfprintf_r+0x3f0>
   10758:	6f80106f          	j	11e50 <_vfprintf_r+0x1ae4>
   1075c:	0c010893          	addi	a7,sp,192
   10760:	00088a13          	mv	s4,a7
   10764:	0077f713          	andi	a4,a5,7
   10768:	fffa0a13          	addi	s4,s4,-1
   1076c:	03070713          	addi	a4,a4,48
   10770:	0037d793          	srli	a5,a5,0x3
   10774:	00ea0023          	sb	a4,0(s4)
   10778:	fe0796e3          	bnez	a5,10764 <_vfprintf_r+0x3f8>
   1077c:	001af793          	andi	a5,s5,1
   10780:	26078663          	beqz	a5,109ec <_vfprintf_r+0x680>
   10784:	03000793          	li	a5,48
   10788:	26f70263          	beq	a4,a5,109ec <_vfprintf_r+0x680>
   1078c:	fffa0713          	addi	a4,s4,-1
   10790:	40e888b3          	sub	a7,a7,a4
   10794:	fefa0fa3          	sb	a5,-1(s4)
   10798:	03112823          	sw	a7,48(sp)
   1079c:	00070a13          	mv	s4,a4
   107a0:	03012783          	lw	a5,48(sp)
   107a4:	0087d463          	ble	s0,a5,107ac <_vfprintf_r+0x440>
   107a8:	00040793          	mv	a5,s0
   107ac:	02f12223          	sw	a5,36(sp)
   107b0:	00080863          	beqz	a6,107c0 <_vfprintf_r+0x454>
   107b4:	02412283          	lw	t0,36(sp)
   107b8:	00128293          	addi	t0,t0,1
   107bc:	02512223          	sw	t0,36(sp)
   107c0:	002af713          	andi	a4,s5,2
   107c4:	02e12623          	sw	a4,44(sp)
   107c8:	00070863          	beqz	a4,107d8 <_vfprintf_r+0x46c>
   107cc:	02412783          	lw	a5,36(sp)
   107d0:	00278793          	addi	a5,a5,2
   107d4:	02f12223          	sw	a5,36(sp)
   107d8:	084af293          	andi	t0,s5,132
   107dc:	02512e23          	sw	t0,60(sp)
   107e0:	5a029e63          	bnez	t0,10d9c <_vfprintf_r+0xa30>
   107e4:	02812283          	lw	t0,40(sp)
   107e8:	02412703          	lw	a4,36(sp)
   107ec:	40e284b3          	sub	s1,t0,a4
   107f0:	5a905663          	blez	s1,10d9c <_vfprintf_r+0xa30>
   107f4:	01000893          	li	a7,16
   107f8:	09412703          	lw	a4,148(sp)
   107fc:	09012783          	lw	a5,144(sp)
   10800:	05812423          	sw	s8,72(sp)
   10804:	0698d263          	ble	s1,a7,10868 <_vfprintf_r+0x4fc>
   10808:	00700d93          	li	s11,7
   1080c:	00c0006f          	j	10818 <_vfprintf_r+0x4ac>
   10810:	ff048493          	addi	s1,s1,-16
   10814:	0498da63          	ble	s1,a7,10868 <_vfprintf_r+0x4fc>
   10818:	01070713          	addi	a4,a4,16
   1081c:	00178793          	addi	a5,a5,1
   10820:	0186a023          	sw	s8,0(a3)
   10824:	0116a223          	sw	a7,4(a3)
   10828:	08e12a23          	sw	a4,148(sp)
   1082c:	08f12823          	sw	a5,144(sp)
   10830:	00868693          	addi	a3,a3,8
   10834:	fcfddee3          	ble	a5,s11,10810 <_vfprintf_r+0x4a4>
   10838:	08c10613          	addi	a2,sp,140
   1083c:	00098593          	mv	a1,s3
   10840:	000b0513          	mv	a0,s6
   10844:	03112023          	sw	a7,32(sp)
   10848:	115050ef          	jal	1615c <__sprint_r>
   1084c:	02012883          	lw	a7,32(sp)
   10850:	e4051ee3          	bnez	a0,106ac <_vfprintf_r+0x340>
   10854:	ff048493          	addi	s1,s1,-16
   10858:	09412703          	lw	a4,148(sp)
   1085c:	09012783          	lw	a5,144(sp)
   10860:	000b8693          	mv	a3,s7
   10864:	fa98cae3          	blt	a7,s1,10818 <_vfprintf_r+0x4ac>
   10868:	04812283          	lw	t0,72(sp)
   1086c:	00e48633          	add	a2,s1,a4
   10870:	00178793          	addi	a5,a5,1
   10874:	00700713          	li	a4,7
   10878:	0056a023          	sw	t0,0(a3)
   1087c:	0096a223          	sw	s1,4(a3)
   10880:	08c12a23          	sw	a2,148(sp)
   10884:	08f12823          	sw	a5,144(sp)
   10888:	00868693          	addi	a3,a3,8
   1088c:	50f75c63          	ble	a5,a4,10da4 <_vfprintf_r+0xa38>
   10890:	08c10613          	addi	a2,sp,140
   10894:	00098593          	mv	a1,s3
   10898:	000b0513          	mv	a0,s6
   1089c:	0c1050ef          	jal	1615c <__sprint_r>
   108a0:	e00516e3          	bnez	a0,106ac <_vfprintf_r+0x340>
   108a4:	09412603          	lw	a2,148(sp)
   108a8:	09012783          	lw	a5,144(sp)
   108ac:	000b8693          	mv	a3,s7
   108b0:	4f40006f          	j	10da4 <_vfprintf_r+0xa38>
   108b4:	00094d03          	lbu	s10,0(s2)
   108b8:	00190913          	addi	s2,s2,1
   108bc:	010d1463          	bne	s10,a6,108c4 <_vfprintf_r+0x558>
   108c0:	5680106f          	j	11e28 <_vfprintf_r+0x1abc>
   108c4:	fd0d0793          	addi	a5,s10,-48
   108c8:	00000413          	li	s0,0
   108cc:	c4f662e3          	bltu	a2,a5,10510 <_vfprintf_r+0x1a4>
   108d0:	00190913          	addi	s2,s2,1
   108d4:	fff94d03          	lbu	s10,-1(s2)
   108d8:	00141293          	slli	t0,s0,0x1
   108dc:	00341413          	slli	s0,s0,0x3
   108e0:	00828433          	add	s0,t0,s0
   108e4:	00f40433          	add	s0,s0,a5
   108e8:	fd0d0793          	addi	a5,s10,-48
   108ec:	fef672e3          	bleu	a5,a2,108d0 <_vfprintf_r+0x564>
   108f0:	c20450e3          	bgez	s0,10510 <_vfprintf_r+0x1a4>
   108f4:	fff00413          	li	s0,-1
   108f8:	c19ff06f          	j	10510 <_vfprintf_r+0x1a4>
   108fc:	080aea93          	ori	s5,s5,128
   10900:	c09ff06f          	j	10508 <_vfprintf_r+0x19c>
   10904:	001aea93          	ori	s5,s5,1
   10908:	c01ff06f          	j	10508 <_vfprintf_r+0x19c>
   1090c:	03412283          	lw	t0,52(sp)
   10910:	03112423          	sw	a7,40(sp)
   10914:	060107a3          	sb	zero,111(sp)
   10918:	0002aa03          	lw	s4,0(t0)
   1091c:	00428493          	addi	s1,t0,4
   10920:	000a1463          	bnez	s4,10928 <_vfprintf_r+0x5bc>
   10924:	0f80106f          	j	11a1c <_vfprintf_r+0x16b0>
   10928:	00045463          	bgez	s0,10930 <_vfprintf_r+0x5c4>
   1092c:	0a80106f          	j	119d4 <_vfprintf_r+0x1668>
   10930:	00040613          	mv	a2,s0
   10934:	00000593          	li	a1,0
   10938:	000a0513          	mv	a0,s4
   1093c:	00d12e23          	sw	a3,28(sp)
   10940:	0f4040ef          	jal	14a34 <memchr>
   10944:	01c12683          	lw	a3,28(sp)
   10948:	00051463          	bnez	a0,10950 <_vfprintf_r+0x5e4>
   1094c:	2780106f          	j	11bc4 <_vfprintf_r+0x1858>
   10950:	41450533          	sub	a0,a0,s4
   10954:	02812823          	sw	s0,48(sp)
   10958:	78854ae3          	blt	a0,s0,118ec <_vfprintf_r+0x1580>
   1095c:	03012783          	lw	a5,48(sp)
   10960:	0007d463          	bgez	a5,10968 <_vfprintf_r+0x5fc>
   10964:	0900106f          	j	119f4 <_vfprintf_r+0x1688>
   10968:	06f14803          	lbu	a6,111(sp)
   1096c:	02f12223          	sw	a5,36(sp)
   10970:	02912a23          	sw	s1,52(sp)
   10974:	00000413          	li	s0,0
   10978:	e39ff06f          	j	107b0 <_vfprintf_r+0x444>
   1097c:	03112423          	sw	a7,40(sp)
   10980:	00058463          	beqz	a1,10988 <_vfprintf_r+0x61c>
   10984:	53c0106f          	j	11ec0 <_vfprintf_r+0x1b54>
   10988:	010af793          	andi	a5,s5,16
   1098c:	1e078463          	beqz	a5,10b74 <_vfprintf_r+0x808>
   10990:	03412283          	lw	t0,52(sp)
   10994:	0002a783          	lw	a5,0(t0)
   10998:	00428713          	addi	a4,t0,4
   1099c:	060107a3          	sb	zero,111(sp)
   109a0:	1e044863          	bltz	s0,10b90 <_vfprintf_r+0x824>
   109a4:	f7fafa93          	andi	s5,s5,-129
   109a8:	02e12a23          	sw	a4,52(sp)
   109ac:	00000813          	li	a6,0
   109b0:	0a078863          	beqz	a5,10a60 <_vfprintf_r+0x6f4>
   109b4:	0c010893          	addi	a7,sp,192
   109b8:	00900513          	li	a0,9
   109bc:	00088613          	mv	a2,a7
   109c0:	00a00593          	li	a1,10
   109c4:	00f57e63          	bleu	a5,a0,109e0 <_vfprintf_r+0x674>
   109c8:	02b7f733          	remu	a4,a5,a1
   109cc:	fff60613          	addi	a2,a2,-1
   109d0:	02b7d7b3          	divu	a5,a5,a1
   109d4:	03070713          	addi	a4,a4,48
   109d8:	00e60023          	sb	a4,0(a2)
   109dc:	fef566e3          	bltu	a0,a5,109c8 <_vfprintf_r+0x65c>
   109e0:	03078793          	addi	a5,a5,48
   109e4:	fff60a13          	addi	s4,a2,-1
   109e8:	fef60fa3          	sb	a5,-1(a2)
   109ec:	414888b3          	sub	a7,a7,s4
   109f0:	03112823          	sw	a7,48(sp)
   109f4:	dadff06f          	j	107a0 <_vfprintf_r+0x434>
   109f8:	00000893          	li	a7,0
   109fc:	fd0d0793          	addi	a5,s10,-48
   10a00:	00190913          	addi	s2,s2,1
   10a04:	fff94d03          	lbu	s10,-1(s2)
   10a08:	00189293          	slli	t0,a7,0x1
   10a0c:	00389893          	slli	a7,a7,0x3
   10a10:	011288b3          	add	a7,t0,a7
   10a14:	011788b3          	add	a7,a5,a7
   10a18:	fd0d0793          	addi	a5,s10,-48
   10a1c:	fef672e3          	bleu	a5,a2,10a00 <_vfprintf_r+0x694>
   10a20:	af1ff06f          	j	10510 <_vfprintf_r+0x1a4>
   10a24:	03112423          	sw	a7,40(sp)
   10a28:	00058463          	beqz	a1,10a30 <_vfprintf_r+0x6c4>
   10a2c:	48c0106f          	j	11eb8 <_vfprintf_r+0x1b4c>
   10a30:	010aea93          	ori	s5,s5,16
   10a34:	010af793          	andi	a5,s5,16
   10a38:	1e0784e3          	beqz	a5,11420 <_vfprintf_r+0x10b4>
   10a3c:	03412283          	lw	t0,52(sp)
   10a40:	0002a783          	lw	a5,0(t0)
   10a44:	00428293          	addi	t0,t0,4
   10a48:	02512a23          	sw	t0,52(sp)
   10a4c:	2e07c4e3          	bltz	a5,11534 <_vfprintf_r+0x11c8>
   10a50:	06f14803          	lbu	a6,111(sp)
   10a54:	14044263          	bltz	s0,10b98 <_vfprintf_r+0x82c>
   10a58:	f7fafa93          	andi	s5,s5,-129
   10a5c:	f4079ce3          	bnez	a5,109b4 <_vfprintf_r+0x648>
   10a60:	6e0410e3          	bnez	s0,11940 <_vfprintf_r+0x15d4>
   10a64:	00000413          	li	s0,0
   10a68:	02012823          	sw	zero,48(sp)
   10a6c:	0c010a13          	addi	s4,sp,192
   10a70:	d31ff06f          	j	107a0 <_vfprintf_r+0x434>
   10a74:	03112423          	sw	a7,40(sp)
   10a78:	00058463          	beqz	a1,10a80 <_vfprintf_r+0x714>
   10a7c:	4340106f          	j	11eb0 <_vfprintf_r+0x1b44>
   10a80:	008af793          	andi	a5,s5,8
   10a84:	03412283          	lw	t0,52(sp)
   10a88:	400782e3          	beqz	a5,1168c <_vfprintf_r+0x1320>
   10a8c:	00728793          	addi	a5,t0,7
   10a90:	ff87f793          	andi	a5,a5,-8
   10a94:	0007b007          	fld	ft0,0(a5)
   10a98:	00878293          	addi	t0,a5,8
   10a9c:	02512a23          	sw	t0,52(sp)
   10aa0:	04013827          	fsd	ft0,80(sp)
   10aa4:	05013507          	fld	fa0,80(sp)
   10aa8:	00d12e23          	sw	a3,28(sp)
   10aac:	00100a13          	li	s4,1
   10ab0:	24c050ef          	jal	15cfc <__fpclassifyd>
   10ab4:	01c12683          	lw	a3,28(sp)
   10ab8:	29451ce3          	bne	a0,s4,11550 <_vfprintf_r+0x11e4>
   10abc:	05013087          	fld	ft1,80(sp)
   10ac0:	d2000053          	fcvt.d.w	ft0,zero
   10ac4:	a20097d3          	flt.d	a5,ft1,ft0
   10ac8:	00078463          	beqz	a5,10ad0 <_vfprintf_r+0x764>
   10acc:	7c50006f          	j	11a90 <_vfprintf_r+0x1724>
   10ad0:	06f14803          	lbu	a6,111(sp)
   10ad4:	04700793          	li	a5,71
   10ad8:	61a7dee3          	ble	s10,a5,118f4 <_vfprintf_r+0x1588>
   10adc:	0001ba37          	lui	s4,0x1b
   10ae0:	a90a0a13          	addi	s4,s4,-1392 # 1aa90 <__clz_tab+0x108>
   10ae4:	00300293          	li	t0,3
   10ae8:	02512223          	sw	t0,36(sp)
   10aec:	f7fafa93          	andi	s5,s5,-129
   10af0:	02512823          	sw	t0,48(sp)
   10af4:	00000413          	li	s0,0
   10af8:	cb9ff06f          	j	107b0 <_vfprintf_r+0x444>
   10afc:	008aea93          	ori	s5,s5,8
   10b00:	a09ff06f          	j	10508 <_vfprintf_r+0x19c>
   10b04:	a00512e3          	bnez	a0,10508 <_vfprintf_r+0x19c>
   10b08:	00100593          	li	a1,1
   10b0c:	02000513          	li	a0,32
   10b10:	9f9ff06f          	j	10508 <_vfprintf_r+0x19c>
   10b14:	03112423          	sw	a7,40(sp)
   10b18:	00058463          	beqz	a1,10b20 <_vfprintf_r+0x7b4>
   10b1c:	3b80106f          	j	11ed4 <_vfprintf_r+0x1b68>
   10b20:	010aea93          	ori	s5,s5,16
   10b24:	010af793          	andi	a5,s5,16
   10b28:	c00792e3          	bnez	a5,1072c <_vfprintf_r+0x3c0>
   10b2c:	03412283          	lw	t0,52(sp)
   10b30:	040af793          	andi	a5,s5,64
   10b34:	00428713          	addi	a4,t0,4
   10b38:	1a0780e3          	beqz	a5,114d8 <_vfprintf_r+0x116c>
   10b3c:	0002d783          	lhu	a5,0(t0)
   10b40:	060107a3          	sb	zero,111(sp)
   10b44:	be045ee3          	bgez	s0,10740 <_vfprintf_r+0x3d4>
   10b48:	02e12a23          	sw	a4,52(sp)
   10b4c:	00000813          	li	a6,0
   10b50:	20078463          	beqz	a5,10d58 <_vfprintf_r+0x9ec>
   10b54:	00000813          	li	a6,0
   10b58:	c05ff06f          	j	1075c <_vfprintf_r+0x3f0>
   10b5c:	03112423          	sw	a7,40(sp)
   10b60:	00058463          	beqz	a1,10b68 <_vfprintf_r+0x7fc>
   10b64:	3640106f          	j	11ec8 <_vfprintf_r+0x1b5c>
   10b68:	010aea93          	ori	s5,s5,16
   10b6c:	010af793          	andi	a5,s5,16
   10b70:	e20790e3          	bnez	a5,10990 <_vfprintf_r+0x624>
   10b74:	03412283          	lw	t0,52(sp)
   10b78:	040af793          	andi	a5,s5,64
   10b7c:	00428713          	addi	a4,t0,4
   10b80:	120782e3          	beqz	a5,114a4 <_vfprintf_r+0x1138>
   10b84:	0002d783          	lhu	a5,0(t0)
   10b88:	060107a3          	sb	zero,111(sp)
   10b8c:	e0045ce3          	bgez	s0,109a4 <_vfprintf_r+0x638>
   10b90:	02e12a23          	sw	a4,52(sp)
   10b94:	00000813          	li	a6,0
   10b98:	e0079ee3          	bnez	a5,109b4 <_vfprintf_r+0x648>
   10b9c:	00100793          	li	a5,1
   10ba0:	1b80006f          	j	10d58 <_vfprintf_r+0x9ec>
   10ba4:	03112423          	sw	a7,40(sp)
   10ba8:	00058463          	beqz	a1,10bb0 <_vfprintf_r+0x844>
   10bac:	2e40106f          	j	11e90 <_vfprintf_r+0x1b24>
   10bb0:	0001b7b7          	lui	a5,0x1b
   10bb4:	a9c78793          	addi	a5,a5,-1380 # 1aa9c <__clz_tab+0x114>
   10bb8:	04f12c23          	sw	a5,88(sp)
   10bbc:	010af793          	andi	a5,s5,16
   10bc0:	0c078e63          	beqz	a5,10c9c <_vfprintf_r+0x930>
   10bc4:	03412283          	lw	t0,52(sp)
   10bc8:	0002a783          	lw	a5,0(t0)
   10bcc:	00428293          	addi	t0,t0,4
   10bd0:	02512a23          	sw	t0,52(sp)
   10bd4:	001af713          	andi	a4,s5,1
   10bd8:	78070463          	beqz	a4,11360 <_vfprintf_r+0xff4>
   10bdc:	2e0786e3          	beqz	a5,116c8 <_vfprintf_r+0x135c>
   10be0:	03000713          	li	a4,48
   10be4:	06e10823          	sb	a4,112(sp)
   10be8:	07a108a3          	sb	s10,113(sp)
   10bec:	002ae713          	ori	a4,s5,2
   10bf0:	060107a3          	sb	zero,111(sp)
   10bf4:	6c0440e3          	bltz	s0,11ab4 <_vfprintf_r+0x1748>
   10bf8:	f7fafa93          	andi	s5,s5,-129
   10bfc:	002aea93          	ori	s5,s5,2
   10c00:	00000813          	li	a6,0
   10c04:	05812603          	lw	a2,88(sp)
   10c08:	0c010893          	addi	a7,sp,192
   10c0c:	00088a13          	mv	s4,a7
   10c10:	00f7f713          	andi	a4,a5,15
   10c14:	00e60733          	add	a4,a2,a4
   10c18:	00074703          	lbu	a4,0(a4)
   10c1c:	fffa0a13          	addi	s4,s4,-1
   10c20:	0047d793          	srli	a5,a5,0x4
   10c24:	00ea0023          	sb	a4,0(s4)
   10c28:	fe0794e3          	bnez	a5,10c10 <_vfprintf_r+0x8a4>
   10c2c:	dc1ff06f          	j	109ec <_vfprintf_r+0x680>
   10c30:	03412283          	lw	t0,52(sp)
   10c34:	00100713          	li	a4,1
   10c38:	03112423          	sw	a7,40(sp)
   10c3c:	0002a783          	lw	a5,0(t0)
   10c40:	00428293          	addi	t0,t0,4
   10c44:	02e12223          	sw	a4,36(sp)
   10c48:	060107a3          	sb	zero,111(sp)
   10c4c:	08f10c23          	sb	a5,152(sp)
   10c50:	02512a23          	sw	t0,52(sp)
   10c54:	02e12823          	sw	a4,48(sp)
   10c58:	09810a13          	addi	s4,sp,152
   10c5c:	00000413          	li	s0,0
   10c60:	b61ff06f          	j	107c0 <_vfprintf_r+0x454>
   10c64:	03112423          	sw	a7,40(sp)
   10c68:	dc0586e3          	beqz	a1,10a34 <_vfprintf_r+0x6c8>
   10c6c:	06a107a3          	sb	a0,111(sp)
   10c70:	dc5ff06f          	j	10a34 <_vfprintf_r+0x6c8>
   10c74:	040aea93          	ori	s5,s5,64
   10c78:	891ff06f          	j	10508 <_vfprintf_r+0x19c>
   10c7c:	03112423          	sw	a7,40(sp)
   10c80:	00058463          	beqz	a1,10c88 <_vfprintf_r+0x91c>
   10c84:	21c0106f          	j	11ea0 <_vfprintf_r+0x1b34>
   10c88:	0001b7b7          	lui	a5,0x1b
   10c8c:	ab078793          	addi	a5,a5,-1360 # 1aab0 <__clz_tab+0x128>
   10c90:	04f12c23          	sw	a5,88(sp)
   10c94:	010af793          	andi	a5,s5,16
   10c98:	f20796e3          	bnez	a5,10bc4 <_vfprintf_r+0x858>
   10c9c:	040af793          	andi	a5,s5,64
   10ca0:	03412283          	lw	t0,52(sp)
   10ca4:	20078ae3          	beqz	a5,116b8 <_vfprintf_r+0x134c>
   10ca8:	0002d783          	lhu	a5,0(t0)
   10cac:	00428293          	addi	t0,t0,4
   10cb0:	02512a23          	sw	t0,52(sp)
   10cb4:	f21ff06f          	j	10bd4 <_vfprintf_r+0x868>
   10cb8:	00058463          	beqz	a1,10cc0 <_vfprintf_r+0x954>
   10cbc:	2240106f          	j	11ee0 <_vfprintf_r+0x1b74>
   10cc0:	010af793          	andi	a5,s5,16
   10cc4:	0a079863          	bnez	a5,10d74 <_vfprintf_r+0xa08>
   10cc8:	040afa93          	andi	s5,s5,64
   10ccc:	0a0a8463          	beqz	s5,10d74 <_vfprintf_r+0xa08>
   10cd0:	03412283          	lw	t0,52(sp)
   10cd4:	0002a783          	lw	a5,0(t0)
   10cd8:	00428293          	addi	t0,t0,4
   10cdc:	02512a23          	sw	t0,52(sp)
   10ce0:	03812283          	lw	t0,56(sp)
   10ce4:	00579023          	sh	t0,0(a5)
   10ce8:	f84ff06f          	j	1046c <_vfprintf_r+0x100>
   10cec:	0001b737          	lui	a4,0x1b
   10cf0:	ab070713          	addi	a4,a4,-1360 # 1aab0 <__clz_tab+0x128>
   10cf4:	00000813          	li	a6,0
   10cf8:	04e12c23          	sw	a4,88(sp)
   10cfc:	07800d13          	li	s10,120
   10d00:	f05ff06f          	j	10c04 <_vfprintf_r+0x898>
   10d04:	03112423          	sw	a7,40(sp)
   10d08:	00058463          	beqz	a1,10d10 <_vfprintf_r+0x9a4>
   10d0c:	18c0106f          	j	11e98 <_vfprintf_r+0x1b2c>
   10d10:	980d02e3          	beqz	s10,10694 <_vfprintf_r+0x328>
   10d14:	00100793          	li	a5,1
   10d18:	02f12223          	sw	a5,36(sp)
   10d1c:	09a10c23          	sb	s10,152(sp)
   10d20:	060107a3          	sb	zero,111(sp)
   10d24:	02f12823          	sw	a5,48(sp)
   10d28:	09810a13          	addi	s4,sp,152
   10d2c:	00000413          	li	s0,0
   10d30:	a91ff06f          	j	107c0 <_vfprintf_r+0x454>
   10d34:	02e12a23          	sw	a4,52(sp)
   10d38:	0001b737          	lui	a4,0x1b
   10d3c:	ab070713          	addi	a4,a4,-1360 # 1aab0 <__clz_tab+0x128>
   10d40:	00058a93          	mv	s5,a1
   10d44:	04e12c23          	sw	a4,88(sp)
   10d48:	07800d13          	li	s10,120
   10d4c:	62079263          	bnez	a5,11370 <_vfprintf_r+0x1004>
   10d50:	00000813          	li	a6,0
   10d54:	00200793          	li	a5,2
   10d58:	00100713          	li	a4,1
   10d5c:	3ee782e3          	beq	a5,a4,11940 <_vfprintf_r+0x15d4>
   10d60:	00200713          	li	a4,2
   10d64:	00e79463          	bne	a5,a4,10d6c <_vfprintf_r+0xa00>
   10d68:	1200106f          	j	11e88 <_vfprintf_r+0x1b1c>
   10d6c:	00000793          	li	a5,0
   10d70:	9edff06f          	j	1075c <_vfprintf_r+0x3f0>
   10d74:	03412283          	lw	t0,52(sp)
   10d78:	0002a783          	lw	a5,0(t0)
   10d7c:	00428293          	addi	t0,t0,4
   10d80:	02512a23          	sw	t0,52(sp)
   10d84:	03812283          	lw	t0,56(sp)
   10d88:	0057a023          	sw	t0,0(a5)
   10d8c:	00094783          	lbu	a5,0(s2)
   10d90:	ee079263          	bnez	a5,10474 <_vfprintf_r+0x108>
   10d94:	00090413          	mv	s0,s2
   10d98:	f3cff06f          	j	104d4 <_vfprintf_r+0x168>
   10d9c:	09412603          	lw	a2,148(sp)
   10da0:	09012783          	lw	a5,144(sp)
   10da4:	06f14703          	lbu	a4,111(sp)
   10da8:	02070863          	beqz	a4,10dd8 <_vfprintf_r+0xa6c>
   10dac:	06f10713          	addi	a4,sp,111
   10db0:	00e6a023          	sw	a4,0(a3)
   10db4:	00100713          	li	a4,1
   10db8:	00e6a223          	sw	a4,4(a3)
   10dbc:	00160613          	addi	a2,a2,1
   10dc0:	00178793          	addi	a5,a5,1
   10dc4:	00700713          	li	a4,7
   10dc8:	08c12a23          	sw	a2,148(sp)
   10dcc:	08f12823          	sw	a5,144(sp)
   10dd0:	00868693          	addi	a3,a3,8
   10dd4:	54f74263          	blt	a4,a5,11318 <_vfprintf_r+0xfac>
   10dd8:	02c12703          	lw	a4,44(sp)
   10ddc:	02070863          	beqz	a4,10e0c <_vfprintf_r+0xaa0>
   10de0:	07010713          	addi	a4,sp,112
   10de4:	00e6a023          	sw	a4,0(a3)
   10de8:	00200713          	li	a4,2
   10dec:	00e6a223          	sw	a4,4(a3)
   10df0:	00260613          	addi	a2,a2,2
   10df4:	00178793          	addi	a5,a5,1
   10df8:	00700713          	li	a4,7
   10dfc:	08c12a23          	sw	a2,148(sp)
   10e00:	08f12823          	sw	a5,144(sp)
   10e04:	00868693          	addi	a3,a3,8
   10e08:	52f74a63          	blt	a4,a5,1133c <_vfprintf_r+0xfd0>
   10e0c:	03c12283          	lw	t0,60(sp)
   10e10:	08000713          	li	a4,128
   10e14:	30e28e63          	beq	t0,a4,11130 <_vfprintf_r+0xdc4>
   10e18:	03012703          	lw	a4,48(sp)
   10e1c:	40e40433          	sub	s0,s0,a4
   10e20:	0a805a63          	blez	s0,10ed4 <_vfprintf_r+0xb68>
   10e24:	01000713          	li	a4,16
   10e28:	03912623          	sw	s9,44(sp)
   10e2c:	06875063          	ble	s0,a4,10e8c <_vfprintf_r+0xb20>
   10e30:	00070493          	mv	s1,a4
   10e34:	00700d93          	li	s11,7
   10e38:	00c0006f          	j	10e44 <_vfprintf_r+0xad8>
   10e3c:	ff040413          	addi	s0,s0,-16
   10e40:	0484d663          	ble	s0,s1,10e8c <_vfprintf_r+0xb20>
   10e44:	01060613          	addi	a2,a2,16
   10e48:	00178793          	addi	a5,a5,1
   10e4c:	0196a023          	sw	s9,0(a3)
   10e50:	0096a223          	sw	s1,4(a3)
   10e54:	08c12a23          	sw	a2,148(sp)
   10e58:	08f12823          	sw	a5,144(sp)
   10e5c:	00868693          	addi	a3,a3,8
   10e60:	fcfddee3          	ble	a5,s11,10e3c <_vfprintf_r+0xad0>
   10e64:	08c10613          	addi	a2,sp,140
   10e68:	00098593          	mv	a1,s3
   10e6c:	000b0513          	mv	a0,s6
   10e70:	2ec050ef          	jal	1615c <__sprint_r>
   10e74:	82051ce3          	bnez	a0,106ac <_vfprintf_r+0x340>
   10e78:	ff040413          	addi	s0,s0,-16
   10e7c:	09412603          	lw	a2,148(sp)
   10e80:	09012783          	lw	a5,144(sp)
   10e84:	000b8693          	mv	a3,s7
   10e88:	fa84cee3          	blt	s1,s0,10e44 <_vfprintf_r+0xad8>
   10e8c:	02c12283          	lw	t0,44(sp)
   10e90:	00860633          	add	a2,a2,s0
   10e94:	00178793          	addi	a5,a5,1
   10e98:	00700713          	li	a4,7
   10e9c:	0056a023          	sw	t0,0(a3)
   10ea0:	0086a223          	sw	s0,4(a3)
   10ea4:	08c12a23          	sw	a2,148(sp)
   10ea8:	08f12823          	sw	a5,144(sp)
   10eac:	00868693          	addi	a3,a3,8
   10eb0:	02f75263          	ble	a5,a4,10ed4 <_vfprintf_r+0xb68>
   10eb4:	08c10613          	addi	a2,sp,140
   10eb8:	00098593          	mv	a1,s3
   10ebc:	000b0513          	mv	a0,s6
   10ec0:	29c050ef          	jal	1615c <__sprint_r>
   10ec4:	fe051463          	bnez	a0,106ac <_vfprintf_r+0x340>
   10ec8:	09412603          	lw	a2,148(sp)
   10ecc:	09012783          	lw	a5,144(sp)
   10ed0:	000b8693          	mv	a3,s7
   10ed4:	100af713          	andi	a4,s5,256
   10ed8:	14071c63          	bnez	a4,11030 <_vfprintf_r+0xcc4>
   10edc:	03012283          	lw	t0,48(sp)
   10ee0:	00178793          	addi	a5,a5,1
   10ee4:	0146a023          	sw	s4,0(a3)
   10ee8:	00560733          	add	a4,a2,t0
   10eec:	00700613          	li	a2,7
   10ef0:	0056a223          	sw	t0,4(a3)
   10ef4:	08e12a23          	sw	a4,148(sp)
   10ef8:	08f12823          	sw	a5,144(sp)
   10efc:	10f64a63          	blt	a2,a5,11010 <_vfprintf_r+0xca4>
   10f00:	00868693          	addi	a3,a3,8
   10f04:	004afa93          	andi	s5,s5,4
   10f08:	0a0a8c63          	beqz	s5,10fc0 <_vfprintf_r+0xc54>
   10f0c:	02812283          	lw	t0,40(sp)
   10f10:	02412783          	lw	a5,36(sp)
   10f14:	40f28433          	sub	s0,t0,a5
   10f18:	0a805463          	blez	s0,10fc0 <_vfprintf_r+0xc54>
   10f1c:	01000a13          	li	s4,16
   10f20:	09012783          	lw	a5,144(sp)
   10f24:	05812423          	sw	s8,72(sp)
   10f28:	048a5e63          	ble	s0,s4,10f84 <_vfprintf_r+0xc18>
   10f2c:	00700a93          	li	s5,7
   10f30:	00c0006f          	j	10f3c <_vfprintf_r+0xbd0>
   10f34:	ff040413          	addi	s0,s0,-16
   10f38:	048a5663          	ble	s0,s4,10f84 <_vfprintf_r+0xc18>
   10f3c:	01070713          	addi	a4,a4,16
   10f40:	00178793          	addi	a5,a5,1
   10f44:	0186a023          	sw	s8,0(a3)
   10f48:	0146a223          	sw	s4,4(a3)
   10f4c:	08e12a23          	sw	a4,148(sp)
   10f50:	08f12823          	sw	a5,144(sp)
   10f54:	00868693          	addi	a3,a3,8
   10f58:	fcfadee3          	ble	a5,s5,10f34 <_vfprintf_r+0xbc8>
   10f5c:	08c10613          	addi	a2,sp,140
   10f60:	00098593          	mv	a1,s3
   10f64:	000b0513          	mv	a0,s6
   10f68:	1f4050ef          	jal	1615c <__sprint_r>
   10f6c:	f4051063          	bnez	a0,106ac <_vfprintf_r+0x340>
   10f70:	ff040413          	addi	s0,s0,-16
   10f74:	09412703          	lw	a4,148(sp)
   10f78:	09012783          	lw	a5,144(sp)
   10f7c:	000b8693          	mv	a3,s7
   10f80:	fa8a4ee3          	blt	s4,s0,10f3c <_vfprintf_r+0xbd0>
   10f84:	04812283          	lw	t0,72(sp)
   10f88:	00870733          	add	a4,a4,s0
   10f8c:	00178793          	addi	a5,a5,1
   10f90:	0056a023          	sw	t0,0(a3)
   10f94:	0086a223          	sw	s0,4(a3)
   10f98:	00700693          	li	a3,7
   10f9c:	08e12a23          	sw	a4,148(sp)
   10fa0:	08f12823          	sw	a5,144(sp)
   10fa4:	00f6de63          	ble	a5,a3,10fc0 <_vfprintf_r+0xc54>
   10fa8:	08c10613          	addi	a2,sp,140
   10fac:	00098593          	mv	a1,s3
   10fb0:	000b0513          	mv	a0,s6
   10fb4:	1a8050ef          	jal	1615c <__sprint_r>
   10fb8:	ee051a63          	bnez	a0,106ac <_vfprintf_r+0x340>
   10fbc:	09412703          	lw	a4,148(sp)
   10fc0:	02812483          	lw	s1,40(sp)
   10fc4:	02412683          	lw	a3,36(sp)
   10fc8:	00d4d463          	ble	a3,s1,10fd0 <_vfprintf_r+0xc64>
   10fcc:	00068493          	mv	s1,a3
   10fd0:	03812283          	lw	t0,56(sp)
   10fd4:	009282b3          	add	t0,t0,s1
   10fd8:	02512c23          	sw	t0,56(sp)
   10fdc:	20071e63          	bnez	a4,111f8 <_vfprintf_r+0xe8c>
   10fe0:	08012823          	sw	zero,144(sp)
   10fe4:	000b8693          	mv	a3,s7
   10fe8:	c84ff06f          	j	1046c <_vfprintf_r+0x100>
   10fec:	02c12283          	lw	t0,44(sp)
   10ff0:	00870733          	add	a4,a4,s0
   10ff4:	00178793          	addi	a5,a5,1
   10ff8:	0056a023          	sw	t0,0(a3)
   10ffc:	00700613          	li	a2,7
   11000:	0086a223          	sw	s0,4(a3)
   11004:	08e12a23          	sw	a4,148(sp)
   11008:	08f12823          	sw	a5,144(sp)
   1100c:	eef65ae3          	ble	a5,a2,10f00 <_vfprintf_r+0xb94>
   11010:	08c10613          	addi	a2,sp,140
   11014:	00098593          	mv	a1,s3
   11018:	000b0513          	mv	a0,s6
   1101c:	140050ef          	jal	1615c <__sprint_r>
   11020:	e8051663          	bnez	a0,106ac <_vfprintf_r+0x340>
   11024:	09412703          	lw	a4,148(sp)
   11028:	000b8693          	mv	a3,s7
   1102c:	ed9ff06f          	j	10f04 <_vfprintf_r+0xb98>
   11030:	06500713          	li	a4,101
   11034:	1da75e63          	ble	s10,a4,11210 <_vfprintf_r+0xea4>
   11038:	05013087          	fld	ft1,80(sp)
   1103c:	d2000053          	fcvt.d.w	ft0,zero
   11040:	a200a753          	feq.d	a4,ft1,ft0
   11044:	32070a63          	beqz	a4,11378 <_vfprintf_r+0x100c>
   11048:	00160713          	addi	a4,a2,1
   1104c:	0001b2b7          	lui	t0,0x1b
   11050:	00100613          	li	a2,1
   11054:	00c6a223          	sw	a2,4(a3)
   11058:	00178793          	addi	a5,a5,1
   1105c:	acc28293          	addi	t0,t0,-1332 # 1aacc <__clz_tab+0x144>
   11060:	00700613          	li	a2,7
   11064:	0056a023          	sw	t0,0(a3)
   11068:	08e12a23          	sw	a4,148(sp)
   1106c:	08f12823          	sw	a5,144(sp)
   11070:	00868693          	addi	a3,a3,8
   11074:	74f64263          	blt	a2,a5,117b8 <_vfprintf_r+0x144c>
   11078:	07412783          	lw	a5,116(sp)
   1107c:	04412283          	lw	t0,68(sp)
   11080:	0057c663          	blt	a5,t0,1108c <_vfprintf_r+0xd20>
   11084:	001af793          	andi	a5,s5,1
   11088:	e6078ee3          	beqz	a5,10f04 <_vfprintf_r+0xb98>
   1108c:	04c12283          	lw	t0,76(sp)
   11090:	09012783          	lw	a5,144(sp)
   11094:	00700613          	li	a2,7
   11098:	00570733          	add	a4,a4,t0
   1109c:	04012283          	lw	t0,64(sp)
   110a0:	00178793          	addi	a5,a5,1
   110a4:	08e12a23          	sw	a4,148(sp)
   110a8:	0056a023          	sw	t0,0(a3)
   110ac:	04c12283          	lw	t0,76(sp)
   110b0:	08f12823          	sw	a5,144(sp)
   110b4:	00868693          	addi	a3,a3,8
   110b8:	fe56ae23          	sw	t0,-4(a3)
   110bc:	08f64ae3          	blt	a2,a5,11950 <_vfprintf_r+0x15e4>
   110c0:	04412783          	lw	a5,68(sp)
   110c4:	fff78413          	addi	s0,a5,-1
   110c8:	e2805ee3          	blez	s0,10f04 <_vfprintf_r+0xb98>
   110cc:	01000a13          	li	s4,16
   110d0:	09012783          	lw	a5,144(sp)
   110d4:	03912623          	sw	s9,44(sp)
   110d8:	f08a5ae3          	ble	s0,s4,10fec <_vfprintf_r+0xc80>
   110dc:	00700d13          	li	s10,7
   110e0:	00c0006f          	j	110ec <_vfprintf_r+0xd80>
   110e4:	ff040413          	addi	s0,s0,-16
   110e8:	f08a52e3          	ble	s0,s4,10fec <_vfprintf_r+0xc80>
   110ec:	01070713          	addi	a4,a4,16
   110f0:	00178793          	addi	a5,a5,1
   110f4:	0196a023          	sw	s9,0(a3)
   110f8:	0146a223          	sw	s4,4(a3)
   110fc:	08e12a23          	sw	a4,148(sp)
   11100:	08f12823          	sw	a5,144(sp)
   11104:	00868693          	addi	a3,a3,8
   11108:	fcfd5ee3          	ble	a5,s10,110e4 <_vfprintf_r+0xd78>
   1110c:	08c10613          	addi	a2,sp,140
   11110:	00098593          	mv	a1,s3
   11114:	000b0513          	mv	a0,s6
   11118:	044050ef          	jal	1615c <__sprint_r>
   1111c:	d8051863          	bnez	a0,106ac <_vfprintf_r+0x340>
   11120:	09412703          	lw	a4,148(sp)
   11124:	09012783          	lw	a5,144(sp)
   11128:	000b8693          	mv	a3,s7
   1112c:	fb9ff06f          	j	110e4 <_vfprintf_r+0xd78>
   11130:	02812283          	lw	t0,40(sp)
   11134:	02412703          	lw	a4,36(sp)
   11138:	40e284b3          	sub	s1,t0,a4
   1113c:	cc905ee3          	blez	s1,10e18 <_vfprintf_r+0xaac>
   11140:	01000893          	li	a7,16
   11144:	03912623          	sw	s9,44(sp)
   11148:	0698d263          	ble	s1,a7,111ac <_vfprintf_r+0xe40>
   1114c:	00700d93          	li	s11,7
   11150:	00c0006f          	j	1115c <_vfprintf_r+0xdf0>
   11154:	ff048493          	addi	s1,s1,-16
   11158:	0498da63          	ble	s1,a7,111ac <_vfprintf_r+0xe40>
   1115c:	01060613          	addi	a2,a2,16
   11160:	00178793          	addi	a5,a5,1
   11164:	0196a023          	sw	s9,0(a3)
   11168:	0116a223          	sw	a7,4(a3)
   1116c:	08c12a23          	sw	a2,148(sp)
   11170:	08f12823          	sw	a5,144(sp)
   11174:	00868693          	addi	a3,a3,8
   11178:	fcfddee3          	ble	a5,s11,11154 <_vfprintf_r+0xde8>
   1117c:	08c10613          	addi	a2,sp,140
   11180:	00098593          	mv	a1,s3
   11184:	000b0513          	mv	a0,s6
   11188:	03112023          	sw	a7,32(sp)
   1118c:	7d1040ef          	jal	1615c <__sprint_r>
   11190:	02012883          	lw	a7,32(sp)
   11194:	d0051c63          	bnez	a0,106ac <_vfprintf_r+0x340>
   11198:	ff048493          	addi	s1,s1,-16
   1119c:	09412603          	lw	a2,148(sp)
   111a0:	09012783          	lw	a5,144(sp)
   111a4:	000b8693          	mv	a3,s7
   111a8:	fa98cae3          	blt	a7,s1,1115c <_vfprintf_r+0xdf0>
   111ac:	02c12283          	lw	t0,44(sp)
   111b0:	00960633          	add	a2,a2,s1
   111b4:	00178793          	addi	a5,a5,1
   111b8:	00700713          	li	a4,7
   111bc:	0056a023          	sw	t0,0(a3)
   111c0:	0096a223          	sw	s1,4(a3)
   111c4:	08c12a23          	sw	a2,148(sp)
   111c8:	08f12823          	sw	a5,144(sp)
   111cc:	00868693          	addi	a3,a3,8
   111d0:	c4f754e3          	ble	a5,a4,10e18 <_vfprintf_r+0xaac>
   111d4:	08c10613          	addi	a2,sp,140
   111d8:	00098593          	mv	a1,s3
   111dc:	000b0513          	mv	a0,s6
   111e0:	77d040ef          	jal	1615c <__sprint_r>
   111e4:	cc051463          	bnez	a0,106ac <_vfprintf_r+0x340>
   111e8:	09412603          	lw	a2,148(sp)
   111ec:	09012783          	lw	a5,144(sp)
   111f0:	000b8693          	mv	a3,s7
   111f4:	c25ff06f          	j	10e18 <_vfprintf_r+0xaac>
   111f8:	08c10613          	addi	a2,sp,140
   111fc:	00098593          	mv	a1,s3
   11200:	000b0513          	mv	a0,s6
   11204:	759040ef          	jal	1615c <__sprint_r>
   11208:	dc050ce3          	beqz	a0,10fe0 <_vfprintf_r+0xc74>
   1120c:	ca0ff06f          	j	106ac <_vfprintf_r+0x340>
   11210:	04412703          	lw	a4,68(sp)
   11214:	00100593          	li	a1,1
   11218:	0ae5da63          	ble	a4,a1,112cc <_vfprintf_r+0xf60>
   1121c:	00160713          	addi	a4,a2,1
   11220:	00100613          	li	a2,1
   11224:	00c6a223          	sw	a2,4(a3)
   11228:	00178793          	addi	a5,a5,1
   1122c:	00700613          	li	a2,7
   11230:	0146a023          	sw	s4,0(a3)
   11234:	08e12a23          	sw	a4,148(sp)
   11238:	08f12823          	sw	a5,144(sp)
   1123c:	00868693          	addi	a3,a3,8
   11240:	26f64a63          	blt	a2,a5,114b4 <_vfprintf_r+0x1148>
   11244:	04c12283          	lw	t0,76(sp)
   11248:	00178793          	addi	a5,a5,1
   1124c:	00700613          	li	a2,7
   11250:	00570733          	add	a4,a4,t0
   11254:	04012283          	lw	t0,64(sp)
   11258:	08e12a23          	sw	a4,148(sp)
   1125c:	08f12823          	sw	a5,144(sp)
   11260:	0056a023          	sw	t0,0(a3)
   11264:	04c12283          	lw	t0,76(sp)
   11268:	00868693          	addi	a3,a3,8
   1126c:	fe56ae23          	sw	t0,-4(a3)
   11270:	26f64c63          	blt	a2,a5,114e8 <_vfprintf_r+0x117c>
   11274:	05013087          	fld	ft1,80(sp)
   11278:	d2000053          	fcvt.d.w	ft0,zero
   1127c:	04412283          	lw	t0,68(sp)
   11280:	a200a5d3          	feq.d	a1,ft1,ft0
   11284:	1a059c63          	bnez	a1,1143c <_vfprintf_r+0x10d0>
   11288:	fff28613          	addi	a2,t0,-1
   1128c:	00c70733          	add	a4,a4,a2
   11290:	001a0a13          	addi	s4,s4,1
   11294:	00178793          	addi	a5,a5,1
   11298:	00c6a223          	sw	a2,4(a3)
   1129c:	00700613          	li	a2,7
   112a0:	0146a023          	sw	s4,0(a3)
   112a4:	08e12a23          	sw	a4,148(sp)
   112a8:	08f12823          	sw	a5,144(sp)
   112ac:	04f64463          	blt	a2,a5,112f4 <_vfprintf_r+0xf88>
   112b0:	00868693          	addi	a3,a3,8
   112b4:	05c12283          	lw	t0,92(sp)
   112b8:	07c10613          	addi	a2,sp,124
   112bc:	00178793          	addi	a5,a5,1
   112c0:	00e28733          	add	a4,t0,a4
   112c4:	00c6a023          	sw	a2,0(a3)
   112c8:	c25ff06f          	j	10eec <_vfprintf_r+0xb80>
   112cc:	00baf733          	and	a4,s5,a1
   112d0:	f40716e3          	bnez	a4,1121c <_vfprintf_r+0xeb0>
   112d4:	00160713          	addi	a4,a2,1
   112d8:	00178793          	addi	a5,a5,1
   112dc:	00700613          	li	a2,7
   112e0:	0146a023          	sw	s4,0(a3)
   112e4:	00b6a223          	sw	a1,4(a3)
   112e8:	08e12a23          	sw	a4,148(sp)
   112ec:	08f12823          	sw	a5,144(sp)
   112f0:	fcf650e3          	ble	a5,a2,112b0 <_vfprintf_r+0xf44>
   112f4:	08c10613          	addi	a2,sp,140
   112f8:	00098593          	mv	a1,s3
   112fc:	000b0513          	mv	a0,s6
   11300:	65d040ef          	jal	1615c <__sprint_r>
   11304:	ba051463          	bnez	a0,106ac <_vfprintf_r+0x340>
   11308:	09412703          	lw	a4,148(sp)
   1130c:	09012783          	lw	a5,144(sp)
   11310:	000b8693          	mv	a3,s7
   11314:	fa1ff06f          	j	112b4 <_vfprintf_r+0xf48>
   11318:	08c10613          	addi	a2,sp,140
   1131c:	00098593          	mv	a1,s3
   11320:	000b0513          	mv	a0,s6
   11324:	639040ef          	jal	1615c <__sprint_r>
   11328:	b8051263          	bnez	a0,106ac <_vfprintf_r+0x340>
   1132c:	09412603          	lw	a2,148(sp)
   11330:	09012783          	lw	a5,144(sp)
   11334:	000b8693          	mv	a3,s7
   11338:	aa1ff06f          	j	10dd8 <_vfprintf_r+0xa6c>
   1133c:	08c10613          	addi	a2,sp,140
   11340:	00098593          	mv	a1,s3
   11344:	000b0513          	mv	a0,s6
   11348:	615040ef          	jal	1615c <__sprint_r>
   1134c:	b6051063          	bnez	a0,106ac <_vfprintf_r+0x340>
   11350:	09412603          	lw	a2,148(sp)
   11354:	09012783          	lw	a5,144(sp)
   11358:	000b8693          	mv	a3,s7
   1135c:	ab1ff06f          	j	10e0c <_vfprintf_r+0xaa0>
   11360:	060107a3          	sb	zero,111(sp)
   11364:	9e0444e3          	bltz	s0,10d4c <_vfprintf_r+0x9e0>
   11368:	f7fafa93          	andi	s5,s5,-129
   1136c:	a2078c63          	beqz	a5,105a4 <_vfprintf_r+0x238>
   11370:	00000813          	li	a6,0
   11374:	891ff06f          	j	10c04 <_vfprintf_r+0x898>
   11378:	07412403          	lw	s0,116(sp)
   1137c:	46805063          	blez	s0,117dc <_vfprintf_r+0x1470>
   11380:	04412703          	lw	a4,68(sp)
   11384:	34e44a63          	blt	s0,a4,116d8 <_vfprintf_r+0x136c>
   11388:	04412283          	lw	t0,68(sp)
   1138c:	00e60733          	add	a4,a2,a4
   11390:	00178793          	addi	a5,a5,1
   11394:	00700613          	li	a2,7
   11398:	0146a023          	sw	s4,0(a3)
   1139c:	0056a223          	sw	t0,4(a3)
   113a0:	08e12a23          	sw	a4,148(sp)
   113a4:	08f12823          	sw	a5,144(sp)
   113a8:	00868693          	addi	a3,a3,8
   113ac:	6af64063          	blt	a2,a5,11a4c <_vfprintf_r+0x16e0>
   113b0:	04412783          	lw	a5,68(sp)
   113b4:	40f40433          	sub	s0,s0,a5
   113b8:	3c805c63          	blez	s0,11790 <_vfprintf_r+0x1424>
   113bc:	01000a13          	li	s4,16
   113c0:	09012783          	lw	a5,144(sp)
   113c4:	03912623          	sw	s9,44(sp)
   113c8:	388a5063          	ble	s0,s4,11748 <_vfprintf_r+0x13dc>
   113cc:	00700d13          	li	s10,7
   113d0:	00c0006f          	j	113dc <_vfprintf_r+0x1070>
   113d4:	ff040413          	addi	s0,s0,-16
   113d8:	368a5863          	ble	s0,s4,11748 <_vfprintf_r+0x13dc>
   113dc:	01070713          	addi	a4,a4,16
   113e0:	00178793          	addi	a5,a5,1
   113e4:	0196a023          	sw	s9,0(a3)
   113e8:	0146a223          	sw	s4,4(a3)
   113ec:	08e12a23          	sw	a4,148(sp)
   113f0:	08f12823          	sw	a5,144(sp)
   113f4:	00868693          	addi	a3,a3,8
   113f8:	fcfd5ee3          	ble	a5,s10,113d4 <_vfprintf_r+0x1068>
   113fc:	08c10613          	addi	a2,sp,140
   11400:	00098593          	mv	a1,s3
   11404:	000b0513          	mv	a0,s6
   11408:	555040ef          	jal	1615c <__sprint_r>
   1140c:	aa051063          	bnez	a0,106ac <_vfprintf_r+0x340>
   11410:	09412703          	lw	a4,148(sp)
   11414:	09012783          	lw	a5,144(sp)
   11418:	000b8693          	mv	a3,s7
   1141c:	fb9ff06f          	j	113d4 <_vfprintf_r+0x1068>
   11420:	040af793          	andi	a5,s5,64
   11424:	03412283          	lw	t0,52(sp)
   11428:	28078063          	beqz	a5,116a8 <_vfprintf_r+0x133c>
   1142c:	00029783          	lh	a5,0(t0)
   11430:	00428293          	addi	t0,t0,4
   11434:	02512a23          	sw	t0,52(sp)
   11438:	e14ff06f          	j	10a4c <_vfprintf_r+0x6e0>
   1143c:	fff28413          	addi	s0,t0,-1
   11440:	e6805ae3          	blez	s0,112b4 <_vfprintf_r+0xf48>
   11444:	01000a13          	li	s4,16
   11448:	03912623          	sw	s9,44(sp)
   1144c:	0c8a5063          	ble	s0,s4,1150c <_vfprintf_r+0x11a0>
   11450:	00700d13          	li	s10,7
   11454:	00c0006f          	j	11460 <_vfprintf_r+0x10f4>
   11458:	ff040413          	addi	s0,s0,-16
   1145c:	0a8a5863          	ble	s0,s4,1150c <_vfprintf_r+0x11a0>
   11460:	01070713          	addi	a4,a4,16
   11464:	00178793          	addi	a5,a5,1
   11468:	0196a023          	sw	s9,0(a3)
   1146c:	0146a223          	sw	s4,4(a3)
   11470:	08e12a23          	sw	a4,148(sp)
   11474:	08f12823          	sw	a5,144(sp)
   11478:	00868693          	addi	a3,a3,8
   1147c:	fcfd5ee3          	ble	a5,s10,11458 <_vfprintf_r+0x10ec>
   11480:	08c10613          	addi	a2,sp,140
   11484:	00098593          	mv	a1,s3
   11488:	000b0513          	mv	a0,s6
   1148c:	4d1040ef          	jal	1615c <__sprint_r>
   11490:	a0051e63          	bnez	a0,106ac <_vfprintf_r+0x340>
   11494:	09412703          	lw	a4,148(sp)
   11498:	09012783          	lw	a5,144(sp)
   1149c:	000b8693          	mv	a3,s7
   114a0:	fb9ff06f          	j	11458 <_vfprintf_r+0x10ec>
   114a4:	0002a783          	lw	a5,0(t0)
   114a8:	060107a3          	sb	zero,111(sp)
   114ac:	ce045c63          	bgez	s0,109a4 <_vfprintf_r+0x638>
   114b0:	ee0ff06f          	j	10b90 <_vfprintf_r+0x824>
   114b4:	08c10613          	addi	a2,sp,140
   114b8:	00098593          	mv	a1,s3
   114bc:	000b0513          	mv	a0,s6
   114c0:	49d040ef          	jal	1615c <__sprint_r>
   114c4:	9e051463          	bnez	a0,106ac <_vfprintf_r+0x340>
   114c8:	09412703          	lw	a4,148(sp)
   114cc:	09012783          	lw	a5,144(sp)
   114d0:	000b8693          	mv	a3,s7
   114d4:	d71ff06f          	j	11244 <_vfprintf_r+0xed8>
   114d8:	0002a783          	lw	a5,0(t0)
   114dc:	060107a3          	sb	zero,111(sp)
   114e0:	a6045063          	bgez	s0,10740 <_vfprintf_r+0x3d4>
   114e4:	e64ff06f          	j	10b48 <_vfprintf_r+0x7dc>
   114e8:	08c10613          	addi	a2,sp,140
   114ec:	00098593          	mv	a1,s3
   114f0:	000b0513          	mv	a0,s6
   114f4:	469040ef          	jal	1615c <__sprint_r>
   114f8:	9a051a63          	bnez	a0,106ac <_vfprintf_r+0x340>
   114fc:	09412703          	lw	a4,148(sp)
   11500:	09012783          	lw	a5,144(sp)
   11504:	000b8693          	mv	a3,s7
   11508:	d6dff06f          	j	11274 <_vfprintf_r+0xf08>
   1150c:	02c12283          	lw	t0,44(sp)
   11510:	00870733          	add	a4,a4,s0
   11514:	00178793          	addi	a5,a5,1
   11518:	00700613          	li	a2,7
   1151c:	0056a023          	sw	t0,0(a3)
   11520:	0086a223          	sw	s0,4(a3)
   11524:	08e12a23          	sw	a4,148(sp)
   11528:	08f12823          	sw	a5,144(sp)
   1152c:	d8f652e3          	ble	a5,a2,112b0 <_vfprintf_r+0xf44>
   11530:	dc5ff06f          	j	112f4 <_vfprintf_r+0xf88>
   11534:	02d00713          	li	a4,45
   11538:	40f007b3          	neg	a5,a5
   1153c:	06e107a3          	sb	a4,111(sp)
   11540:	4a044e63          	bltz	s0,119fc <_vfprintf_r+0x1690>
   11544:	f7fafa93          	andi	s5,s5,-129
   11548:	02d00813          	li	a6,45
   1154c:	c68ff06f          	j	109b4 <_vfprintf_r+0x648>
   11550:	05013507          	fld	fa0,80(sp)
   11554:	00d12e23          	sw	a3,28(sp)
   11558:	7a4040ef          	jal	15cfc <__fpclassifyd>
   1155c:	01c12683          	lw	a3,28(sp)
   11560:	36050063          	beqz	a0,118c0 <_vfprintf_r+0x1554>
   11564:	fff00793          	li	a5,-1
   11568:	fdfd7d93          	andi	s11,s10,-33
   1156c:	6cf40663          	beq	s0,a5,11c38 <_vfprintf_r+0x18cc>
   11570:	04700793          	li	a5,71
   11574:	66fd8463          	beq	s11,a5,11bdc <_vfprintf_r+0x1870>
   11578:	05412783          	lw	a5,84(sp)
   1157c:	100ae293          	ori	t0,s5,256
   11580:	02512623          	sw	t0,44(sp)
   11584:	05013407          	fld	fs0,80(sp)
   11588:	00000493          	li	s1,0
   1158c:	7007c263          	bltz	a5,11c90 <_vfprintf_r+0x1924>
   11590:	06600793          	li	a5,102
   11594:	6afd0663          	beq	s10,a5,11c40 <_vfprintf_r+0x18d4>
   11598:	04600793          	li	a5,70
   1159c:	72fd0063          	beq	s10,a5,11cbc <_vfprintf_r+0x1950>
   115a0:	fbbd8593          	addi	a1,s11,-69
   115a4:	0015b593          	seqz	a1,a1
   115a8:	00b405b3          	add	a1,s0,a1
   115ac:	08410793          	addi	a5,sp,132
   115b0:	22840653          	fmv.d	fa2,fs0
   115b4:	00f12023          	sw	a5,0(sp)
   115b8:	07810893          	addi	a7,sp,120
   115bc:	00058793          	mv	a5,a1
   115c0:	07410813          	addi	a6,sp,116
   115c4:	00200713          	li	a4,2
   115c8:	000b0513          	mv	a0,s6
   115cc:	02b12023          	sw	a1,32(sp)
   115d0:	00d12e23          	sw	a3,28(sp)
   115d4:	6d1000ef          	jal	124a4 <_dtoa_r>
   115d8:	06700793          	li	a5,103
   115dc:	00050a13          	mv	s4,a0
   115e0:	02012583          	lw	a1,32(sp)
   115e4:	01c12683          	lw	a3,28(sp)
   115e8:	4afd0c63          	beq	s10,a5,11aa0 <_vfprintf_r+0x1734>
   115ec:	04700793          	li	a5,71
   115f0:	00b50633          	add	a2,a0,a1
   115f4:	4cfd0863          	beq	s10,a5,11ac4 <_vfprintf_r+0x1758>
   115f8:	d2000053          	fcvt.d.w	ft0,zero
   115fc:	00060793          	mv	a5,a2
   11600:	a2042753          	feq.d	a4,fs0,ft0
   11604:	02071263          	bnez	a4,11628 <_vfprintf_r+0x12bc>
   11608:	08412783          	lw	a5,132(sp)
   1160c:	00c7fe63          	bleu	a2,a5,11628 <_vfprintf_r+0x12bc>
   11610:	03000593          	li	a1,48
   11614:	00178713          	addi	a4,a5,1
   11618:	08e12223          	sw	a4,132(sp)
   1161c:	00b78023          	sb	a1,0(a5)
   11620:	08412783          	lw	a5,132(sp)
   11624:	fec7e8e3          	bltu	a5,a2,11614 <_vfprintf_r+0x12a8>
   11628:	414787b3          	sub	a5,a5,s4
   1162c:	04f12223          	sw	a5,68(sp)
   11630:	04700793          	li	a5,71
   11634:	4afd8463          	beq	s11,a5,11adc <_vfprintf_r+0x1770>
   11638:	06500793          	li	a5,101
   1163c:	07a7d6e3          	ble	s10,a5,11ea8 <_vfprintf_r+0x1b3c>
   11640:	06600793          	li	a5,102
   11644:	64fd0c63          	beq	s10,a5,11c9c <_vfprintf_r+0x1930>
   11648:	07412783          	lw	a5,116(sp)
   1164c:	02f12823          	sw	a5,48(sp)
   11650:	03012283          	lw	t0,48(sp)
   11654:	04412703          	lw	a4,68(sp)
   11658:	5ae2ce63          	blt	t0,a4,11c14 <_vfprintf_r+0x18a8>
   1165c:	001afa93          	andi	s5,s5,1
   11660:	740a9863          	bnez	s5,11db0 <_vfprintf_r+0x1a44>
   11664:	00028793          	mv	a5,t0
   11668:	5c02c463          	bltz	t0,11c30 <_vfprintf_r+0x18c4>
   1166c:	02f12223          	sw	a5,36(sp)
   11670:	06700d13          	li	s10,103
   11674:	40048063          	beqz	s1,11a74 <_vfprintf_r+0x1708>
   11678:	02d00793          	li	a5,45
   1167c:	06f107a3          	sb	a5,111(sp)
   11680:	02c12a83          	lw	s5,44(sp)
   11684:	00000413          	li	s0,0
   11688:	92cff06f          	j	107b4 <_vfprintf_r+0x448>
   1168c:	00728793          	addi	a5,t0,7
   11690:	ff87f793          	andi	a5,a5,-8
   11694:	0007b007          	fld	ft0,0(a5)
   11698:	00878793          	addi	a5,a5,8
   1169c:	02f12a23          	sw	a5,52(sp)
   116a0:	04013827          	fsd	ft0,80(sp)
   116a4:	c00ff06f          	j	10aa4 <_vfprintf_r+0x738>
   116a8:	0002a783          	lw	a5,0(t0)
   116ac:	00428293          	addi	t0,t0,4
   116b0:	02512a23          	sw	t0,52(sp)
   116b4:	b98ff06f          	j	10a4c <_vfprintf_r+0x6e0>
   116b8:	0002a783          	lw	a5,0(t0)
   116bc:	00428293          	addi	t0,t0,4
   116c0:	02512a23          	sw	t0,52(sp)
   116c4:	d10ff06f          	j	10bd4 <_vfprintf_r+0x868>
   116c8:	060107a3          	sb	zero,111(sp)
   116cc:	e8044263          	bltz	s0,10d50 <_vfprintf_r+0x9e4>
   116d0:	f7fafa93          	andi	s5,s5,-129
   116d4:	ed1fe06f          	j	105a4 <_vfprintf_r+0x238>
   116d8:	00c40733          	add	a4,s0,a2
   116dc:	00178793          	addi	a5,a5,1
   116e0:	00700613          	li	a2,7
   116e4:	0146a023          	sw	s4,0(a3)
   116e8:	0086a223          	sw	s0,4(a3)
   116ec:	08e12a23          	sw	a4,148(sp)
   116f0:	08f12823          	sw	a5,144(sp)
   116f4:	00868693          	addi	a3,a3,8
   116f8:	42f64463          	blt	a2,a5,11b20 <_vfprintf_r+0x17b4>
   116fc:	04c12283          	lw	t0,76(sp)
   11700:	00178793          	addi	a5,a5,1
   11704:	00700613          	li	a2,7
   11708:	00570733          	add	a4,a4,t0
   1170c:	04012283          	lw	t0,64(sp)
   11710:	008a0a33          	add	s4,s4,s0
   11714:	08e12a23          	sw	a4,148(sp)
   11718:	0056a023          	sw	t0,0(a3)
   1171c:	04c12283          	lw	t0,76(sp)
   11720:	08f12823          	sw	a5,144(sp)
   11724:	00868693          	addi	a3,a3,8
   11728:	fe56ae23          	sw	t0,-4(a3)
   1172c:	3cf64463          	blt	a2,a5,11af4 <_vfprintf_r+0x1788>
   11730:	04412283          	lw	t0,68(sp)
   11734:	00178793          	addi	a5,a5,1
   11738:	0146a023          	sw	s4,0(a3)
   1173c:	40828433          	sub	s0,t0,s0
   11740:	00e40733          	add	a4,s0,a4
   11744:	8b9ff06f          	j	10ffc <_vfprintf_r+0xc90>
   11748:	02c12283          	lw	t0,44(sp)
   1174c:	00870733          	add	a4,a4,s0
   11750:	00178793          	addi	a5,a5,1
   11754:	00700613          	li	a2,7
   11758:	0056a023          	sw	t0,0(a3)
   1175c:	0086a223          	sw	s0,4(a3)
   11760:	08e12a23          	sw	a4,148(sp)
   11764:	08f12823          	sw	a5,144(sp)
   11768:	00868693          	addi	a3,a3,8
   1176c:	02f65263          	ble	a5,a2,11790 <_vfprintf_r+0x1424>
   11770:	08c10613          	addi	a2,sp,140
   11774:	00098593          	mv	a1,s3
   11778:	000b0513          	mv	a0,s6
   1177c:	1e1040ef          	jal	1615c <__sprint_r>
   11780:	00050463          	beqz	a0,11788 <_vfprintf_r+0x141c>
   11784:	f29fe06f          	j	106ac <_vfprintf_r+0x340>
   11788:	09412703          	lw	a4,148(sp)
   1178c:	000b8693          	mv	a3,s7
   11790:	001af793          	andi	a5,s5,1
   11794:	f6078863          	beqz	a5,10f04 <_vfprintf_r+0xb98>
   11798:	04c12283          	lw	t0,76(sp)
   1179c:	09012783          	lw	a5,144(sp)
   117a0:	00570733          	add	a4,a4,t0
   117a4:	04012283          	lw	t0,64(sp)
   117a8:	00178793          	addi	a5,a5,1
   117ac:	0056a023          	sw	t0,0(a3)
   117b0:	04c12283          	lw	t0,76(sp)
   117b4:	f38ff06f          	j	10eec <_vfprintf_r+0xb80>
   117b8:	08c10613          	addi	a2,sp,140
   117bc:	00098593          	mv	a1,s3
   117c0:	000b0513          	mv	a0,s6
   117c4:	199040ef          	jal	1615c <__sprint_r>
   117c8:	00050463          	beqz	a0,117d0 <_vfprintf_r+0x1464>
   117cc:	ee1fe06f          	j	106ac <_vfprintf_r+0x340>
   117d0:	09412703          	lw	a4,148(sp)
   117d4:	000b8693          	mv	a3,s7
   117d8:	8a1ff06f          	j	11078 <_vfprintf_r+0xd0c>
   117dc:	00160713          	addi	a4,a2,1
   117e0:	0001b5b7          	lui	a1,0x1b
   117e4:	00100613          	li	a2,1
   117e8:	00c6a223          	sw	a2,4(a3)
   117ec:	00178793          	addi	a5,a5,1
   117f0:	acc58593          	addi	a1,a1,-1332 # 1aacc <__clz_tab+0x144>
   117f4:	00700613          	li	a2,7
   117f8:	00b6a023          	sw	a1,0(a3)
   117fc:	08e12a23          	sw	a4,148(sp)
   11800:	08f12823          	sw	a5,144(sp)
   11804:	00868693          	addi	a3,a3,8
   11808:	10f64663          	blt	a2,a5,11914 <_vfprintf_r+0x15a8>
   1180c:	0e040a63          	beqz	s0,11900 <_vfprintf_r+0x1594>
   11810:	04c12283          	lw	t0,76(sp)
   11814:	09012783          	lw	a5,144(sp)
   11818:	00700613          	li	a2,7
   1181c:	00570733          	add	a4,a4,t0
   11820:	04012283          	lw	t0,64(sp)
   11824:	00178793          	addi	a5,a5,1
   11828:	08e12a23          	sw	a4,148(sp)
   1182c:	0056a023          	sw	t0,0(a3)
   11830:	04c12283          	lw	t0,76(sp)
   11834:	08f12823          	sw	a5,144(sp)
   11838:	00868693          	addi	a3,a3,8
   1183c:	fe56ae23          	sw	t0,-4(a3)
   11840:	3af64463          	blt	a2,a5,11be8 <_vfprintf_r+0x187c>
   11844:	40800433          	neg	s0,s0
   11848:	16805c63          	blez	s0,119c0 <_vfprintf_r+0x1654>
   1184c:	01000d13          	li	s10,16
   11850:	03912623          	sw	s9,44(sp)
   11854:	128d5063          	ble	s0,s10,11974 <_vfprintf_r+0x1608>
   11858:	00700813          	li	a6,7
   1185c:	00c0006f          	j	11868 <_vfprintf_r+0x14fc>
   11860:	ff040413          	addi	s0,s0,-16
   11864:	108d5863          	ble	s0,s10,11974 <_vfprintf_r+0x1608>
   11868:	01070713          	addi	a4,a4,16
   1186c:	00178793          	addi	a5,a5,1
   11870:	0196a023          	sw	s9,0(a3)
   11874:	01a6a223          	sw	s10,4(a3)
   11878:	08e12a23          	sw	a4,148(sp)
   1187c:	08f12823          	sw	a5,144(sp)
   11880:	00868693          	addi	a3,a3,8
   11884:	fcf85ee3          	ble	a5,a6,11860 <_vfprintf_r+0x14f4>
   11888:	08c10613          	addi	a2,sp,140
   1188c:	00098593          	mv	a1,s3
   11890:	000b0513          	mv	a0,s6
   11894:	03012023          	sw	a6,32(sp)
   11898:	0c5040ef          	jal	1615c <__sprint_r>
   1189c:	02012803          	lw	a6,32(sp)
   118a0:	00050463          	beqz	a0,118a8 <_vfprintf_r+0x153c>
   118a4:	e09fe06f          	j	106ac <_vfprintf_r+0x340>
   118a8:	09412703          	lw	a4,148(sp)
   118ac:	09012783          	lw	a5,144(sp)
   118b0:	000b8693          	mv	a3,s7
   118b4:	fadff06f          	j	11860 <_vfprintf_r+0x14f4>
   118b8:	fff00513          	li	a0,-1
   118bc:	e05fe06f          	j	106c0 <_vfprintf_r+0x354>
   118c0:	04700793          	li	a5,71
   118c4:	1da7c063          	blt	a5,s10,11a84 <_vfprintf_r+0x1718>
   118c8:	0001ba37          	lui	s4,0x1b
   118cc:	a94a0a13          	addi	s4,s4,-1388 # 1aa94 <__clz_tab+0x10c>
   118d0:	00300713          	li	a4,3
   118d4:	02e12223          	sw	a4,36(sp)
   118d8:	f7fafa93          	andi	s5,s5,-129
   118dc:	06f14803          	lbu	a6,111(sp)
   118e0:	02e12823          	sw	a4,48(sp)
   118e4:	00000413          	li	s0,0
   118e8:	ec9fe06f          	j	107b0 <_vfprintf_r+0x444>
   118ec:	02a12823          	sw	a0,48(sp)
   118f0:	86cff06f          	j	1095c <_vfprintf_r+0x5f0>
   118f4:	0001ba37          	lui	s4,0x1b
   118f8:	a8ca0a13          	addi	s4,s4,-1396 # 1aa8c <__clz_tab+0x104>
   118fc:	9e8ff06f          	j	10ae4 <_vfprintf_r+0x778>
   11900:	04412783          	lw	a5,68(sp)
   11904:	f00796e3          	bnez	a5,11810 <_vfprintf_r+0x14a4>
   11908:	001af793          	andi	a5,s5,1
   1190c:	de078c63          	beqz	a5,10f04 <_vfprintf_r+0xb98>
   11910:	f01ff06f          	j	11810 <_vfprintf_r+0x14a4>
   11914:	08c10613          	addi	a2,sp,140
   11918:	00098593          	mv	a1,s3
   1191c:	000b0513          	mv	a0,s6
   11920:	03d040ef          	jal	1615c <__sprint_r>
   11924:	00050463          	beqz	a0,1192c <_vfprintf_r+0x15c0>
   11928:	d85fe06f          	j	106ac <_vfprintf_r+0x340>
   1192c:	07412403          	lw	s0,116(sp)
   11930:	09412703          	lw	a4,148(sp)
   11934:	000b8693          	mv	a3,s7
   11938:	ec041ce3          	bnez	s0,11810 <_vfprintf_r+0x14a4>
   1193c:	fc5ff06f          	j	11900 <_vfprintf_r+0x1594>
   11940:	0c010893          	addi	a7,sp,192
   11944:	00000793          	li	a5,0
   11948:	00088613          	mv	a2,a7
   1194c:	894ff06f          	j	109e0 <_vfprintf_r+0x674>
   11950:	08c10613          	addi	a2,sp,140
   11954:	00098593          	mv	a1,s3
   11958:	000b0513          	mv	a0,s6
   1195c:	001040ef          	jal	1615c <__sprint_r>
   11960:	00050463          	beqz	a0,11968 <_vfprintf_r+0x15fc>
   11964:	d49fe06f          	j	106ac <_vfprintf_r+0x340>
   11968:	09412703          	lw	a4,148(sp)
   1196c:	000b8693          	mv	a3,s7
   11970:	f50ff06f          	j	110c0 <_vfprintf_r+0xd54>
   11974:	02c12283          	lw	t0,44(sp)
   11978:	00870733          	add	a4,a4,s0
   1197c:	00178793          	addi	a5,a5,1
   11980:	00700613          	li	a2,7
   11984:	0056a023          	sw	t0,0(a3)
   11988:	0086a223          	sw	s0,4(a3)
   1198c:	08e12a23          	sw	a4,148(sp)
   11990:	08f12823          	sw	a5,144(sp)
   11994:	00868693          	addi	a3,a3,8
   11998:	02f65463          	ble	a5,a2,119c0 <_vfprintf_r+0x1654>
   1199c:	08c10613          	addi	a2,sp,140
   119a0:	00098593          	mv	a1,s3
   119a4:	000b0513          	mv	a0,s6
   119a8:	7b4040ef          	jal	1615c <__sprint_r>
   119ac:	00050463          	beqz	a0,119b4 <_vfprintf_r+0x1648>
   119b0:	cfdfe06f          	j	106ac <_vfprintf_r+0x340>
   119b4:	09412703          	lw	a4,148(sp)
   119b8:	09012783          	lw	a5,144(sp)
   119bc:	000b8693          	mv	a3,s7
   119c0:	04412283          	lw	t0,68(sp)
   119c4:	00178793          	addi	a5,a5,1
   119c8:	0146a023          	sw	s4,0(a3)
   119cc:	00e28733          	add	a4,t0,a4
   119d0:	d1cff06f          	j	10eec <_vfprintf_r+0xb80>
   119d4:	000a0513          	mv	a0,s4
   119d8:	00d12e23          	sw	a3,28(sp)
   119dc:	608040ef          	jal	15fe4 <strlen>
   119e0:	02a12823          	sw	a0,48(sp)
   119e4:	01c12683          	lw	a3,28(sp)
   119e8:	00050793          	mv	a5,a0
   119ec:	00054463          	bltz	a0,119f4 <_vfprintf_r+0x1688>
   119f0:	f79fe06f          	j	10968 <_vfprintf_r+0x5fc>
   119f4:	00000793          	li	a5,0
   119f8:	f71fe06f          	j	10968 <_vfprintf_r+0x5fc>
   119fc:	02d00813          	li	a6,45
   11a00:	00100713          	li	a4,1
   11a04:	00100613          	li	a2,1
   11a08:	00c71463          	bne	a4,a2,11a10 <_vfprintf_r+0x16a4>
   11a0c:	fa9fe06f          	j	109b4 <_vfprintf_r+0x648>
   11a10:	00200613          	li	a2,2
   11a14:	9ec70863          	beq	a4,a2,10c04 <_vfprintf_r+0x898>
   11a18:	d45fe06f          	j	1075c <_vfprintf_r+0x3f0>
   11a1c:	00600793          	li	a5,6
   11a20:	0087f463          	bleu	s0,a5,11a28 <_vfprintf_r+0x16bc>
   11a24:	00078413          	mv	s0,a5
   11a28:	02812823          	sw	s0,48(sp)
   11a2c:	00040793          	mv	a5,s0
   11a30:	34044c63          	bltz	s0,11d88 <_vfprintf_r+0x1a1c>
   11a34:	0001ba37          	lui	s4,0x1b
   11a38:	02f12223          	sw	a5,36(sp)
   11a3c:	02912a23          	sw	s1,52(sp)
   11a40:	ac4a0a13          	addi	s4,s4,-1340 # 1aac4 <__clz_tab+0x13c>
   11a44:	00000413          	li	s0,0
   11a48:	d79fe06f          	j	107c0 <_vfprintf_r+0x454>
   11a4c:	08c10613          	addi	a2,sp,140
   11a50:	00098593          	mv	a1,s3
   11a54:	000b0513          	mv	a0,s6
   11a58:	704040ef          	jal	1615c <__sprint_r>
   11a5c:	00050463          	beqz	a0,11a64 <_vfprintf_r+0x16f8>
   11a60:	c4dfe06f          	j	106ac <_vfprintf_r+0x340>
   11a64:	07412403          	lw	s0,116(sp)
   11a68:	09412703          	lw	a4,148(sp)
   11a6c:	000b8693          	mv	a3,s7
   11a70:	941ff06f          	j	113b0 <_vfprintf_r+0x1044>
   11a74:	06f14803          	lbu	a6,111(sp)
   11a78:	02c12a83          	lw	s5,44(sp)
   11a7c:	00000413          	li	s0,0
   11a80:	d31fe06f          	j	107b0 <_vfprintf_r+0x444>
   11a84:	0001ba37          	lui	s4,0x1b
   11a88:	a98a0a13          	addi	s4,s4,-1384 # 1aa98 <__clz_tab+0x110>
   11a8c:	e45ff06f          	j	118d0 <_vfprintf_r+0x1564>
   11a90:	02d00793          	li	a5,45
   11a94:	06f107a3          	sb	a5,111(sp)
   11a98:	02d00813          	li	a6,45
   11a9c:	838ff06f          	j	10ad4 <_vfprintf_r+0x768>
   11aa0:	001af793          	andi	a5,s5,1
   11aa4:	00b50633          	add	a2,a0,a1
   11aa8:	b40798e3          	bnez	a5,115f8 <_vfprintf_r+0x128c>
   11aac:	08412783          	lw	a5,132(sp)
   11ab0:	b79ff06f          	j	11628 <_vfprintf_r+0x12bc>
   11ab4:	00070a93          	mv	s5,a4
   11ab8:	00000813          	li	a6,0
   11abc:	00200713          	li	a4,2
   11ac0:	f45ff06f          	j	11a04 <_vfprintf_r+0x1698>
   11ac4:	001af793          	andi	a5,s5,1
   11ac8:	22079463          	bnez	a5,11cf0 <_vfprintf_r+0x1984>
   11acc:	08412783          	lw	a5,132(sp)
   11ad0:	414787b3          	sub	a5,a5,s4
   11ad4:	04f12223          	sw	a5,68(sp)
   11ad8:	3dad9863          	bne	s11,s10,11ea8 <_vfprintf_r+0x1b3c>
   11adc:	07412783          	lw	a5,116(sp)
   11ae0:	ffd00713          	li	a4,-3
   11ae4:	06e7c463          	blt	a5,a4,11b4c <_vfprintf_r+0x17e0>
   11ae8:	06f44263          	blt	s0,a5,11b4c <_vfprintf_r+0x17e0>
   11aec:	02f12823          	sw	a5,48(sp)
   11af0:	b61ff06f          	j	11650 <_vfprintf_r+0x12e4>
   11af4:	08c10613          	addi	a2,sp,140
   11af8:	00098593          	mv	a1,s3
   11afc:	000b0513          	mv	a0,s6
   11b00:	65c040ef          	jal	1615c <__sprint_r>
   11b04:	00050463          	beqz	a0,11b0c <_vfprintf_r+0x17a0>
   11b08:	ba5fe06f          	j	106ac <_vfprintf_r+0x340>
   11b0c:	07412403          	lw	s0,116(sp)
   11b10:	09412703          	lw	a4,148(sp)
   11b14:	09012783          	lw	a5,144(sp)
   11b18:	000b8693          	mv	a3,s7
   11b1c:	c15ff06f          	j	11730 <_vfprintf_r+0x13c4>
   11b20:	08c10613          	addi	a2,sp,140
   11b24:	00098593          	mv	a1,s3
   11b28:	000b0513          	mv	a0,s6
   11b2c:	630040ef          	jal	1615c <__sprint_r>
   11b30:	00050463          	beqz	a0,11b38 <_vfprintf_r+0x17cc>
   11b34:	b79fe06f          	j	106ac <_vfprintf_r+0x340>
   11b38:	07412403          	lw	s0,116(sp)
   11b3c:	09412703          	lw	a4,148(sp)
   11b40:	09012783          	lw	a5,144(sp)
   11b44:	000b8693          	mv	a3,s7
   11b48:	bb5ff06f          	j	116fc <_vfprintf_r+0x1390>
   11b4c:	ffed0d13          	addi	s10,s10,-2
   11b50:	fff78793          	addi	a5,a5,-1
   11b54:	06f12a23          	sw	a5,116(sp)
   11b58:	07a10e23          	sb	s10,124(sp)
   11b5c:	2a07ce63          	bltz	a5,11e18 <_vfprintf_r+0x1aac>
   11b60:	02b00713          	li	a4,43
   11b64:	06e10ea3          	sb	a4,125(sp)
   11b68:	00900593          	li	a1,9
   11b6c:	18f5ca63          	blt	a1,a5,11d00 <_vfprintf_r+0x1994>
   11b70:	03000713          	li	a4,48
   11b74:	03078793          	addi	a5,a5,48
   11b78:	06e10f23          	sb	a4,126(sp)
   11b7c:	06f10fa3          	sb	a5,127(sp)
   11b80:	08010713          	addi	a4,sp,128
   11b84:	07c10793          	addi	a5,sp,124
   11b88:	40f707b3          	sub	a5,a4,a5
   11b8c:	04412703          	lw	a4,68(sp)
   11b90:	04412283          	lw	t0,68(sp)
   11b94:	04f12e23          	sw	a5,92(sp)
   11b98:	00e78733          	add	a4,a5,a4
   11b9c:	00100793          	li	a5,1
   11ba0:	02e12823          	sw	a4,48(sp)
   11ba4:	2657d063          	ble	t0,a5,11e04 <_vfprintf_r+0x1a98>
   11ba8:	03012703          	lw	a4,48(sp)
   11bac:	00170713          	addi	a4,a4,1
   11bb0:	02e12823          	sw	a4,48(sp)
   11bb4:	00070793          	mv	a5,a4
   11bb8:	1e074863          	bltz	a4,11da8 <_vfprintf_r+0x1a3c>
   11bbc:	02f12223          	sw	a5,36(sp)
   11bc0:	ab5ff06f          	j	11674 <_vfprintf_r+0x1308>
   11bc4:	02812223          	sw	s0,36(sp)
   11bc8:	02812823          	sw	s0,48(sp)
   11bcc:	06f14803          	lbu	a6,111(sp)
   11bd0:	02912a23          	sw	s1,52(sp)
   11bd4:	00000413          	li	s0,0
   11bd8:	bd9fe06f          	j	107b0 <_vfprintf_r+0x444>
   11bdc:	98041ee3          	bnez	s0,11578 <_vfprintf_r+0x120c>
   11be0:	000a0413          	mv	s0,s4
   11be4:	995ff06f          	j	11578 <_vfprintf_r+0x120c>
   11be8:	08c10613          	addi	a2,sp,140
   11bec:	00098593          	mv	a1,s3
   11bf0:	000b0513          	mv	a0,s6
   11bf4:	568040ef          	jal	1615c <__sprint_r>
   11bf8:	00050463          	beqz	a0,11c00 <_vfprintf_r+0x1894>
   11bfc:	ab1fe06f          	j	106ac <_vfprintf_r+0x340>
   11c00:	07412403          	lw	s0,116(sp)
   11c04:	09412703          	lw	a4,148(sp)
   11c08:	09012783          	lw	a5,144(sp)
   11c0c:	000b8693          	mv	a3,s7
   11c10:	c35ff06f          	j	11844 <_vfprintf_r+0x14d8>
   11c14:	03012283          	lw	t0,48(sp)
   11c18:	00100793          	li	a5,1
   11c1c:	1a505663          	blez	t0,11dc8 <_vfprintf_r+0x1a5c>
   11c20:	04412703          	lw	a4,68(sp)
   11c24:	00e787b3          	add	a5,a5,a4
   11c28:	02f12823          	sw	a5,48(sp)
   11c2c:	a407d0e3          	bgez	a5,1166c <_vfprintf_r+0x1300>
   11c30:	00000793          	li	a5,0
   11c34:	a39ff06f          	j	1166c <_vfprintf_r+0x1300>
   11c38:	00600413          	li	s0,6
   11c3c:	93dff06f          	j	11578 <_vfprintf_r+0x120c>
   11c40:	08410793          	addi	a5,sp,132
   11c44:	22840653          	fmv.d	fa2,fs0
   11c48:	00f12023          	sw	a5,0(sp)
   11c4c:	07810893          	addi	a7,sp,120
   11c50:	07410813          	addi	a6,sp,116
   11c54:	00040793          	mv	a5,s0
   11c58:	00300713          	li	a4,3
   11c5c:	000b0513          	mv	a0,s6
   11c60:	00d12e23          	sw	a3,28(sp)
   11c64:	041000ef          	jal	124a4 <_dtoa_r>
   11c68:	01c12683          	lw	a3,28(sp)
   11c6c:	00050a13          	mv	s4,a0
   11c70:	00850633          	add	a2,a0,s0
   11c74:	00040593          	mv	a1,s0
   11c78:	000a4703          	lbu	a4,0(s4)
   11c7c:	03000793          	li	a5,48
   11c80:	0ef70463          	beq	a4,a5,11d68 <_vfprintf_r+0x19fc>
   11c84:	07412583          	lw	a1,116(sp)
   11c88:	00b60633          	add	a2,a2,a1
   11c8c:	96dff06f          	j	115f8 <_vfprintf_r+0x128c>
   11c90:	22841453          	fneg.d	fs0,fs0
   11c94:	02d00493          	li	s1,45
   11c98:	8f9ff06f          	j	11590 <_vfprintf_r+0x1224>
   11c9c:	07412283          	lw	t0,116(sp)
   11ca0:	02512823          	sw	t0,48(sp)
   11ca4:	12505863          	blez	t0,11dd4 <_vfprintf_r+0x1a68>
   11ca8:	0e041463          	bnez	s0,11d90 <_vfprintf_r+0x1a24>
   11cac:	001afa93          	andi	s5,s5,1
   11cb0:	0e0a9063          	bnez	s5,11d90 <_vfprintf_r+0x1a24>
   11cb4:	02512223          	sw	t0,36(sp)
   11cb8:	9bdff06f          	j	11674 <_vfprintf_r+0x1308>
   11cbc:	08410793          	addi	a5,sp,132
   11cc0:	22840653          	fmv.d	fa2,fs0
   11cc4:	00f12023          	sw	a5,0(sp)
   11cc8:	07810893          	addi	a7,sp,120
   11ccc:	07410813          	addi	a6,sp,116
   11cd0:	00040793          	mv	a5,s0
   11cd4:	00300713          	li	a4,3
   11cd8:	000b0513          	mv	a0,s6
   11cdc:	00d12e23          	sw	a3,28(sp)
   11ce0:	7c4000ef          	jal	124a4 <_dtoa_r>
   11ce4:	01c12683          	lw	a3,28(sp)
   11ce8:	00050a13          	mv	s4,a0
   11cec:	00040593          	mv	a1,s0
   11cf0:	04600793          	li	a5,70
   11cf4:	00ba0633          	add	a2,s4,a1
   11cf8:	f8fd00e3          	beq	s10,a5,11c78 <_vfprintf_r+0x190c>
   11cfc:	8fdff06f          	j	115f8 <_vfprintf_r+0x128c>
   11d00:	08b10513          	addi	a0,sp,139
   11d04:	00050713          	mv	a4,a0
   11d08:	00a00813          	li	a6,10
   11d0c:	0307e633          	rem	a2,a5,a6
   11d10:	fff70713          	addi	a4,a4,-1
   11d14:	0307c7b3          	div	a5,a5,a6
   11d18:	03060613          	addi	a2,a2,48
   11d1c:	00c70023          	sb	a2,0(a4)
   11d20:	fef5c6e3          	blt	a1,a5,11d0c <_vfprintf_r+0x19a0>
   11d24:	03078793          	addi	a5,a5,48
   11d28:	0ff7f793          	andi	a5,a5,255
   11d2c:	fff70613          	addi	a2,a4,-1
   11d30:	fef70fa3          	sb	a5,-1(a4)
   11d34:	10a67a63          	bleu	a0,a2,11e48 <_vfprintf_r+0x1adc>
   11d38:	07e10593          	addi	a1,sp,126
   11d3c:	0080006f          	j	11d44 <_vfprintf_r+0x19d8>
   11d40:	00064783          	lbu	a5,0(a2)
   11d44:	00158593          	addi	a1,a1,1
   11d48:	00160613          	addi	a2,a2,1
   11d4c:	fef58fa3          	sb	a5,-1(a1)
   11d50:	fea618e3          	bne	a2,a0,11d40 <_vfprintf_r+0x19d4>
   11d54:	08c10793          	addi	a5,sp,140
   11d58:	40e78733          	sub	a4,a5,a4
   11d5c:	07e10593          	addi	a1,sp,126
   11d60:	00e58733          	add	a4,a1,a4
   11d64:	e21ff06f          	j	11b84 <_vfprintf_r+0x1818>
   11d68:	d2000053          	fcvt.d.w	ft0,zero
   11d6c:	a20427d3          	feq.d	a5,fs0,ft0
   11d70:	f0079ae3          	bnez	a5,11c84 <_vfprintf_r+0x1918>
   11d74:	00100793          	li	a5,1
   11d78:	40b785b3          	sub	a1,a5,a1
   11d7c:	06b12a23          	sw	a1,116(sp)
   11d80:	00b60633          	add	a2,a2,a1
   11d84:	875ff06f          	j	115f8 <_vfprintf_r+0x128c>
   11d88:	00000793          	li	a5,0
   11d8c:	ca9ff06f          	j	11a34 <_vfprintf_r+0x16c8>
   11d90:	03012703          	lw	a4,48(sp)
   11d94:	00140413          	addi	s0,s0,1
   11d98:	00870733          	add	a4,a4,s0
   11d9c:	02e12823          	sw	a4,48(sp)
   11da0:	00070793          	mv	a5,a4
   11da4:	e0075ce3          	bgez	a4,11bbc <_vfprintf_r+0x1850>
   11da8:	00000793          	li	a5,0
   11dac:	e11ff06f          	j	11bbc <_vfprintf_r+0x1850>
   11db0:	03012783          	lw	a5,48(sp)
   11db4:	00178793          	addi	a5,a5,1
   11db8:	02f12823          	sw	a5,48(sp)
   11dbc:	8a07d8e3          	bgez	a5,1166c <_vfprintf_r+0x1300>
   11dc0:	00000793          	li	a5,0
   11dc4:	8a9ff06f          	j	1166c <_vfprintf_r+0x1300>
   11dc8:	00200793          	li	a5,2
   11dcc:	405787b3          	sub	a5,a5,t0
   11dd0:	e51ff06f          	j	11c20 <_vfprintf_r+0x18b4>
   11dd4:	00041c63          	bnez	s0,11dec <_vfprintf_r+0x1a80>
   11dd8:	00100793          	li	a5,1
   11ddc:	00fafab3          	and	s5,s5,a5
   11de0:	02f12223          	sw	a5,36(sp)
   11de4:	02f12823          	sw	a5,48(sp)
   11de8:	880a86e3          	beqz	s5,11674 <_vfprintf_r+0x1308>
   11dec:	00240413          	addi	s0,s0,2
   11df0:	02812823          	sw	s0,48(sp)
   11df4:	00040793          	mv	a5,s0
   11df8:	dc0452e3          	bgez	s0,11bbc <_vfprintf_r+0x1850>
   11dfc:	00000793          	li	a5,0
   11e00:	dbdff06f          	j	11bbc <_vfprintf_r+0x1850>
   11e04:	00fafab3          	and	s5,s5,a5
   11e08:	f80a8ce3          	beqz	s5,11da0 <_vfprintf_r+0x1a34>
   11e0c:	d9dff06f          	j	11ba8 <_vfprintf_r+0x183c>
   11e10:	fff00413          	li	s0,-1
   11e14:	845fe06f          	j	10658 <_vfprintf_r+0x2ec>
   11e18:	02d00713          	li	a4,45
   11e1c:	40f007b3          	neg	a5,a5
   11e20:	06e10ea3          	sb	a4,125(sp)
   11e24:	d45ff06f          	j	11b68 <_vfprintf_r+0x17fc>
   11e28:	03412283          	lw	t0,52(sp)
   11e2c:	0002a403          	lw	s0,0(t0)
   11e30:	00428793          	addi	a5,t0,4
   11e34:	02f12a23          	sw	a5,52(sp)
   11e38:	00044463          	bltz	s0,11e40 <_vfprintf_r+0x1ad4>
   11e3c:	eccfe06f          	j	10508 <_vfprintf_r+0x19c>
   11e40:	fff00413          	li	s0,-1
   11e44:	ec4fe06f          	j	10508 <_vfprintf_r+0x19c>
   11e48:	07e10713          	addi	a4,sp,126
   11e4c:	d39ff06f          	j	11b84 <_vfprintf_r+0x1818>
   11e50:	001af793          	andi	a5,s5,1
   11e54:	00040813          	mv	a6,s0
   11e58:	00078e63          	beqz	a5,11e74 <_vfprintf_r+0x1b08>
   11e5c:	03000793          	li	a5,48
   11e60:	00100713          	li	a4,1
   11e64:	0af10fa3          	sb	a5,191(sp)
   11e68:	02e12823          	sw	a4,48(sp)
   11e6c:	0bf10a13          	addi	s4,sp,191
   11e70:	931fe06f          	j	107a0 <_vfprintf_r+0x434>
   11e74:	02012823          	sw	zero,48(sp)
   11e78:	0c010a13          	addi	s4,sp,192
   11e7c:	925fe06f          	j	107a0 <_vfprintf_r+0x434>
   11e80:	06a107a3          	sb	a0,111(sp)
   11e84:	8a1fe06f          	j	10724 <_vfprintf_r+0x3b8>
   11e88:	00000793          	li	a5,0
   11e8c:	d79fe06f          	j	10c04 <_vfprintf_r+0x898>
   11e90:	06a107a3          	sb	a0,111(sp)
   11e94:	d1dfe06f          	j	10bb0 <_vfprintf_r+0x844>
   11e98:	06a107a3          	sb	a0,111(sp)
   11e9c:	e75fe06f          	j	10d10 <_vfprintf_r+0x9a4>
   11ea0:	06a107a3          	sb	a0,111(sp)
   11ea4:	de5fe06f          	j	10c88 <_vfprintf_r+0x91c>
   11ea8:	07412783          	lw	a5,116(sp)
   11eac:	ca5ff06f          	j	11b50 <_vfprintf_r+0x17e4>
   11eb0:	06a107a3          	sb	a0,111(sp)
   11eb4:	bcdfe06f          	j	10a80 <_vfprintf_r+0x714>
   11eb8:	06a107a3          	sb	a0,111(sp)
   11ebc:	b75fe06f          	j	10a30 <_vfprintf_r+0x6c4>
   11ec0:	06a107a3          	sb	a0,111(sp)
   11ec4:	ac5fe06f          	j	10988 <_vfprintf_r+0x61c>
   11ec8:	06a107a3          	sb	a0,111(sp)
   11ecc:	010aea93          	ori	s5,s5,16
   11ed0:	c9dfe06f          	j	10b6c <_vfprintf_r+0x800>
   11ed4:	06a107a3          	sb	a0,111(sp)
   11ed8:	010aea93          	ori	s5,s5,16
   11edc:	c49fe06f          	j	10b24 <_vfprintf_r+0x7b8>
   11ee0:	06a107a3          	sb	a0,111(sp)
   11ee4:	dddfe06f          	j	10cc0 <_vfprintf_r+0x954>

00011ee8 <vfprintf>:
   11ee8:	00060693          	mv	a3,a2
   11eec:	00058613          	mv	a2,a1
   11ef0:	00050593          	mv	a1,a0
   11ef4:	8081a503          	lw	a0,-2040(gp) # 1c598 <_impure_ptr>
   11ef8:	c74fe06f          	j	1036c <_vfprintf_r>

00011efc <__swsetup_r>:
   11efc:	8081a783          	lw	a5,-2040(gp) # 1c598 <_impure_ptr>
   11f00:	ff010113          	addi	sp,sp,-16
   11f04:	00812423          	sw	s0,8(sp)
   11f08:	00912223          	sw	s1,4(sp)
   11f0c:	00112623          	sw	ra,12(sp)
   11f10:	00050493          	mv	s1,a0
   11f14:	00058413          	mv	s0,a1
   11f18:	00078663          	beqz	a5,11f24 <__swsetup_r+0x28>
   11f1c:	0387a703          	lw	a4,56(a5)
   11f20:	0e070063          	beqz	a4,12000 <__swsetup_r+0x104>
   11f24:	00c41703          	lh	a4,12(s0)
   11f28:	01071793          	slli	a5,a4,0x10
   11f2c:	0107d793          	srli	a5,a5,0x10
   11f30:	0087f693          	andi	a3,a5,8
   11f34:	04068263          	beqz	a3,11f78 <__swsetup_r+0x7c>
   11f38:	01042683          	lw	a3,16(s0)
   11f3c:	06068263          	beqz	a3,11fa0 <__swsetup_r+0xa4>
   11f40:	0017f713          	andi	a4,a5,1
   11f44:	08071063          	bnez	a4,11fc4 <__swsetup_r+0xc8>
   11f48:	0027f793          	andi	a5,a5,2
   11f4c:	00000713          	li	a4,0
   11f50:	00079463          	bnez	a5,11f58 <__swsetup_r+0x5c>
   11f54:	01442703          	lw	a4,20(s0)
   11f58:	00e42423          	sw	a4,8(s0)
   11f5c:	00000513          	li	a0,0
   11f60:	06068e63          	beqz	a3,11fdc <__swsetup_r+0xe0>
   11f64:	00c12083          	lw	ra,12(sp)
   11f68:	00812403          	lw	s0,8(sp)
   11f6c:	00412483          	lw	s1,4(sp)
   11f70:	01010113          	addi	sp,sp,16
   11f74:	00008067          	ret
   11f78:	0107f693          	andi	a3,a5,16
   11f7c:	0c068263          	beqz	a3,12040 <__swsetup_r+0x144>
   11f80:	0047f793          	andi	a5,a5,4
   11f84:	08079463          	bnez	a5,1200c <__swsetup_r+0x110>
   11f88:	01042683          	lw	a3,16(s0)
   11f8c:	00876793          	ori	a5,a4,8
   11f90:	00f41623          	sh	a5,12(s0)
   11f94:	01079793          	slli	a5,a5,0x10
   11f98:	0107d793          	srli	a5,a5,0x10
   11f9c:	fa0692e3          	bnez	a3,11f40 <__swsetup_r+0x44>
   11fa0:	2807f713          	andi	a4,a5,640
   11fa4:	20000613          	li	a2,512
   11fa8:	f8c70ce3          	beq	a4,a2,11f40 <__swsetup_r+0x44>
   11fac:	00040593          	mv	a1,s0
   11fb0:	00048513          	mv	a0,s1
   11fb4:	178020ef          	jal	1412c <__smakebuf_r>
   11fb8:	00c45783          	lhu	a5,12(s0)
   11fbc:	01042683          	lw	a3,16(s0)
   11fc0:	f81ff06f          	j	11f40 <__swsetup_r+0x44>
   11fc4:	01442783          	lw	a5,20(s0)
   11fc8:	00042423          	sw	zero,8(s0)
   11fcc:	00000513          	li	a0,0
   11fd0:	40f007b3          	neg	a5,a5
   11fd4:	00f42c23          	sw	a5,24(s0)
   11fd8:	f80696e3          	bnez	a3,11f64 <__swsetup_r+0x68>
   11fdc:	00c45783          	lhu	a5,12(s0)
   11fe0:	0807f793          	andi	a5,a5,128
   11fe4:	04079e63          	bnez	a5,12040 <__swsetup_r+0x144>
   11fe8:	00c12083          	lw	ra,12(sp)
   11fec:	00068513          	mv	a0,a3
   11ff0:	00812403          	lw	s0,8(sp)
   11ff4:	00412483          	lw	s1,4(sp)
   11ff8:	01010113          	addi	sp,sp,16
   11ffc:	00008067          	ret
   12000:	00078513          	mv	a0,a5
   12004:	2f5010ef          	jal	13af8 <__sinit>
   12008:	f1dff06f          	j	11f24 <__swsetup_r+0x28>
   1200c:	03042583          	lw	a1,48(s0)
   12010:	00058e63          	beqz	a1,1202c <__swsetup_r+0x130>
   12014:	04040793          	addi	a5,s0,64
   12018:	00f58863          	beq	a1,a5,12028 <__swsetup_r+0x12c>
   1201c:	00048513          	mv	a0,s1
   12020:	419010ef          	jal	13c38 <_free_r>
   12024:	00c41703          	lh	a4,12(s0)
   12028:	02042823          	sw	zero,48(s0)
   1202c:	01042683          	lw	a3,16(s0)
   12030:	fdb77713          	andi	a4,a4,-37
   12034:	00042223          	sw	zero,4(s0)
   12038:	00d42023          	sw	a3,0(s0)
   1203c:	f51ff06f          	j	11f8c <__swsetup_r+0x90>
   12040:	fff00513          	li	a0,-1
   12044:	f21ff06f          	j	11f64 <__swsetup_r+0x68>

00012048 <__register_exitproc>:
   12048:	fe010113          	addi	sp,sp,-32
   1204c:	00812c23          	sw	s0,24(sp)
   12050:	8041a403          	lw	s0,-2044(gp) # 1c594 <_global_impure_ptr>
   12054:	00912a23          	sw	s1,20(sp)
   12058:	00050493          	mv	s1,a0
   1205c:	14842503          	lw	a0,328(s0)
   12060:	00112e23          	sw	ra,28(sp)
   12064:	0c050263          	beqz	a0,12128 <__register_exitproc+0xe0>
   12068:	00452783          	lw	a5,4(a0)
   1206c:	01f00713          	li	a4,31
   12070:	00178813          	addi	a6,a5,1
   12074:	04f75863          	ble	a5,a4,120c4 <__register_exitproc+0x7c>
   12078:	00000793          	li	a5,0
   1207c:	0a078c63          	beqz	a5,12134 <__register_exitproc+0xec>
   12080:	19000513          	li	a0,400
   12084:	00b12623          	sw	a1,12(sp)
   12088:	00c12423          	sw	a2,8(sp)
   1208c:	00d12223          	sw	a3,4(sp)
   12090:	f71ed0ef          	jal	0 <_ftext-0x10000>
   12094:	00c12583          	lw	a1,12(sp)
   12098:	00812603          	lw	a2,8(sp)
   1209c:	00412683          	lw	a3,4(sp)
   120a0:	08050a63          	beqz	a0,12134 <__register_exitproc+0xec>
   120a4:	14842783          	lw	a5,328(s0)
   120a8:	00100813          	li	a6,1
   120ac:	00052223          	sw	zero,4(a0)
   120b0:	00f52023          	sw	a5,0(a0)
   120b4:	14a42423          	sw	a0,328(s0)
   120b8:	00000793          	li	a5,0
   120bc:	18052423          	sw	zero,392(a0)
   120c0:	18052623          	sw	zero,396(a0)
   120c4:	00279713          	slli	a4,a5,0x2
   120c8:	02049463          	bnez	s1,120f0 <__register_exitproc+0xa8>
   120cc:	00e50733          	add	a4,a0,a4
   120d0:	01052223          	sw	a6,4(a0)
   120d4:	00000513          	li	a0,0
   120d8:	00b72423          	sw	a1,8(a4)
   120dc:	01c12083          	lw	ra,28(sp)
   120e0:	01812403          	lw	s0,24(sp)
   120e4:	01412483          	lw	s1,20(sp)
   120e8:	02010113          	addi	sp,sp,32
   120ec:	00008067          	ret
   120f0:	00e502b3          	add	t0,a0,a4
   120f4:	08c2a423          	sw	a2,136(t0)
   120f8:	18852883          	lw	a7,392(a0)
   120fc:	00100613          	li	a2,1
   12100:	00f617b3          	sll	a5,a2,a5
   12104:	00f8e633          	or	a2,a7,a5
   12108:	18c52423          	sw	a2,392(a0)
   1210c:	10d2a423          	sw	a3,264(t0)
   12110:	00200693          	li	a3,2
   12114:	fad49ce3          	bne	s1,a3,120cc <__register_exitproc+0x84>
   12118:	18c52683          	lw	a3,396(a0)
   1211c:	00f6e7b3          	or	a5,a3,a5
   12120:	18f52623          	sw	a5,396(a0)
   12124:	fa9ff06f          	j	120cc <__register_exitproc+0x84>
   12128:	14c40513          	addi	a0,s0,332
   1212c:	14a42423          	sw	a0,328(s0)
   12130:	f39ff06f          	j	12068 <__register_exitproc+0x20>
   12134:	fff00513          	li	a0,-1
   12138:	fa5ff06f          	j	120dc <__register_exitproc+0x94>

0001213c <__call_exitprocs>:
   1213c:	fc010113          	addi	sp,sp,-64
   12140:	01712e23          	sw	s7,28(sp)
   12144:	8041ab83          	lw	s7,-2044(gp) # 1c594 <_global_impure_ptr>
   12148:	03612023          	sw	s6,32(sp)
   1214c:	03212823          	sw	s2,48(sp)
   12150:	03412423          	sw	s4,40(sp)
   12154:	03512223          	sw	s5,36(sp)
   12158:	01812c23          	sw	s8,24(sp)
   1215c:	01912a23          	sw	s9,20(sp)
   12160:	02112e23          	sw	ra,60(sp)
   12164:	02812c23          	sw	s0,56(sp)
   12168:	02912a23          	sw	s1,52(sp)
   1216c:	03312623          	sw	s3,44(sp)
   12170:	01a12823          	sw	s10,16(sp)
   12174:	01b12623          	sw	s11,12(sp)
   12178:	00050a93          	mv	s5,a0
   1217c:	00058913          	mv	s2,a1
   12180:	148b8c13          	addi	s8,s7,328
   12184:	00100a13          	li	s4,1
   12188:	fff00c93          	li	s9,-1
   1218c:	00000b13          	li	s6,0
   12190:	148ba983          	lw	s3,328(s7)
   12194:	04098e63          	beqz	s3,121f0 <__call_exitprocs+0xb4>
   12198:	000c0d93          	mv	s11,s8
   1219c:	0049a403          	lw	s0,4(s3)
   121a0:	00241493          	slli	s1,s0,0x2
   121a4:	fff40413          	addi	s0,s0,-1
   121a8:	009984b3          	add	s1,s3,s1
   121ac:	00044e63          	bltz	s0,121c8 <__call_exitprocs+0x8c>
   121b0:	06090e63          	beqz	s2,1222c <__call_exitprocs+0xf0>
   121b4:	1044a783          	lw	a5,260(s1)
   121b8:	06f90a63          	beq	s2,a5,1222c <__call_exitprocs+0xf0>
   121bc:	fff40413          	addi	s0,s0,-1
   121c0:	ffc48493          	addi	s1,s1,-4
   121c4:	ff9416e3          	bne	s0,s9,121b0 <__call_exitprocs+0x74>
   121c8:	020b0463          	beqz	s6,121f0 <__call_exitprocs+0xb4>
   121cc:	0049a783          	lw	a5,4(s3)
   121d0:	0c079863          	bnez	a5,122a0 <__call_exitprocs+0x164>
   121d4:	0009a783          	lw	a5,0(s3)
   121d8:	0c078e63          	beqz	a5,122b4 <__call_exitprocs+0x178>
   121dc:	00098513          	mv	a0,s3
   121e0:	00fda023          	sw	a5,0(s11)
   121e4:	e1ded0ef          	jal	0 <_ftext-0x10000>
   121e8:	000da983          	lw	s3,0(s11)
   121ec:	fa0998e3          	bnez	s3,1219c <__call_exitprocs+0x60>
   121f0:	03c12083          	lw	ra,60(sp)
   121f4:	03812403          	lw	s0,56(sp)
   121f8:	03412483          	lw	s1,52(sp)
   121fc:	03012903          	lw	s2,48(sp)
   12200:	02c12983          	lw	s3,44(sp)
   12204:	02812a03          	lw	s4,40(sp)
   12208:	02412a83          	lw	s5,36(sp)
   1220c:	02012b03          	lw	s6,32(sp)
   12210:	01c12b83          	lw	s7,28(sp)
   12214:	01812c03          	lw	s8,24(sp)
   12218:	01412c83          	lw	s9,20(sp)
   1221c:	01012d03          	lw	s10,16(sp)
   12220:	00c12d83          	lw	s11,12(sp)
   12224:	04010113          	addi	sp,sp,64
   12228:	00008067          	ret
   1222c:	0049a783          	lw	a5,4(s3)
   12230:	0044a703          	lw	a4,4(s1)
   12234:	fff78793          	addi	a5,a5,-1
   12238:	04878a63          	beq	a5,s0,1228c <__call_exitprocs+0x150>
   1223c:	0004a223          	sw	zero,4(s1)
   12240:	f6070ee3          	beqz	a4,121bc <__call_exitprocs+0x80>
   12244:	1889a783          	lw	a5,392(s3)
   12248:	008a16b3          	sll	a3,s4,s0
   1224c:	0049ad03          	lw	s10,4(s3)
   12250:	00f6f7b3          	and	a5,a3,a5
   12254:	02078863          	beqz	a5,12284 <__call_exitprocs+0x148>
   12258:	18c9a783          	lw	a5,396(s3)
   1225c:	00f6f6b3          	and	a3,a3,a5
   12260:	02069a63          	bnez	a3,12294 <__call_exitprocs+0x158>
   12264:	0844a583          	lw	a1,132(s1)
   12268:	000a8513          	mv	a0,s5
   1226c:	000700e7          	jalr	a4
   12270:	0049a783          	lw	a5,4(s3)
   12274:	f1a79ee3          	bne	a5,s10,12190 <__call_exitprocs+0x54>
   12278:	000da783          	lw	a5,0(s11)
   1227c:	f53780e3          	beq	a5,s3,121bc <__call_exitprocs+0x80>
   12280:	f11ff06f          	j	12190 <__call_exitprocs+0x54>
   12284:	000700e7          	jalr	a4
   12288:	fe9ff06f          	j	12270 <__call_exitprocs+0x134>
   1228c:	0089a223          	sw	s0,4(s3)
   12290:	fb1ff06f          	j	12240 <__call_exitprocs+0x104>
   12294:	0844a503          	lw	a0,132(s1)
   12298:	000700e7          	jalr	a4
   1229c:	fd5ff06f          	j	12270 <__call_exitprocs+0x134>
   122a0:	0009a783          	lw	a5,0(s3)
   122a4:	00098d93          	mv	s11,s3
   122a8:	00078993          	mv	s3,a5
   122ac:	ee0998e3          	bnez	s3,1219c <__call_exitprocs+0x60>
   122b0:	f41ff06f          	j	121f0 <__call_exitprocs+0xb4>
   122b4:	00000793          	li	a5,0
   122b8:	fedff06f          	j	122a4 <__call_exitprocs+0x168>

000122bc <quorem>:
   122bc:	fe010113          	addi	sp,sp,-32
   122c0:	01212823          	sw	s2,16(sp)
   122c4:	01052783          	lw	a5,16(a0)
   122c8:	0105a903          	lw	s2,16(a1)
   122cc:	00112e23          	sw	ra,28(sp)
   122d0:	00812c23          	sw	s0,24(sp)
   122d4:	00912a23          	sw	s1,20(sp)
   122d8:	01312623          	sw	s3,12(sp)
   122dc:	01412423          	sw	s4,8(sp)
   122e0:	01512223          	sw	s5,4(sp)
   122e4:	1b27cc63          	blt	a5,s2,1249c <quorem+0x1e0>
   122e8:	fff90913          	addi	s2,s2,-1
   122ec:	00291e13          	slli	t3,s2,0x2
   122f0:	01458413          	addi	s0,a1,20
   122f4:	01c409b3          	add	s3,s0,t3
   122f8:	01450a13          	addi	s4,a0,20
   122fc:	01ca0e33          	add	t3,s4,t3
   12300:	0009a783          	lw	a5,0(s3)
   12304:	000e2483          	lw	s1,0(t3)
   12308:	00178793          	addi	a5,a5,1
   1230c:	02f4d4b3          	divu	s1,s1,a5
   12310:	0a048e63          	beqz	s1,123cc <quorem+0x110>
   12314:	000102b7          	lui	t0,0x10
   12318:	00040393          	mv	t2,s0
   1231c:	000a0313          	mv	t1,s4
   12320:	00000693          	li	a3,0
   12324:	00000793          	li	a5,0
   12328:	fff28293          	addi	t0,t0,-1 # ffff <_ftext-0x1>
   1232c:	00438393          	addi	t2,t2,4
   12330:	ffc3a603          	lw	a2,-4(t2)
   12334:	00032703          	lw	a4,0(t1)
   12338:	00430313          	addi	t1,t1,4
   1233c:	005678b3          	and	a7,a2,t0
   12340:	029888b3          	mul	a7,a7,s1
   12344:	01065613          	srli	a2,a2,0x10
   12348:	00577833          	and	a6,a4,t0
   1234c:	01075713          	srli	a4,a4,0x10
   12350:	02960633          	mul	a2,a2,s1
   12354:	00d888b3          	add	a7,a7,a3
   12358:	0108d693          	srli	a3,a7,0x10
   1235c:	0058f8b3          	and	a7,a7,t0
   12360:	411787b3          	sub	a5,a5,a7
   12364:	01078833          	add	a6,a5,a6
   12368:	41085893          	srai	a7,a6,0x10
   1236c:	00587833          	and	a6,a6,t0
   12370:	00d606b3          	add	a3,a2,a3
   12374:	0056f7b3          	and	a5,a3,t0
   12378:	40f70733          	sub	a4,a4,a5
   1237c:	011707b3          	add	a5,a4,a7
   12380:	01079713          	slli	a4,a5,0x10
   12384:	01076833          	or	a6,a4,a6
   12388:	0106d693          	srli	a3,a3,0x10
   1238c:	4107d793          	srai	a5,a5,0x10
   12390:	ff032e23          	sw	a6,-4(t1)
   12394:	f879fce3          	bleu	t2,s3,1232c <quorem+0x70>
   12398:	000e2783          	lw	a5,0(t3)
   1239c:	02079863          	bnez	a5,123cc <quorem+0x110>
   123a0:	ffce0793          	addi	a5,t3,-4
   123a4:	02fa7263          	bleu	a5,s4,123c8 <quorem+0x10c>
   123a8:	ffce2703          	lw	a4,-4(t3)
   123ac:	00070863          	beqz	a4,123bc <quorem+0x100>
   123b0:	0180006f          	j	123c8 <quorem+0x10c>
   123b4:	0007a703          	lw	a4,0(a5)
   123b8:	00071863          	bnez	a4,123c8 <quorem+0x10c>
   123bc:	ffc78793          	addi	a5,a5,-4
   123c0:	fff90913          	addi	s2,s2,-1
   123c4:	fefa68e3          	bltu	s4,a5,123b4 <quorem+0xf8>
   123c8:	01252823          	sw	s2,16(a0)
   123cc:	00050a93          	mv	s5,a0
   123d0:	1f0030ef          	jal	155c0 <__mcmp>
   123d4:	0a054063          	bltz	a0,12474 <quorem+0x1b8>
   123d8:	00010837          	lui	a6,0x10
   123dc:	00148493          	addi	s1,s1,1
   123e0:	000a0593          	mv	a1,s4
   123e4:	00000793          	li	a5,0
   123e8:	fff80813          	addi	a6,a6,-1 # ffff <_ftext-0x1>
   123ec:	00440413          	addi	s0,s0,4
   123f0:	ffc42603          	lw	a2,-4(s0)
   123f4:	0005a703          	lw	a4,0(a1)
   123f8:	00458593          	addi	a1,a1,4
   123fc:	010676b3          	and	a3,a2,a6
   12400:	40d787b3          	sub	a5,a5,a3
   12404:	010776b3          	and	a3,a4,a6
   12408:	00d786b3          	add	a3,a5,a3
   1240c:	01075713          	srli	a4,a4,0x10
   12410:	01065793          	srli	a5,a2,0x10
   12414:	40f70733          	sub	a4,a4,a5
   12418:	4106d793          	srai	a5,a3,0x10
   1241c:	00f707b3          	add	a5,a4,a5
   12420:	01079713          	slli	a4,a5,0x10
   12424:	0106f6b3          	and	a3,a3,a6
   12428:	00d766b3          	or	a3,a4,a3
   1242c:	4107d793          	srai	a5,a5,0x10
   12430:	fed5ae23          	sw	a3,-4(a1)
   12434:	fa89fce3          	bleu	s0,s3,123ec <quorem+0x130>
   12438:	00291713          	slli	a4,s2,0x2
   1243c:	00ea0733          	add	a4,s4,a4
   12440:	00072783          	lw	a5,0(a4)
   12444:	02079863          	bnez	a5,12474 <quorem+0x1b8>
   12448:	ffc70793          	addi	a5,a4,-4
   1244c:	02fa7263          	bleu	a5,s4,12470 <quorem+0x1b4>
   12450:	ffc72703          	lw	a4,-4(a4)
   12454:	00070863          	beqz	a4,12464 <quorem+0x1a8>
   12458:	0180006f          	j	12470 <quorem+0x1b4>
   1245c:	0007a703          	lw	a4,0(a5)
   12460:	00071863          	bnez	a4,12470 <quorem+0x1b4>
   12464:	ffc78793          	addi	a5,a5,-4
   12468:	fff90913          	addi	s2,s2,-1
   1246c:	fefa68e3          	bltu	s4,a5,1245c <quorem+0x1a0>
   12470:	012aa823          	sw	s2,16(s5)
   12474:	00048513          	mv	a0,s1
   12478:	01c12083          	lw	ra,28(sp)
   1247c:	01812403          	lw	s0,24(sp)
   12480:	01412483          	lw	s1,20(sp)
   12484:	01012903          	lw	s2,16(sp)
   12488:	00c12983          	lw	s3,12(sp)
   1248c:	00812a03          	lw	s4,8(sp)
   12490:	00412a83          	lw	s5,4(sp)
   12494:	02010113          	addi	sp,sp,32
   12498:	00008067          	ret
   1249c:	00000513          	li	a0,0
   124a0:	fd9ff06f          	j	12478 <quorem+0x1bc>

000124a4 <_dtoa_r>:
   124a4:	04052683          	lw	a3,64(a0)
   124a8:	f4010113          	addi	sp,sp,-192
   124ac:	0a812c23          	sw	s0,184(sp)
   124b0:	0b312623          	sw	s3,172(sp)
   124b4:	0b412423          	sw	s4,168(sp)
   124b8:	0a112e23          	sw	ra,188(sp)
   124bc:	0a912a23          	sw	s1,180(sp)
   124c0:	0b212823          	sw	s2,176(sp)
   124c4:	0b512223          	sw	s5,164(sp)
   124c8:	0b612023          	sw	s6,160(sp)
   124cc:	09712e23          	sw	s7,156(sp)
   124d0:	09812c23          	sw	s8,152(sp)
   124d4:	09912a23          	sw	s9,148(sp)
   124d8:	09a12823          	sw	s10,144(sp)
   124dc:	09b12623          	sw	s11,140(sp)
   124e0:	06813c27          	fsd	fs0,120(sp)
   124e4:	06913827          	fsd	fs1,112(sp)
   124e8:	07213427          	fsd	fs2,104(sp)
   124ec:	07413027          	fsd	fs4,96(sp)
   124f0:	05613c27          	fsd	fs6,88(sp)
   124f4:	00c13c27          	fsd	fa2,24(sp)
   124f8:	03012623          	sw	a6,44(sp)
   124fc:	00050413          	mv	s0,a0
   12500:	00070a13          	mv	s4,a4
   12504:	00078993          	mv	s3,a5
   12508:	02068663          	beqz	a3,12534 <_dtoa_r+0x90>
   1250c:	04452703          	lw	a4,68(a0)
   12510:	00100793          	li	a5,1
   12514:	00068593          	mv	a1,a3
   12518:	00e797b3          	sll	a5,a5,a4
   1251c:	00e6a223          	sw	a4,4(a3)
   12520:	00f6a423          	sw	a5,8(a3)
   12524:	01112a23          	sw	a7,20(sp)
   12528:	089020ef          	jal	14db0 <_Bfree>
   1252c:	01412883          	lw	a7,20(sp)
   12530:	04042023          	sw	zero,64(s0)
   12534:	01c12483          	lw	s1,28(sp)
   12538:	0e04c663          	bltz	s1,12624 <_dtoa_r+0x180>
   1253c:	0008a023          	sw	zero,0(a7)
   12540:	7ff007b7          	lui	a5,0x7ff00
   12544:	00f4f733          	and	a4,s1,a5
   12548:	08f70a63          	beq	a4,a5,125dc <_dtoa_r+0x138>
   1254c:	01813007          	fld	ft0,24(sp)
   12550:	02013027          	fsd	ft0,32(sp)
   12554:	02013087          	fld	ft1,32(sp)
   12558:	d2000053          	fcvt.d.w	ft0,zero
   1255c:	a200a7d3          	feq.d	a5,ft1,ft0
   12560:	0e078263          	beqz	a5,12644 <_dtoa_r+0x1a0>
   12564:	02c12603          	lw	a2,44(sp)
   12568:	0c012703          	lw	a4,192(sp)
   1256c:	00100793          	li	a5,1
   12570:	00f62023          	sw	a5,0(a2)
   12574:	48070263          	beqz	a4,129f8 <_dtoa_r+0x554>
   12578:	0001b7b7          	lui	a5,0x1b
   1257c:	acd78793          	addi	a5,a5,-1331 # 1aacd <__clz_tab+0x145>
   12580:	0001b4b7          	lui	s1,0x1b
   12584:	00f72023          	sw	a5,0(a4)
   12588:	acc48513          	addi	a0,s1,-1332 # 1aacc <__clz_tab+0x144>
   1258c:	0bc12083          	lw	ra,188(sp)
   12590:	0b812403          	lw	s0,184(sp)
   12594:	0b412483          	lw	s1,180(sp)
   12598:	0b012903          	lw	s2,176(sp)
   1259c:	0ac12983          	lw	s3,172(sp)
   125a0:	0a812a03          	lw	s4,168(sp)
   125a4:	0a412a83          	lw	s5,164(sp)
   125a8:	0a012b03          	lw	s6,160(sp)
   125ac:	09c12b83          	lw	s7,156(sp)
   125b0:	09812c03          	lw	s8,152(sp)
   125b4:	09412c83          	lw	s9,148(sp)
   125b8:	09012d03          	lw	s10,144(sp)
   125bc:	08c12d83          	lw	s11,140(sp)
   125c0:	07813407          	fld	fs0,120(sp)
   125c4:	07013487          	fld	fs1,112(sp)
   125c8:	06813907          	fld	fs2,104(sp)
   125cc:	06013a07          	fld	fs4,96(sp)
   125d0:	05813b07          	fld	fs6,88(sp)
   125d4:	0c010113          	addi	sp,sp,192
   125d8:	00008067          	ret
   125dc:	02c12603          	lw	a2,44(sp)
   125e0:	01812703          	lw	a4,24(sp)
   125e4:	000027b7          	lui	a5,0x2
   125e8:	70f78793          	addi	a5,a5,1807 # 270f <_ftext-0xd8f1>
   125ec:	00f62023          	sw	a5,0(a2)
   125f0:	3c070463          	beqz	a4,129b8 <_dtoa_r+0x514>
   125f4:	0001b537          	lui	a0,0x1b
   125f8:	adc50493          	addi	s1,a0,-1316 # 1aadc <__clz_tab+0x154>
   125fc:	0c012603          	lw	a2,192(sp)
   12600:	300602e3          	beqz	a2,13104 <_dtoa_r+0xc60>
   12604:	0034c703          	lbu	a4,3(s1)
   12608:	00348793          	addi	a5,s1,3
   1260c:	00070463          	beqz	a4,12614 <_dtoa_r+0x170>
   12610:	00848793          	addi	a5,s1,8
   12614:	0c012703          	lw	a4,192(sp)
   12618:	00048513          	mv	a0,s1
   1261c:	00f72023          	sw	a5,0(a4)
   12620:	f6dff06f          	j	1258c <_dtoa_r+0xe8>
   12624:	01c12783          	lw	a5,28(sp)
   12628:	800004b7          	lui	s1,0x80000
   1262c:	fff4c493          	not	s1,s1
   12630:	00f4f4b3          	and	s1,s1,a5
   12634:	00100793          	li	a5,1
   12638:	00f8a023          	sw	a5,0(a7)
   1263c:	00912e23          	sw	s1,28(sp)
   12640:	f01ff06f          	j	12540 <_dtoa_r+0x9c>
   12644:	02013607          	fld	fa2,32(sp)
   12648:	04810793          	addi	a5,sp,72
   1264c:	04c10713          	addi	a4,sp,76
   12650:	00040513          	mv	a0,s0
   12654:	390030ef          	jal	159e4 <__d2b>
   12658:	0144d813          	srli	a6,s1,0x14
   1265c:	02a12823          	sw	a0,48(sp)
   12660:	36081663          	bnez	a6,129cc <_dtoa_r+0x528>
   12664:	04812803          	lw	a6,72(sp)
   12668:	04c12683          	lw	a3,76(sp)
   1266c:	02000793          	li	a5,32
   12670:	00d806b3          	add	a3,a6,a3
   12674:	43268613          	addi	a2,a3,1074
   12678:	62c7d863          	ble	a2,a5,12ca8 <_dtoa_r+0x804>
   1267c:	04000793          	li	a5,64
   12680:	40c78633          	sub	a2,a5,a2
   12684:	01812783          	lw	a5,24(sp)
   12688:	41268713          	addi	a4,a3,1042
   1268c:	00c494b3          	sll	s1,s1,a2
   12690:	00e7d733          	srl	a4,a5,a4
   12694:	009764b3          	or	s1,a4,s1
   12698:	d2148053          	fcvt.d.wu	ft0,s1
   1269c:	00013027          	fsd	ft0,0(sp)
   126a0:	00412783          	lw	a5,4(sp)
   126a4:	00012703          	lw	a4,0(sp)
   126a8:	fe100637          	lui	a2,0xfe100
   126ac:	00f607b3          	add	a5,a2,a5
   126b0:	fff68693          	addi	a3,a3,-1
   126b4:	00100913          	li	s2,1
   126b8:	00f12223          	sw	a5,4(sp)
   126bc:	00e12023          	sw	a4,0(sp)
   126c0:	8201b007          	fld	ft0,-2016(gp) # 1c5b0 <__wctomb+0x8>
   126c4:	00013107          	fld	ft2,0(sp)
   126c8:	0a0170d3          	fsub.d	ft1,ft2,ft0
   126cc:	8301b007          	fld	ft0,-2000(gp) # 1c5c0 <__wctomb+0x18>
   126d0:	8281b107          	fld	ft2,-2008(gp) # 1c5b8 <__wctomb+0x10>
   126d4:	0220f043          	fmadd.d	ft0,ft1,ft2,ft0
   126d8:	8381b107          	fld	ft2,-1992(gp) # 1c5c8 <__wctomb+0x20>
   126dc:	d20680d3          	fcvt.d.w	ft1,a3
   126e0:	0220f043          	fmadd.d	ft0,ft1,ft2,ft0
   126e4:	d20000d3          	fcvt.d.w	ft1,zero
   126e8:	a21017d3          	flt.d	a5,ft0,ft1
   126ec:	c2001bd3          	fcvt.w.d	s7,ft0,rtz
   126f0:	58079663          	bnez	a5,12c7c <_dtoa_r+0x7d8>
   126f4:	00100713          	li	a4,1
   126f8:	01600793          	li	a5,22
   126fc:	02e12a23          	sw	a4,52(sp)
   12700:	0377e663          	bltu	a5,s7,1272c <_dtoa_r+0x288>
   12704:	0001a737          	lui	a4,0x1a
   12708:	003b9793          	slli	a5,s7,0x3
   1270c:	6c070713          	addi	a4,a4,1728 # 1a6c0 <__mprec_tens>
   12710:	00e787b3          	add	a5,a5,a4
   12714:	0007b007          	fld	ft0,0(a5)
   12718:	01813087          	fld	ft1,24(sp)
   1271c:	a20097d3          	flt.d	a5,ft1,ft0
   12720:	58078063          	beqz	a5,12ca0 <_dtoa_r+0x7fc>
   12724:	fffb8b93          	addi	s7,s7,-1
   12728:	02012a23          	sw	zero,52(sp)
   1272c:	40d80833          	sub	a6,a6,a3
   12730:	fff80d13          	addi	s10,a6,-1
   12734:	00000c93          	li	s9,0
   12738:	2c0d4663          	bltz	s10,12a04 <_dtoa_r+0x560>
   1273c:	520bc863          	bltz	s7,12c6c <_dtoa_r+0x7c8>
   12740:	017d0d33          	add	s10,s10,s7
   12744:	03712c23          	sw	s7,56(sp)
   12748:	00000c13          	li	s8,0
   1274c:	00900793          	li	a5,9
   12750:	2d47e063          	bltu	a5,s4,12a10 <_dtoa_r+0x56c>
   12754:	00500793          	li	a5,5
   12758:	00100d93          	li	s11,1
   1275c:	0147d663          	ble	s4,a5,12768 <_dtoa_r+0x2c4>
   12760:	ffca0a13          	addi	s4,s4,-4
   12764:	00000d93          	li	s11,0
   12768:	00300793          	li	a5,3
   1276c:	24fa0ae3          	beq	s4,a5,131c0 <_dtoa_r+0xd1c>
   12770:	1b47dce3          	ble	s4,a5,13128 <_dtoa_r+0xc84>
   12774:	00400793          	li	a5,4
   12778:	06fa0ce3          	beq	s4,a5,12ff0 <_dtoa_r+0xb4c>
   1277c:	00100793          	li	a5,1
   12780:	02f12023          	sw	a5,32(sp)
   12784:	00500793          	li	a5,5
   12788:	1afa16e3          	bne	s4,a5,13134 <_dtoa_r+0xc90>
   1278c:	013b87b3          	add	a5,s7,s3
   12790:	00178b13          	addi	s6,a5,1
   12794:	02f12e23          	sw	a5,60(sp)
   12798:	000b0613          	mv	a2,s6
   1279c:	000b0a93          	mv	s5,s6
   127a0:	17605ee3          	blez	s6,1311c <_dtoa_r+0xc78>
   127a4:	01700793          	li	a5,23
   127a8:	04042223          	sw	zero,68(s0)
   127ac:	00000593          	li	a1,0
   127b0:	02c7f263          	bleu	a2,a5,127d4 <_dtoa_r+0x330>
   127b4:	00100713          	li	a4,1
   127b8:	00400793          	li	a5,4
   127bc:	00179793          	slli	a5,a5,0x1
   127c0:	01478693          	addi	a3,a5,20
   127c4:	00070593          	mv	a1,a4
   127c8:	00170713          	addi	a4,a4,1
   127cc:	fed678e3          	bleu	a3,a2,127bc <_dtoa_r+0x318>
   127d0:	04b42223          	sw	a1,68(s0)
   127d4:	00040513          	mv	a0,s0
   127d8:	534020ef          	jal	14d0c <_Balloc>
   127dc:	00e00793          	li	a5,14
   127e0:	00050493          	mv	s1,a0
   127e4:	04a42023          	sw	a0,64(s0)
   127e8:	2557ec63          	bltu	a5,s5,12a40 <_dtoa_r+0x59c>
   127ec:	240d8a63          	beqz	s11,12a40 <_dtoa_r+0x59c>
   127f0:	01813007          	fld	ft0,24(sp)
   127f4:	29705ce3          	blez	s7,1328c <_dtoa_r+0xde8>
   127f8:	00fbf793          	andi	a5,s7,15
   127fc:	00379713          	slli	a4,a5,0x3
   12800:	0001a7b7          	lui	a5,0x1a
   12804:	404bda93          	srai	s5,s7,0x4
   12808:	6c078793          	addi	a5,a5,1728 # 1a6c0 <__mprec_tens>
   1280c:	00f707b3          	add	a5,a4,a5
   12810:	010af713          	andi	a4,s5,16
   12814:	0007b407          	fld	fs0,0(a5)
   12818:	22000553          	fmv.d	fa0,ft0
   1281c:	00200d93          	li	s11,2
   12820:	00070c63          	beqz	a4,12838 <_dtoa_r+0x394>
   12824:	0001a7b7          	lui	a5,0x1a
   12828:	7d07b607          	fld	fa2,2000(a5) # 1a7d0 <__mprec_bigtens+0x20>
   1282c:	00fafa93          	andi	s5,s5,15
   12830:	00300d93          	li	s11,3
   12834:	1c1060ef          	jal	191f4 <__divdf3>
   12838:	020a8663          	beqz	s5,12864 <_dtoa_r+0x3c0>
   1283c:	0001a7b7          	lui	a5,0x1a
   12840:	7b078793          	addi	a5,a5,1968 # 1a7b0 <__mprec_bigtens>
   12844:	001af713          	andi	a4,s5,1
   12848:	401ada93          	srai	s5,s5,0x1
   1284c:	00070863          	beqz	a4,1285c <_dtoa_r+0x3b8>
   12850:	0007b007          	fld	ft0,0(a5)
   12854:	001d8d93          	addi	s11,s11,1
   12858:	12047453          	fmul.d	fs0,fs0,ft0
   1285c:	00878793          	addi	a5,a5,8
   12860:	fe0a92e3          	bnez	s5,12844 <_dtoa_r+0x3a0>
   12864:	22840653          	fmv.d	fa2,fs0
   12868:	18d060ef          	jal	191f4 <__divdf3>
   1286c:	22a50453          	fmv.d	fs0,fa0
   12870:	03412703          	lw	a4,52(sp)
   12874:	00070863          	beqz	a4,12884 <_dtoa_r+0x3e0>
   12878:	8401b007          	fld	ft0,-1984(gp) # 1c5d0 <__wctomb+0x28>
   1287c:	a20417d3          	flt.d	a5,fs0,ft0
   12880:	3a0796e3          	bnez	a5,1342c <_dtoa_r+0xf88>
   12884:	8501b007          	fld	ft0,-1968(gp) # 1c5e0 <__wctomb+0x38>
   12888:	d20d80d3          	fcvt.d.w	ft1,s11
   1288c:	fcc006b7          	lui	a3,0xfcc00
   12890:	0280f043          	fmadd.d	ft0,ft1,fs0,ft0
   12894:	00013027          	fsd	ft0,0(sp)
   12898:	00412783          	lw	a5,4(sp)
   1289c:	00012703          	lw	a4,0(sp)
   128a0:	00f687b3          	add	a5,a3,a5
   128a4:	140b02e3          	beqz	s6,131e8 <_dtoa_r+0xd44>
   128a8:	000b8a93          	mv	s5,s7
   128ac:	000b0693          	mv	a3,s6
   128b0:	02012603          	lw	a2,32(sp)
   128b4:	26060ce3          	beqz	a2,1332c <_dtoa_r+0xe88>
   128b8:	fff68613          	addi	a2,a3,-1 # fcbfffff <_gp+0xfcbe326f>
   128bc:	00361593          	slli	a1,a2,0x3
   128c0:	0001a637          	lui	a2,0x1a
   128c4:	6c060613          	addi	a2,a2,1728 # 1a6c0 <__mprec_tens>
   128c8:	00c58633          	add	a2,a1,a2
   128cc:	00063607          	fld	fa2,0(a2)
   128d0:	8601b507          	fld	fa0,-1952(gp) # 1c5f0 <__wctomb+0x48>
   128d4:	00d12a23          	sw	a3,20(sp)
   128d8:	00e12623          	sw	a4,12(sp)
   128dc:	00f12823          	sw	a5,16(sp)
   128e0:	115060ef          	jal	191f4 <__divdf3>
   128e4:	00c12703          	lw	a4,12(sp)
   128e8:	01012783          	lw	a5,16(sp)
   128ec:	c2041653          	fcvt.w.d	a2,fs0,rtz
   128f0:	00e12023          	sw	a4,0(sp)
   128f4:	00f12223          	sw	a5,4(sp)
   128f8:	00013087          	fld	ft1,0(sp)
   128fc:	d2060053          	fcvt.d.w	ft0,a2
   12900:	0a047053          	fsub.d	ft0,fs0,ft0
   12904:	0a157553          	fsub.d	fa0,fa0,ft1
   12908:	03060793          	addi	a5,a2,48
   1290c:	0ff7f793          	andi	a5,a5,255
   12910:	00f48023          	sb	a5,0(s1) # 80000000 <_gp+0x7ffe3270>
   12914:	a2a01753          	flt.d	a4,ft0,fa0
   12918:	00148d93          	addi	s11,s1,1
   1291c:	01412683          	lw	a3,20(sp)
   12920:	06071263          	bnez	a4,12984 <_dtoa_r+0x4e0>
   12924:	8401b207          	fld	ft4,-1984(gp) # 1c5d0 <__wctomb+0x28>
   12928:	0a0270d3          	fsub.d	ft1,ft4,ft0
   1292c:	a2a09753          	flt.d	a4,ft1,fa0
   12930:	36071ae3          	bnez	a4,134a4 <_dtoa_r+0x1000>
   12934:	00100793          	li	a5,1
   12938:	10d7d463          	ble	a3,a5,12a40 <_dtoa_r+0x59c>
   1293c:	8481b107          	fld	ft2,-1976(gp) # 1c5d8 <__wctomb+0x30>
   12940:	00d486b3          	add	a3,s1,a3
   12944:	0140006f          	j	12958 <_dtoa_r+0x4b4>
   12948:	0a0270d3          	fsub.d	ft1,ft4,ft0
   1294c:	a2a09753          	flt.d	a4,ft1,fa0
   12950:	34071ae3          	bnez	a4,134a4 <_dtoa_r+0x1000>
   12954:	0edd8663          	beq	s11,a3,12a40 <_dtoa_r+0x59c>
   12958:	12207053          	fmul.d	ft0,ft0,ft2
   1295c:	12257553          	fmul.d	fa0,fa0,ft2
   12960:	001d8d93          	addi	s11,s11,1
   12964:	c20017d3          	fcvt.w.d	a5,ft0,rtz
   12968:	d20780d3          	fcvt.d.w	ft1,a5
   1296c:	0a107053          	fsub.d	ft0,ft0,ft1
   12970:	03078793          	addi	a5,a5,48
   12974:	0ff7f793          	andi	a5,a5,255
   12978:	fefd8fa3          	sb	a5,-1(s11)
   1297c:	a2a01753          	flt.d	a4,ft0,fa0
   12980:	fc0704e3          	beqz	a4,12948 <_dtoa_r+0x4a4>
   12984:	000a8b93          	mv	s7,s5
   12988:	03012583          	lw	a1,48(sp)
   1298c:	00040513          	mv	a0,s0
   12990:	001b8b93          	addi	s7,s7,1
   12994:	41c020ef          	jal	14db0 <_Bfree>
   12998:	02c12783          	lw	a5,44(sp)
   1299c:	0c012603          	lw	a2,192(sp)
   129a0:	000d8023          	sb	zero,0(s11)
   129a4:	0177a023          	sw	s7,0(a5)
   129a8:	74060e63          	beqz	a2,13104 <_dtoa_r+0xc60>
   129ac:	01b62023          	sw	s11,0(a2)
   129b0:	00048513          	mv	a0,s1
   129b4:	bd9ff06f          	j	1258c <_dtoa_r+0xe8>
   129b8:	00c49793          	slli	a5,s1,0xc
   129bc:	c2079ce3          	bnez	a5,125f4 <_dtoa_r+0x150>
   129c0:	0001b537          	lui	a0,0x1b
   129c4:	ad050493          	addi	s1,a0,-1328 # 1aad0 <__clz_tab+0x148>
   129c8:	c35ff06f          	j	125fc <_dtoa_r+0x158>
   129cc:	02412783          	lw	a5,36(sp)
   129d0:	00100637          	lui	a2,0x100
   129d4:	fff60613          	addi	a2,a2,-1 # fffff <_gp+0xe326f>
   129d8:	3ff006b7          	lui	a3,0x3ff00
   129dc:	00c7f633          	and	a2,a5,a2
   129e0:	00d667b3          	or	a5,a2,a3
   129e4:	c0180693          	addi	a3,a6,-1023
   129e8:	02012703          	lw	a4,32(sp)
   129ec:	04812803          	lw	a6,72(sp)
   129f0:	00000913          	li	s2,0
   129f4:	cc5ff06f          	j	126b8 <_dtoa_r+0x214>
   129f8:	0001b4b7          	lui	s1,0x1b
   129fc:	acc48513          	addi	a0,s1,-1332 # 1aacc <__clz_tab+0x144>
   12a00:	b8dff06f          	j	1258c <_dtoa_r+0xe8>
   12a04:	41a00cb3          	neg	s9,s10
   12a08:	00000d13          	li	s10,0
   12a0c:	d31ff06f          	j	1273c <_dtoa_r+0x298>
   12a10:	04042223          	sw	zero,68(s0)
   12a14:	00000593          	li	a1,0
   12a18:	00040513          	mv	a0,s0
   12a1c:	2f0020ef          	jal	14d0c <_Balloc>
   12a20:	fff00b13          	li	s6,-1
   12a24:	00100793          	li	a5,1
   12a28:	00050493          	mv	s1,a0
   12a2c:	04a42023          	sw	a0,64(s0)
   12a30:	03612e23          	sw	s6,60(sp)
   12a34:	00000993          	li	s3,0
   12a38:	00000a13          	li	s4,0
   12a3c:	02f12023          	sw	a5,32(sp)
   12a40:	04c12783          	lw	a5,76(sp)
   12a44:	0e07cc63          	bltz	a5,12b3c <_dtoa_r+0x698>
   12a48:	00e00713          	li	a4,14
   12a4c:	0f774863          	blt	a4,s7,12b3c <_dtoa_r+0x698>
   12a50:	0001a737          	lui	a4,0x1a
   12a54:	003b9793          	slli	a5,s7,0x3
   12a58:	6c070713          	addi	a4,a4,1728 # 1a6c0 <__mprec_tens>
   12a5c:	00e787b3          	add	a5,a5,a4
   12a60:	0007b407          	fld	fs0,0(a5)
   12a64:	5a09c663          	bltz	s3,13010 <_dtoa_r+0xb6c>
   12a68:	01813487          	fld	fs1,24(sp)
   12a6c:	22840653          	fmv.d	fa2,fs0
   12a70:	22841b53          	fneg.d	fs6,fs0
   12a74:	22948553          	fmv.d	fa0,fs1
   12a78:	00148d93          	addi	s11,s1,1
   12a7c:	778060ef          	jal	191f4 <__divdf3>
   12a80:	c2051753          	fcvt.w.d	a4,fa0,rtz
   12a84:	03070793          	addi	a5,a4,48
   12a88:	d2070053          	fcvt.d.w	ft0,a4
   12a8c:	00f48023          	sb	a5,0(s1)
   12a90:	00100793          	li	a5,1
   12a94:	4a0b74c3          	fmadd.d	fs1,fs6,ft0,fs1
   12a98:	04fb0e63          	beq	s6,a5,12af4 <_dtoa_r+0x650>
   12a9c:	8481ba07          	fld	fs4,-1976(gp) # 1c5d8 <__wctomb+0x30>
   12aa0:	d2000953          	fcvt.d.w	fs2,zero
   12aa4:	00248913          	addi	s2,s1,2
   12aa8:	1344f4d3          	fmul.d	fs1,fs1,fs4
   12aac:	01648b33          	add	s6,s1,s6
   12ab0:	a324a7d3          	feq.d	a5,fs1,fs2
   12ab4:	00078c63          	beqz	a5,12acc <_dtoa_r+0x628>
   12ab8:	ed1ff06f          	j	12988 <_dtoa_r+0x4e4>
   12abc:	1344f4d3          	fmul.d	fs1,fs1,fs4
   12ac0:	00190913          	addi	s2,s2,1
   12ac4:	a324a7d3          	feq.d	a5,fs1,fs2
   12ac8:	ec0790e3          	bnez	a5,12988 <_dtoa_r+0x4e4>
   12acc:	22948553          	fmv.d	fa0,fs1
   12ad0:	22840653          	fmv.d	fa2,fs0
   12ad4:	00090d93          	mv	s11,s2
   12ad8:	71c060ef          	jal	191f4 <__divdf3>
   12adc:	c2051753          	fcvt.w.d	a4,fa0,rtz
   12ae0:	d2070053          	fcvt.d.w	ft0,a4
   12ae4:	03070793          	addi	a5,a4,48
   12ae8:	fef90fa3          	sb	a5,-1(s2)
   12aec:	4a0b74c3          	fmadd.d	fs1,fs6,ft0,fs1
   12af0:	fd2b16e3          	bne	s6,s2,12abc <_dtoa_r+0x618>
   12af4:	0294f4d3          	fadd.d	fs1,fs1,fs1
   12af8:	a29417d3          	flt.d	a5,fs0,fs1
   12afc:	00079a63          	bnez	a5,12b10 <_dtoa_r+0x66c>
   12b00:	a29427d3          	feq.d	a5,fs0,fs1
   12b04:	e80782e3          	beqz	a5,12988 <_dtoa_r+0x4e4>
   12b08:	00177713          	andi	a4,a4,1
   12b0c:	e6070ee3          	beqz	a4,12988 <_dtoa_r+0x4e4>
   12b10:	fffdc783          	lbu	a5,-1(s11)
   12b14:	03900693          	li	a3,57
   12b18:	0100006f          	j	12b28 <_dtoa_r+0x684>
   12b1c:	74970e63          	beq	a4,s1,13278 <_dtoa_r+0xdd4>
   12b20:	fff74783          	lbu	a5,-1(a4)
   12b24:	00070d93          	mv	s11,a4
   12b28:	fffd8713          	addi	a4,s11,-1
   12b2c:	fed788e3          	beq	a5,a3,12b1c <_dtoa_r+0x678>
   12b30:	00178793          	addi	a5,a5,1
   12b34:	00f70023          	sb	a5,0(a4)
   12b38:	e51ff06f          	j	12988 <_dtoa_r+0x4e4>
   12b3c:	02012703          	lw	a4,32(sp)
   12b40:	14070863          	beqz	a4,12c90 <_dtoa_r+0x7ec>
   12b44:	00100713          	li	a4,1
   12b48:	51475463          	ble	s4,a4,13050 <_dtoa_r+0xbac>
   12b4c:	fffb0713          	addi	a4,s6,-1
   12b50:	6eec4263          	blt	s8,a4,13234 <_dtoa_r+0xd90>
   12b54:	40ec0733          	sub	a4,s8,a4
   12b58:	000c8d93          	mv	s11,s9
   12b5c:	000b0793          	mv	a5,s6
   12b60:	0a0b40e3          	bltz	s6,13400 <_dtoa_r+0xf5c>
   12b64:	00100593          	li	a1,1
   12b68:	00040513          	mv	a0,s0
   12b6c:	00e12623          	sw	a4,12(sp)
   12b70:	00fc8cb3          	add	s9,s9,a5
   12b74:	00fd0d33          	add	s10,s10,a5
   12b78:	59c020ef          	jal	15114 <__i2b>
   12b7c:	00c12703          	lw	a4,12(sp)
   12b80:	00050a93          	mv	s5,a0
   12b84:	000d8e63          	beqz	s11,12ba0 <_dtoa_r+0x6fc>
   12b88:	01a05c63          	blez	s10,12ba0 <_dtoa_r+0x6fc>
   12b8c:	000d8793          	mv	a5,s11
   12b90:	41bd4863          	blt	s10,s11,12fa0 <_dtoa_r+0xafc>
   12b94:	40fc8cb3          	sub	s9,s9,a5
   12b98:	40fd8db3          	sub	s11,s11,a5
   12b9c:	40fd0d33          	sub	s10,s10,a5
   12ba0:	03012903          	lw	s2,48(sp)
   12ba4:	07805663          	blez	s8,12c10 <_dtoa_r+0x76c>
   12ba8:	02012783          	lw	a5,32(sp)
   12bac:	66078863          	beqz	a5,1321c <_dtoa_r+0xd78>
   12bb0:	04070663          	beqz	a4,12bfc <_dtoa_r+0x758>
   12bb4:	00070613          	mv	a2,a4
   12bb8:	000a8593          	mv	a1,s5
   12bbc:	00040513          	mv	a0,s0
   12bc0:	00e12623          	sw	a4,12(sp)
   12bc4:	774020ef          	jal	15338 <__pow5mult>
   12bc8:	03012603          	lw	a2,48(sp)
   12bcc:	00050593          	mv	a1,a0
   12bd0:	00050a93          	mv	s5,a0
   12bd4:	00040513          	mv	a0,s0
   12bd8:	570020ef          	jal	15148 <__multiply>
   12bdc:	00c12703          	lw	a4,12(sp)
   12be0:	03012583          	lw	a1,48(sp)
   12be4:	00050913          	mv	s2,a0
   12be8:	40ec0c33          	sub	s8,s8,a4
   12bec:	00040513          	mv	a0,s0
   12bf0:	1c0020ef          	jal	14db0 <_Bfree>
   12bf4:	000c0e63          	beqz	s8,12c10 <_dtoa_r+0x76c>
   12bf8:	03212823          	sw	s2,48(sp)
   12bfc:	03012583          	lw	a1,48(sp)
   12c00:	000c0613          	mv	a2,s8
   12c04:	00040513          	mv	a0,s0
   12c08:	730020ef          	jal	15338 <__pow5mult>
   12c0c:	00050913          	mv	s2,a0
   12c10:	00100593          	li	a1,1
   12c14:	00040513          	mv	a0,s0
   12c18:	4fc020ef          	jal	15114 <__i2b>
   12c1c:	03812703          	lw	a4,56(sp)
   12c20:	00050c13          	mv	s8,a0
   12c24:	08070a63          	beqz	a4,12cb8 <_dtoa_r+0x814>
   12c28:	00050593          	mv	a1,a0
   12c2c:	00070613          	mv	a2,a4
   12c30:	00040513          	mv	a0,s0
   12c34:	704020ef          	jal	15338 <__pow5mult>
   12c38:	00100793          	li	a5,1
   12c3c:	00050c13          	mv	s8,a0
   12c40:	3747d463          	ble	s4,a5,12fa8 <_dtoa_r+0xb04>
   12c44:	02012823          	sw	zero,48(sp)
   12c48:	010c2783          	lw	a5,16(s8)
   12c4c:	00378793          	addi	a5,a5,3
   12c50:	00279793          	slli	a5,a5,0x2
   12c54:	00fc07b3          	add	a5,s8,a5
   12c58:	0047a503          	lw	a0,4(a5)
   12c5c:	38c020ef          	jal	14fe8 <__hi0bits>
   12c60:	02000793          	li	a5,32
   12c64:	40a78533          	sub	a0,a5,a0
   12c68:	05c0006f          	j	12cc4 <_dtoa_r+0x820>
   12c6c:	417c8cb3          	sub	s9,s9,s7
   12c70:	41700c33          	neg	s8,s7
   12c74:	02012c23          	sw	zero,56(sp)
   12c78:	ad5ff06f          	j	1274c <_dtoa_r+0x2a8>
   12c7c:	d20b80d3          	fcvt.d.w	ft1,s7
   12c80:	a21027d3          	feq.d	a5,ft0,ft1
   12c84:	0017b793          	seqz	a5,a5
   12c88:	40fb8bb3          	sub	s7,s7,a5
   12c8c:	a69ff06f          	j	126f4 <_dtoa_r+0x250>
   12c90:	000c0713          	mv	a4,s8
   12c94:	000c8d93          	mv	s11,s9
   12c98:	00000a93          	li	s5,0
   12c9c:	ee9ff06f          	j	12b84 <_dtoa_r+0x6e0>
   12ca0:	02012a23          	sw	zero,52(sp)
   12ca4:	a89ff06f          	j	1272c <_dtoa_r+0x288>
   12ca8:	40c784b3          	sub	s1,a5,a2
   12cac:	01812603          	lw	a2,24(sp)
   12cb0:	009614b3          	sll	s1,a2,s1
   12cb4:	9e5ff06f          	j	12698 <_dtoa_r+0x1f4>
   12cb8:	00100513          	li	a0,1
   12cbc:	43455463          	ble	s4,a0,130e4 <_dtoa_r+0xc40>
   12cc0:	02012823          	sw	zero,48(sp)
   12cc4:	01a50533          	add	a0,a0,s10
   12cc8:	01f57513          	andi	a0,a0,31
   12ccc:	1a050663          	beqz	a0,12e78 <_dtoa_r+0x9d4>
   12cd0:	02000793          	li	a5,32
   12cd4:	40a787b3          	sub	a5,a5,a0
   12cd8:	00400713          	li	a4,4
   12cdc:	00f75ae3          	ble	a5,a4,134f0 <_dtoa_r+0x104c>
   12ce0:	01c00793          	li	a5,28
   12ce4:	40a78533          	sub	a0,a5,a0
   12ce8:	00ac8cb3          	add	s9,s9,a0
   12cec:	00ad8db3          	add	s11,s11,a0
   12cf0:	00ad0d33          	add	s10,s10,a0
   12cf4:	01905c63          	blez	s9,12d0c <_dtoa_r+0x868>
   12cf8:	00090593          	mv	a1,s2
   12cfc:	000c8613          	mv	a2,s9
   12d00:	00040513          	mv	a0,s0
   12d04:	76c020ef          	jal	15470 <__lshift>
   12d08:	00050913          	mv	s2,a0
   12d0c:	01a05c63          	blez	s10,12d24 <_dtoa_r+0x880>
   12d10:	000c0593          	mv	a1,s8
   12d14:	000d0613          	mv	a2,s10
   12d18:	00040513          	mv	a0,s0
   12d1c:	754020ef          	jal	15470 <__lshift>
   12d20:	00050c13          	mv	s8,a0
   12d24:	03412783          	lw	a5,52(sp)
   12d28:	16079263          	bnez	a5,12e8c <_dtoa_r+0x9e8>
   12d2c:	43605c63          	blez	s6,13164 <_dtoa_r+0xcc0>
   12d30:	02012703          	lw	a4,32(sp)
   12d34:	1a070263          	beqz	a4,12ed8 <_dtoa_r+0xa34>
   12d38:	01b05c63          	blez	s11,12d50 <_dtoa_r+0x8ac>
   12d3c:	000a8593          	mv	a1,s5
   12d40:	000d8613          	mv	a2,s11
   12d44:	00040513          	mv	a0,s0
   12d48:	728020ef          	jal	15470 <__lshift>
   12d4c:	00050a93          	mv	s5,a0
   12d50:	03012783          	lw	a5,48(sp)
   12d54:	000a8d13          	mv	s10,s5
   12d58:	58079a63          	bnez	a5,132ec <_dtoa_r+0xe48>
   12d5c:	01812703          	lw	a4,24(sp)
   12d60:	01648b33          	add	s6,s1,s6
   12d64:	00148993          	addi	s3,s1,1
   12d68:	00177713          	andi	a4,a4,1
   12d6c:	03612823          	sw	s6,48(sp)
   12d70:	02e12023          	sw	a4,32(sp)
   12d74:	000c0593          	mv	a1,s8
   12d78:	00090513          	mv	a0,s2
   12d7c:	d40ff0ef          	jal	122bc <quorem>
   12d80:	00050d93          	mv	s11,a0
   12d84:	000a8593          	mv	a1,s5
   12d88:	00090513          	mv	a0,s2
   12d8c:	035020ef          	jal	155c0 <__mcmp>
   12d90:	00050b13          	mv	s6,a0
   12d94:	000d0613          	mv	a2,s10
   12d98:	000c0593          	mv	a1,s8
   12d9c:	00040513          	mv	a0,s0
   12da0:	081020ef          	jal	15620 <__mdiff>
   12da4:	00c52683          	lw	a3,12(a0)
   12da8:	fff98713          	addi	a4,s3,-1
   12dac:	00e12c23          	sw	a4,24(sp)
   12db0:	00050793          	mv	a5,a0
   12db4:	030d8c93          	addi	s9,s11,48
   12db8:	00100713          	li	a4,1
   12dbc:	00069e63          	bnez	a3,12dd8 <_dtoa_r+0x934>
   12dc0:	00050593          	mv	a1,a0
   12dc4:	00090513          	mv	a0,s2
   12dc8:	00f12823          	sw	a5,16(sp)
   12dcc:	7f4020ef          	jal	155c0 <__mcmp>
   12dd0:	01012783          	lw	a5,16(sp)
   12dd4:	00050713          	mv	a4,a0
   12dd8:	00078593          	mv	a1,a5
   12ddc:	00040513          	mv	a0,s0
   12de0:	00e12623          	sw	a4,12(sp)
   12de4:	7cd010ef          	jal	14db0 <_Bfree>
   12de8:	00c12703          	lw	a4,12(sp)
   12dec:	014767b3          	or	a5,a4,s4
   12df0:	00079663          	bnez	a5,12dfc <_dtoa_r+0x958>
   12df4:	02012783          	lw	a5,32(sp)
   12df8:	26078663          	beqz	a5,13064 <_dtoa_r+0xbc0>
   12dfc:	280b4a63          	bltz	s6,13090 <_dtoa_r+0xbec>
   12e00:	014b6b33          	or	s6,s6,s4
   12e04:	000b1663          	bnez	s6,12e10 <_dtoa_r+0x96c>
   12e08:	02012783          	lw	a5,32(sp)
   12e0c:	28078263          	beqz	a5,13090 <_dtoa_r+0xbec>
   12e10:	5ae04e63          	bgtz	a4,133cc <_dtoa_r+0xf28>
   12e14:	03012703          	lw	a4,48(sp)
   12e18:	00098d93          	mv	s11,s3
   12e1c:	ff998fa3          	sb	s9,-1(s3)
   12e20:	5d370a63          	beq	a4,s3,133f4 <_dtoa_r+0xf50>
   12e24:	00090593          	mv	a1,s2
   12e28:	00000693          	li	a3,0
   12e2c:	00a00613          	li	a2,10
   12e30:	00040513          	mv	a0,s0
   12e34:	7a1010ef          	jal	14dd4 <__multadd>
   12e38:	00050913          	mv	s2,a0
   12e3c:	00000693          	li	a3,0
   12e40:	00a00613          	li	a2,10
   12e44:	000a8593          	mv	a1,s5
   12e48:	00040513          	mv	a0,s0
   12e4c:	2baa8263          	beq	s5,s10,130f0 <_dtoa_r+0xc4c>
   12e50:	785010ef          	jal	14dd4 <__multadd>
   12e54:	00050a93          	mv	s5,a0
   12e58:	000d0593          	mv	a1,s10
   12e5c:	00000693          	li	a3,0
   12e60:	00a00613          	li	a2,10
   12e64:	00040513          	mv	a0,s0
   12e68:	76d010ef          	jal	14dd4 <__multadd>
   12e6c:	00050d13          	mv	s10,a0
   12e70:	00198993          	addi	s3,s3,1
   12e74:	f01ff06f          	j	12d74 <_dtoa_r+0x8d0>
   12e78:	01c00513          	li	a0,28
   12e7c:	00ac8cb3          	add	s9,s9,a0
   12e80:	00ad8db3          	add	s11,s11,a0
   12e84:	00ad0d33          	add	s10,s10,a0
   12e88:	e6dff06f          	j	12cf4 <_dtoa_r+0x850>
   12e8c:	000c0593          	mv	a1,s8
   12e90:	00090513          	mv	a0,s2
   12e94:	72c020ef          	jal	155c0 <__mcmp>
   12e98:	e8055ae3          	bgez	a0,12d2c <_dtoa_r+0x888>
   12e9c:	00090593          	mv	a1,s2
   12ea0:	00000693          	li	a3,0
   12ea4:	00a00613          	li	a2,10
   12ea8:	00040513          	mv	a0,s0
   12eac:	729010ef          	jal	14dd4 <__multadd>
   12eb0:	02012703          	lw	a4,32(sp)
   12eb4:	00050913          	mv	s2,a0
   12eb8:	fffb8b93          	addi	s7,s7,-1
   12ebc:	60071063          	bnez	a4,134bc <_dtoa_r+0x1018>
   12ec0:	03c12703          	lw	a4,60(sp)
   12ec4:	00070b13          	mv	s6,a4
   12ec8:	00e04863          	bgtz	a4,12ed8 <_dtoa_r+0xa34>
   12ecc:	00200793          	li	a5,2
   12ed0:	6347c863          	blt	a5,s4,13500 <_dtoa_r+0x105c>
   12ed4:	03c12b03          	lw	s6,60(sp)
   12ed8:	00048993          	mv	s3,s1
   12edc:	00c0006f          	j	12ee8 <_dtoa_r+0xa44>
   12ee0:	6f5010ef          	jal	14dd4 <__multadd>
   12ee4:	00050913          	mv	s2,a0
   12ee8:	000c0593          	mv	a1,s8
   12eec:	00090513          	mv	a0,s2
   12ef0:	bccff0ef          	jal	122bc <quorem>
   12ef4:	00198993          	addi	s3,s3,1
   12ef8:	03050c93          	addi	s9,a0,48
   12efc:	409987b3          	sub	a5,s3,s1
   12f00:	00000693          	li	a3,0
   12f04:	00a00613          	li	a2,10
   12f08:	00090593          	mv	a1,s2
   12f0c:	00040513          	mv	a0,s0
   12f10:	ff998fa3          	sb	s9,-1(s3)
   12f14:	fd67c6e3          	blt	a5,s6,12ee0 <_dtoa_r+0xa3c>
   12f18:	4f605a63          	blez	s6,1340c <_dtoa_r+0xf68>
   12f1c:	01648db3          	add	s11,s1,s6
   12f20:	00000993          	li	s3,0
   12f24:	00090593          	mv	a1,s2
   12f28:	00100613          	li	a2,1
   12f2c:	00040513          	mv	a0,s0
   12f30:	540020ef          	jal	15470 <__lshift>
   12f34:	000c0593          	mv	a1,s8
   12f38:	02a12823          	sw	a0,48(sp)
   12f3c:	684020ef          	jal	155c0 <__mcmp>
   12f40:	30a05863          	blez	a0,13250 <_dtoa_r+0xdac>
   12f44:	fffdc703          	lbu	a4,-1(s11)
   12f48:	03900693          	li	a3,57
   12f4c:	0100006f          	j	12f5c <_dtoa_r+0xab8>
   12f50:	26978063          	beq	a5,s1,131b0 <_dtoa_r+0xd0c>
   12f54:	fff7c703          	lbu	a4,-1(a5)
   12f58:	00078d93          	mv	s11,a5
   12f5c:	fffd8793          	addi	a5,s11,-1
   12f60:	fed708e3          	beq	a4,a3,12f50 <_dtoa_r+0xaac>
   12f64:	00170713          	addi	a4,a4,1
   12f68:	00e78023          	sb	a4,0(a5)
   12f6c:	000c0593          	mv	a1,s8
   12f70:	00040513          	mv	a0,s0
   12f74:	63d010ef          	jal	14db0 <_Bfree>
   12f78:	a00a88e3          	beqz	s5,12988 <_dtoa_r+0x4e4>
   12f7c:	00098a63          	beqz	s3,12f90 <_dtoa_r+0xaec>
   12f80:	01598863          	beq	s3,s5,12f90 <_dtoa_r+0xaec>
   12f84:	00098593          	mv	a1,s3
   12f88:	00040513          	mv	a0,s0
   12f8c:	625010ef          	jal	14db0 <_Bfree>
   12f90:	000a8593          	mv	a1,s5
   12f94:	00040513          	mv	a0,s0
   12f98:	619010ef          	jal	14db0 <_Bfree>
   12f9c:	9edff06f          	j	12988 <_dtoa_r+0x4e4>
   12fa0:	000d0793          	mv	a5,s10
   12fa4:	bf1ff06f          	j	12b94 <_dtoa_r+0x6f0>
   12fa8:	01812603          	lw	a2,24(sp)
   12fac:	c8061ce3          	bnez	a2,12c44 <_dtoa_r+0x7a0>
   12fb0:	01c12783          	lw	a5,28(sp)
   12fb4:	02012823          	sw	zero,48(sp)
   12fb8:	00c79613          	slli	a2,a5,0xc
   12fbc:	02061263          	bnez	a2,12fe0 <_dtoa_r+0xb3c>
   12fc0:	01c12703          	lw	a4,28(sp)
   12fc4:	7ff007b7          	lui	a5,0x7ff00
   12fc8:	00e7f7b3          	and	a5,a5,a4
   12fcc:	00078a63          	beqz	a5,12fe0 <_dtoa_r+0xb3c>
   12fd0:	00100793          	li	a5,1
   12fd4:	001c8c93          	addi	s9,s9,1
   12fd8:	001d0d13          	addi	s10,s10,1
   12fdc:	02f12823          	sw	a5,48(sp)
   12fe0:	03812703          	lw	a4,56(sp)
   12fe4:	00100513          	li	a0,1
   12fe8:	cc070ee3          	beqz	a4,12cc4 <_dtoa_r+0x820>
   12fec:	c5dff06f          	j	12c48 <_dtoa_r+0x7a4>
   12ff0:	00100713          	li	a4,1
   12ff4:	02e12023          	sw	a4,32(sp)
   12ff8:	11305a63          	blez	s3,1310c <_dtoa_r+0xc68>
   12ffc:	00098613          	mv	a2,s3
   13000:	00098a93          	mv	s5,s3
   13004:	03312e23          	sw	s3,60(sp)
   13008:	00098b13          	mv	s6,s3
   1300c:	f98ff06f          	j	127a4 <_dtoa_r+0x300>
   13010:	a5604ce3          	bgtz	s6,12a68 <_dtoa_r+0x5c4>
   13014:	1e0b1e63          	bnez	s6,13210 <_dtoa_r+0xd6c>
   13018:	8581b007          	fld	ft0,-1960(gp) # 1c5e8 <__wctomb+0x40>
   1301c:	00000c13          	li	s8,0
   13020:	00000a93          	li	s5,0
   13024:	12047453          	fmul.d	fs0,fs0,ft0
   13028:	01813007          	fld	ft0,24(sp)
   1302c:	a28007d3          	fle.d	a5,ft0,fs0
   13030:	16078663          	beqz	a5,1319c <_dtoa_r+0xcf8>
   13034:	fff9cb93          	not	s7,s3
   13038:	00048d93          	mv	s11,s1
   1303c:	000c0593          	mv	a1,s8
   13040:	00040513          	mv	a0,s0
   13044:	56d010ef          	jal	14db0 <_Bfree>
   13048:	940a80e3          	beqz	s5,12988 <_dtoa_r+0x4e4>
   1304c:	f45ff06f          	j	12f90 <_dtoa_r+0xaec>
   13050:	3c090263          	beqz	s2,13414 <_dtoa_r+0xf70>
   13054:	43378793          	addi	a5,a5,1075 # 7ff00433 <_gp+0x7fee36a3>
   13058:	000c0713          	mv	a4,s8
   1305c:	000c8d93          	mv	s11,s9
   13060:	b05ff06f          	j	12b64 <_dtoa_r+0x6c0>
   13064:	03900793          	li	a5,57
   13068:	04fc8a63          	beq	s9,a5,130bc <_dtoa_r+0xc18>
   1306c:	01605463          	blez	s6,13074 <_dtoa_r+0xbd0>
   13070:	031d8c93          	addi	s9,s11,49
   13074:	01812703          	lw	a4,24(sp)
   13078:	000a8993          	mv	s3,s5
   1307c:	03212823          	sw	s2,48(sp)
   13080:	00170d93          	addi	s11,a4,1
   13084:	01970023          	sb	s9,0(a4)
   13088:	000d0a93          	mv	s5,s10
   1308c:	ee1ff06f          	j	12f6c <_dtoa_r+0xac8>
   13090:	fee052e3          	blez	a4,13074 <_dtoa_r+0xbd0>
   13094:	00090593          	mv	a1,s2
   13098:	00100613          	li	a2,1
   1309c:	00040513          	mv	a0,s0
   130a0:	3d0020ef          	jal	15470 <__lshift>
   130a4:	000c0593          	mv	a1,s8
   130a8:	00050913          	mv	s2,a0
   130ac:	514020ef          	jal	155c0 <__mcmp>
   130b0:	3ea05e63          	blez	a0,134ac <_dtoa_r+0x1008>
   130b4:	03900793          	li	a5,57
   130b8:	fafc9ce3          	bne	s9,a5,13070 <_dtoa_r+0xbcc>
   130bc:	01812783          	lw	a5,24(sp)
   130c0:	01812703          	lw	a4,24(sp)
   130c4:	000a8993          	mv	s3,s5
   130c8:	00178d93          	addi	s11,a5,1
   130cc:	03900793          	li	a5,57
   130d0:	00f70023          	sb	a5,0(a4)
   130d4:	000d0a93          	mv	s5,s10
   130d8:	03212823          	sw	s2,48(sp)
   130dc:	03900713          	li	a4,57
   130e0:	e69ff06f          	j	12f48 <_dtoa_r+0xaa4>
   130e4:	01812703          	lw	a4,24(sp)
   130e8:	bc071ce3          	bnez	a4,12cc0 <_dtoa_r+0x81c>
   130ec:	ec5ff06f          	j	12fb0 <_dtoa_r+0xb0c>
   130f0:	4e5010ef          	jal	14dd4 <__multadd>
   130f4:	00050a93          	mv	s5,a0
   130f8:	00050d13          	mv	s10,a0
   130fc:	00198993          	addi	s3,s3,1
   13100:	c75ff06f          	j	12d74 <_dtoa_r+0x8d0>
   13104:	00048513          	mv	a0,s1
   13108:	c84ff06f          	j	1258c <_dtoa_r+0xe8>
   1310c:	00100a93          	li	s5,1
   13110:	03512e23          	sw	s5,60(sp)
   13114:	000a8b13          	mv	s6,s5
   13118:	000a8993          	mv	s3,s5
   1311c:	04042223          	sw	zero,68(s0)
   13120:	00000593          	li	a1,0
   13124:	eb0ff06f          	j	127d4 <_dtoa_r+0x330>
   13128:	00200793          	li	a5,2
   1312c:	02012023          	sw	zero,32(sp)
   13130:	ecfa04e3          	beq	s4,a5,12ff8 <_dtoa_r+0xb54>
   13134:	04042223          	sw	zero,68(s0)
   13138:	00000593          	li	a1,0
   1313c:	00040513          	mv	a0,s0
   13140:	3cd010ef          	jal	14d0c <_Balloc>
   13144:	fff00b13          	li	s6,-1
   13148:	00100713          	li	a4,1
   1314c:	00050493          	mv	s1,a0
   13150:	04a42023          	sw	a0,64(s0)
   13154:	03612e23          	sw	s6,60(sp)
   13158:	00000993          	li	s3,0
   1315c:	02e12023          	sw	a4,32(sp)
   13160:	8e1ff06f          	j	12a40 <_dtoa_r+0x59c>
   13164:	00200793          	li	a5,2
   13168:	bd47d4e3          	ble	s4,a5,12d30 <_dtoa_r+0x88c>
   1316c:	300b1263          	bnez	s6,13470 <_dtoa_r+0xfcc>
   13170:	000c0593          	mv	a1,s8
   13174:	00000693          	li	a3,0
   13178:	00500613          	li	a2,5
   1317c:	00040513          	mv	a0,s0
   13180:	455010ef          	jal	14dd4 <__multadd>
   13184:	00050593          	mv	a1,a0
   13188:	00050c13          	mv	s8,a0
   1318c:	00090513          	mv	a0,s2
   13190:	430020ef          	jal	155c0 <__mcmp>
   13194:	03212823          	sw	s2,48(sp)
   13198:	e8a05ee3          	blez	a0,13034 <_dtoa_r+0xb90>
   1319c:	03100793          	li	a5,49
   131a0:	00148d93          	addi	s11,s1,1
   131a4:	00f48023          	sb	a5,0(s1)
   131a8:	001b8b93          	addi	s7,s7,1
   131ac:	e91ff06f          	j	1303c <_dtoa_r+0xb98>
   131b0:	03100793          	li	a5,49
   131b4:	001b8b93          	addi	s7,s7,1
   131b8:	00f48023          	sb	a5,0(s1)
   131bc:	db1ff06f          	j	12f6c <_dtoa_r+0xac8>
   131c0:	02012023          	sw	zero,32(sp)
   131c4:	dc8ff06f          	j	1278c <_dtoa_r+0x2e8>
   131c8:	8501b087          	fld	ft1,-1968(gp) # 1c5e0 <__wctomb+0x38>
   131cc:	d20d8053          	fcvt.d.w	ft0,s11
   131d0:	fcc006b7          	lui	a3,0xfcc00
   131d4:	0a0470c3          	fmadd.d	ft1,fs0,ft0,ft1
   131d8:	00113027          	fsd	ft1,0(sp)
   131dc:	00412783          	lw	a5,4(sp)
   131e0:	00012703          	lw	a4,0(sp)
   131e4:	00f687b3          	add	a5,a3,a5
   131e8:	00f12223          	sw	a5,4(sp)
   131ec:	8581b007          	fld	ft0,-1960(gp) # 1c5e8 <__wctomb+0x40>
   131f0:	00e12023          	sw	a4,0(sp)
   131f4:	00013087          	fld	ft1,0(sp)
   131f8:	0a047053          	fsub.d	ft0,fs0,ft0
   131fc:	a20097d3          	flt.d	a5,ft1,ft0
   13200:	1c079063          	bnez	a5,133c0 <_dtoa_r+0xf1c>
   13204:	221090d3          	fneg.d	ft1,ft1
   13208:	a21017d3          	flt.d	a5,ft0,ft1
   1320c:	82078ae3          	beqz	a5,12a40 <_dtoa_r+0x59c>
   13210:	00000c13          	li	s8,0
   13214:	00000a93          	li	s5,0
   13218:	e1dff06f          	j	13034 <_dtoa_r+0xb90>
   1321c:	00090593          	mv	a1,s2
   13220:	000c0613          	mv	a2,s8
   13224:	00040513          	mv	a0,s0
   13228:	110020ef          	jal	15338 <__pow5mult>
   1322c:	00050913          	mv	s2,a0
   13230:	9e1ff06f          	j	12c10 <_dtoa_r+0x76c>
   13234:	03812783          	lw	a5,56(sp)
   13238:	41870c33          	sub	s8,a4,s8
   1323c:	018787b3          	add	a5,a5,s8
   13240:	02f12c23          	sw	a5,56(sp)
   13244:	00070c13          	mv	s8,a4
   13248:	00000713          	li	a4,0
   1324c:	90dff06f          	j	12b58 <_dtoa_r+0x6b4>
   13250:	00051663          	bnez	a0,1325c <_dtoa_r+0xdb8>
   13254:	001cfc93          	andi	s9,s9,1
   13258:	ce0c96e3          	bnez	s9,12f44 <_dtoa_r+0xaa0>
   1325c:	03000693          	li	a3,48
   13260:	0080006f          	j	13268 <_dtoa_r+0xdc4>
   13264:	00070d93          	mv	s11,a4
   13268:	fffdc783          	lbu	a5,-1(s11)
   1326c:	fffd8713          	addi	a4,s11,-1
   13270:	fed78ae3          	beq	a5,a3,13264 <_dtoa_r+0xdc0>
   13274:	cf9ff06f          	j	12f6c <_dtoa_r+0xac8>
   13278:	03000793          	li	a5,48
   1327c:	00f48023          	sb	a5,0(s1)
   13280:	001b8b93          	addi	s7,s7,1
   13284:	fffdc783          	lbu	a5,-1(s11)
   13288:	8a9ff06f          	j	12b30 <_dtoa_r+0x68c>
   1328c:	417007b3          	neg	a5,s7
   13290:	01813407          	fld	fs0,24(sp)
   13294:	00200d93          	li	s11,2
   13298:	dc078c63          	beqz	a5,12870 <_dtoa_r+0x3cc>
   1329c:	00f7f713          	andi	a4,a5,15
   132a0:	00371693          	slli	a3,a4,0x3
   132a4:	0001a737          	lui	a4,0x1a
   132a8:	6c070713          	addi	a4,a4,1728 # 1a6c0 <__mprec_tens>
   132ac:	00e68733          	add	a4,a3,a4
   132b0:	00073007          	fld	ft0,0(a4)
   132b4:	4047d793          	srai	a5,a5,0x4
   132b8:	12047453          	fmul.d	fs0,fs0,ft0
   132bc:	da078a63          	beqz	a5,12870 <_dtoa_r+0x3cc>
   132c0:	0001a737          	lui	a4,0x1a
   132c4:	7b070713          	addi	a4,a4,1968 # 1a7b0 <__mprec_bigtens>
   132c8:	0017f693          	andi	a3,a5,1
   132cc:	4017d793          	srai	a5,a5,0x1
   132d0:	00068863          	beqz	a3,132e0 <_dtoa_r+0xe3c>
   132d4:	00073007          	fld	ft0,0(a4)
   132d8:	001d8d93          	addi	s11,s11,1
   132dc:	12047453          	fmul.d	fs0,fs0,ft0
   132e0:	00870713          	addi	a4,a4,8
   132e4:	fe0792e3          	bnez	a5,132c8 <_dtoa_r+0xe24>
   132e8:	d88ff06f          	j	12870 <_dtoa_r+0x3cc>
   132ec:	004aa583          	lw	a1,4(s5)
   132f0:	00040513          	mv	a0,s0
   132f4:	219010ef          	jal	14d0c <_Balloc>
   132f8:	010aa603          	lw	a2,16(s5)
   132fc:	00050993          	mv	s3,a0
   13300:	00ca8593          	addi	a1,s5,12
   13304:	00260613          	addi	a2,a2,2
   13308:	00261613          	slli	a2,a2,0x2
   1330c:	00c50513          	addi	a0,a0,12
   13310:	7f8010ef          	jal	14b08 <memcpy>
   13314:	00100613          	li	a2,1
   13318:	00098593          	mv	a1,s3
   1331c:	00040513          	mv	a0,s0
   13320:	150020ef          	jal	15470 <__lshift>
   13324:	00050d13          	mv	s10,a0
   13328:	a35ff06f          	j	12d5c <_dtoa_r+0x8b8>
   1332c:	fff68593          	addi	a1,a3,-1 # fcbfffff <_gp+0xfcbe326f>
   13330:	0001a637          	lui	a2,0x1a
   13334:	00359513          	slli	a0,a1,0x3
   13338:	6c060613          	addi	a2,a2,1728 # 1a6c0 <__mprec_tens>
   1333c:	00f12223          	sw	a5,4(sp)
   13340:	00c50633          	add	a2,a0,a2
   13344:	00e12023          	sw	a4,0(sp)
   13348:	00063187          	fld	ft3,0(a2)
   1334c:	00013107          	fld	ft2,0(sp)
   13350:	c2041653          	fcvt.w.d	a2,fs0,rtz
   13354:	d2060053          	fcvt.d.w	ft0,a2
   13358:	00100793          	li	a5,1
   1335c:	03060613          	addi	a2,a2,48
   13360:	1221f1d3          	fmul.d	ft3,ft3,ft2
   13364:	0a047053          	fsub.d	ft0,fs0,ft0
   13368:	00148d93          	addi	s11,s1,1
   1336c:	00c48023          	sb	a2,0(s1)
   13370:	02f68a63          	beq	a3,a5,133a4 <_dtoa_r+0xf00>
   13374:	8481b107          	fld	ft2,-1976(gp) # 1c5d8 <__wctomb+0x30>
   13378:	00d486b3          	add	a3,s1,a3
   1337c:	000d8713          	mv	a4,s11
   13380:	12207053          	fmul.d	ft0,ft0,ft2
   13384:	00170713          	addi	a4,a4,1
   13388:	c20017d3          	fcvt.w.d	a5,ft0,rtz
   1338c:	d20780d3          	fcvt.d.w	ft1,a5
   13390:	03078793          	addi	a5,a5,48
   13394:	0a107053          	fsub.d	ft0,ft0,ft1
   13398:	fef70fa3          	sb	a5,-1(a4)
   1339c:	fee692e3          	bne	a3,a4,13380 <_dtoa_r+0xedc>
   133a0:	00bd8db3          	add	s11,s11,a1
   133a4:	8601b087          	fld	ft1,-1952(gp) # 1c5f0 <__wctomb+0x48>
   133a8:	0211f153          	fadd.d	ft2,ft3,ft1
   133ac:	a20117d3          	flt.d	a5,ft2,ft0
   133b0:	0c078463          	beqz	a5,13478 <_dtoa_r+0xfd4>
   133b4:	fffdc783          	lbu	a5,-1(s11)
   133b8:	000a8b93          	mv	s7,s5
   133bc:	f58ff06f          	j	12b14 <_dtoa_r+0x670>
   133c0:	00000c13          	li	s8,0
   133c4:	00000a93          	li	s5,0
   133c8:	dd5ff06f          	j	1319c <_dtoa_r+0xcf8>
   133cc:	03900793          	li	a5,57
   133d0:	cefc86e3          	beq	s9,a5,130bc <_dtoa_r+0xc18>
   133d4:	01812783          	lw	a5,24(sp)
   133d8:	001c8c93          	addi	s9,s9,1
   133dc:	000a8993          	mv	s3,s5
   133e0:	00178d93          	addi	s11,a5,1
   133e4:	01978023          	sb	s9,0(a5)
   133e8:	000d0a93          	mv	s5,s10
   133ec:	03212823          	sw	s2,48(sp)
   133f0:	b7dff06f          	j	12f6c <_dtoa_r+0xac8>
   133f4:	000a8993          	mv	s3,s5
   133f8:	000d0a93          	mv	s5,s10
   133fc:	b29ff06f          	j	12f24 <_dtoa_r+0xa80>
   13400:	416c8db3          	sub	s11,s9,s6
   13404:	00000793          	li	a5,0
   13408:	f5cff06f          	j	12b64 <_dtoa_r+0x6c0>
   1340c:	00100b13          	li	s6,1
   13410:	b0dff06f          	j	12f1c <_dtoa_r+0xa78>
   13414:	04812683          	lw	a3,72(sp)
   13418:	03600793          	li	a5,54
   1341c:	000c0713          	mv	a4,s8
   13420:	40d787b3          	sub	a5,a5,a3
   13424:	000c8d93          	mv	s11,s9
   13428:	f3cff06f          	j	12b64 <_dtoa_r+0x6c0>
   1342c:	d80b0ee3          	beqz	s6,131c8 <_dtoa_r+0xd24>
   13430:	03c12783          	lw	a5,60(sp)
   13434:	e0f05663          	blez	a5,12a40 <_dtoa_r+0x59c>
   13438:	8481b007          	fld	ft0,-1976(gp) # 1c5d8 <__wctomb+0x30>
   1343c:	8501b087          	fld	ft1,-1968(gp) # 1c5e0 <__wctomb+0x38>
   13440:	12047453          	fmul.d	fs0,fs0,ft0
   13444:	001d8d93          	addi	s11,s11,1
   13448:	d20d8053          	fcvt.d.w	ft0,s11
   1344c:	fcc00637          	lui	a2,0xfcc00
   13450:	fffb8a93          	addi	s5,s7,-1
   13454:	03c12683          	lw	a3,60(sp)
   13458:	0a0470c3          	fmadd.d	ft1,fs0,ft0,ft1
   1345c:	00113027          	fsd	ft1,0(sp)
   13460:	00412783          	lw	a5,4(sp)
   13464:	00012703          	lw	a4,0(sp)
   13468:	00f607b3          	add	a5,a2,a5
   1346c:	c44ff06f          	j	128b0 <_dtoa_r+0x40c>
   13470:	03212823          	sw	s2,48(sp)
   13474:	bc1ff06f          	j	13034 <_dtoa_r+0xb90>
   13478:	0a30f1d3          	fsub.d	ft3,ft1,ft3
   1347c:	03000693          	li	a3,48
   13480:	a23017d3          	flt.d	a5,ft0,ft3
   13484:	00079663          	bnez	a5,13490 <_dtoa_r+0xfec>
   13488:	db8ff06f          	j	12a40 <_dtoa_r+0x59c>
   1348c:	00070d93          	mv	s11,a4
   13490:	fffdc783          	lbu	a5,-1(s11)
   13494:	fffd8713          	addi	a4,s11,-1
   13498:	fed78ae3          	beq	a5,a3,1348c <_dtoa_r+0xfe8>
   1349c:	000a8b93          	mv	s7,s5
   134a0:	ce8ff06f          	j	12988 <_dtoa_r+0x4e4>
   134a4:	000a8b93          	mv	s7,s5
   134a8:	e6cff06f          	j	12b14 <_dtoa_r+0x670>
   134ac:	bc0514e3          	bnez	a0,13074 <_dtoa_r+0xbd0>
   134b0:	001cf793          	andi	a5,s9,1
   134b4:	bc0780e3          	beqz	a5,13074 <_dtoa_r+0xbd0>
   134b8:	bfdff06f          	j	130b4 <_dtoa_r+0xc10>
   134bc:	000a8593          	mv	a1,s5
   134c0:	00000693          	li	a3,0
   134c4:	00a00613          	li	a2,10
   134c8:	00040513          	mv	a0,s0
   134cc:	109010ef          	jal	14dd4 <__multadd>
   134d0:	03c12783          	lw	a5,60(sp)
   134d4:	00050a93          	mv	s5,a0
   134d8:	00078b13          	mv	s6,a5
   134dc:	84f04ee3          	bgtz	a5,12d38 <_dtoa_r+0x894>
   134e0:	00200793          	li	a5,2
   134e4:	0147ce63          	blt	a5,s4,13500 <_dtoa_r+0x105c>
   134e8:	03c12b03          	lw	s6,60(sp)
   134ec:	84dff06f          	j	12d38 <_dtoa_r+0x894>
   134f0:	80e782e3          	beq	a5,a4,12cf4 <_dtoa_r+0x850>
   134f4:	03c00793          	li	a5,60
   134f8:	40a78533          	sub	a0,a5,a0
   134fc:	981ff06f          	j	12e7c <_dtoa_r+0x9d8>
   13500:	03c12b03          	lw	s6,60(sp)
   13504:	c69ff06f          	j	1316c <_dtoa_r+0xcc8>

00013508 <_fflush_r>:
   13508:	fe010113          	addi	sp,sp,-32
   1350c:	00812c23          	sw	s0,24(sp)
   13510:	01312623          	sw	s3,12(sp)
   13514:	00112e23          	sw	ra,28(sp)
   13518:	00912a23          	sw	s1,20(sp)
   1351c:	01212823          	sw	s2,16(sp)
   13520:	00050993          	mv	s3,a0
   13524:	00058413          	mv	s0,a1
   13528:	00050663          	beqz	a0,13534 <_fflush_r+0x2c>
   1352c:	03852783          	lw	a5,56(a0)
   13530:	18078863          	beqz	a5,136c0 <_fflush_r+0x1b8>
   13534:	00c41783          	lh	a5,12(s0)
   13538:	10078063          	beqz	a5,13638 <_fflush_r+0x130>
   1353c:	0087f713          	andi	a4,a5,8
   13540:	10071c63          	bnez	a4,13658 <_fflush_r+0x150>
   13544:	00001737          	lui	a4,0x1
   13548:	00442683          	lw	a3,4(s0)
   1354c:	80070713          	addi	a4,a4,-2048 # 800 <_ftext-0xf800>
   13550:	00e7e7b3          	or	a5,a5,a4
   13554:	00f41623          	sh	a5,12(s0)
   13558:	1ad05663          	blez	a3,13704 <_fflush_r+0x1fc>
   1355c:	02842803          	lw	a6,40(s0)
   13560:	0c080c63          	beqz	a6,13638 <_fflush_r+0x130>
   13564:	01079793          	slli	a5,a5,0x10
   13568:	0107d793          	srli	a5,a5,0x10
   1356c:	01379693          	slli	a3,a5,0x13
   13570:	0009a483          	lw	s1,0(s3)
   13574:	0009a023          	sw	zero,0(s3)
   13578:	1406dc63          	bgez	a3,136d0 <_fflush_r+0x1c8>
   1357c:	05042603          	lw	a2,80(s0)
   13580:	41f65693          	srai	a3,a2,0x1f
   13584:	0047f793          	andi	a5,a5,4
   13588:	04078263          	beqz	a5,135cc <_fflush_r+0xc4>
   1358c:	00442503          	lw	a0,4(s0)
   13590:	03042703          	lw	a4,48(s0)
   13594:	40a607b3          	sub	a5,a2,a0
   13598:	41f55513          	srai	a0,a0,0x1f
   1359c:	00f635b3          	sltu	a1,a2,a5
   135a0:	40a686b3          	sub	a3,a3,a0
   135a4:	00078613          	mv	a2,a5
   135a8:	40b686b3          	sub	a3,a3,a1
   135ac:	02070063          	beqz	a4,135cc <_fflush_r+0xc4>
   135b0:	03c42503          	lw	a0,60(s0)
   135b4:	40a787b3          	sub	a5,a5,a0
   135b8:	41f55513          	srai	a0,a0,0x1f
   135bc:	00f63733          	sltu	a4,a2,a5
   135c0:	40a686b3          	sub	a3,a3,a0
   135c4:	00078613          	mv	a2,a5
   135c8:	40e686b3          	sub	a3,a3,a4
   135cc:	01c42583          	lw	a1,28(s0)
   135d0:	00000713          	li	a4,0
   135d4:	00098513          	mv	a0,s3
   135d8:	000800e7          	jalr	a6
   135dc:	fff00793          	li	a5,-1
   135e0:	12f50863          	beq	a0,a5,13710 <_fflush_r+0x208>
   135e4:	00c45683          	lhu	a3,12(s0)
   135e8:	fffff7b7          	lui	a5,0xfffff
   135ec:	7ff78793          	addi	a5,a5,2047 # fffff7ff <_gp+0xfffe2a6f>
   135f0:	01042703          	lw	a4,16(s0)
   135f4:	00f6f7b3          	and	a5,a3,a5
   135f8:	01079793          	slli	a5,a5,0x10
   135fc:	4107d793          	srai	a5,a5,0x10
   13600:	00e42023          	sw	a4,0(s0)
   13604:	01379713          	slli	a4,a5,0x13
   13608:	00f41623          	sh	a5,12(s0)
   1360c:	00042223          	sw	zero,4(s0)
   13610:	00075463          	bgez	a4,13618 <_fflush_r+0x110>
   13614:	04a42823          	sw	a0,80(s0)
   13618:	03042583          	lw	a1,48(s0)
   1361c:	0099a023          	sw	s1,0(s3)
   13620:	00058c63          	beqz	a1,13638 <_fflush_r+0x130>
   13624:	04040793          	addi	a5,s0,64
   13628:	00f58663          	beq	a1,a5,13634 <_fflush_r+0x12c>
   1362c:	00098513          	mv	a0,s3
   13630:	608000ef          	jal	13c38 <_free_r>
   13634:	02042823          	sw	zero,48(s0)
   13638:	00000513          	li	a0,0
   1363c:	01c12083          	lw	ra,28(sp)
   13640:	01812403          	lw	s0,24(sp)
   13644:	01412483          	lw	s1,20(sp)
   13648:	01012903          	lw	s2,16(sp)
   1364c:	00c12983          	lw	s3,12(sp)
   13650:	02010113          	addi	sp,sp,32
   13654:	00008067          	ret
   13658:	01042903          	lw	s2,16(s0)
   1365c:	fc090ee3          	beqz	s2,13638 <_fflush_r+0x130>
   13660:	00042483          	lw	s1,0(s0)
   13664:	0037f793          	andi	a5,a5,3
   13668:	01242023          	sw	s2,0(s0)
   1366c:	412484b3          	sub	s1,s1,s2
   13670:	00000713          	li	a4,0
   13674:	04078a63          	beqz	a5,136c8 <_fflush_r+0x1c0>
   13678:	00e42423          	sw	a4,8(s0)
   1367c:	00904863          	bgtz	s1,1368c <_fflush_r+0x184>
   13680:	fb9ff06f          	j	13638 <_fflush_r+0x130>
   13684:	00a90933          	add	s2,s2,a0
   13688:	fa9058e3          	blez	s1,13638 <_fflush_r+0x130>
   1368c:	02442783          	lw	a5,36(s0)
   13690:	01c42583          	lw	a1,28(s0)
   13694:	00048693          	mv	a3,s1
   13698:	00090613          	mv	a2,s2
   1369c:	00098513          	mv	a0,s3
   136a0:	000780e7          	jalr	a5
   136a4:	40a484b3          	sub	s1,s1,a0
   136a8:	fca04ee3          	bgtz	a0,13684 <_fflush_r+0x17c>
   136ac:	00c45783          	lhu	a5,12(s0)
   136b0:	fff00513          	li	a0,-1
   136b4:	0407e793          	ori	a5,a5,64
   136b8:	00f41623          	sh	a5,12(s0)
   136bc:	f81ff06f          	j	1363c <_fflush_r+0x134>
   136c0:	438000ef          	jal	13af8 <__sinit>
   136c4:	e71ff06f          	j	13534 <_fflush_r+0x2c>
   136c8:	01442703          	lw	a4,20(s0)
   136cc:	fadff06f          	j	13678 <_fflush_r+0x170>
   136d0:	01c42583          	lw	a1,28(s0)
   136d4:	00000613          	li	a2,0
   136d8:	00000693          	li	a3,0
   136dc:	00100713          	li	a4,1
   136e0:	00098513          	mv	a0,s3
   136e4:	000800e7          	jalr	a6
   136e8:	fff00793          	li	a5,-1
   136ec:	00050613          	mv	a2,a0
   136f0:	00058693          	mv	a3,a1
   136f4:	06f50c63          	beq	a0,a5,1376c <_fflush_r+0x264>
   136f8:	00c45783          	lhu	a5,12(s0)
   136fc:	02842803          	lw	a6,40(s0)
   13700:	e85ff06f          	j	13584 <_fflush_r+0x7c>
   13704:	03c42703          	lw	a4,60(s0)
   13708:	e4e04ae3          	bgtz	a4,1355c <_fflush_r+0x54>
   1370c:	f2dff06f          	j	13638 <_fflush_r+0x130>
   13710:	eca59ae3          	bne	a1,a0,135e4 <_fflush_r+0xdc>
   13714:	0009a703          	lw	a4,0(s3)
   13718:	01d00793          	li	a5,29
   1371c:	f8e7e8e3          	bltu	a5,a4,136ac <_fflush_r+0x1a4>
   13720:	204007b7          	lui	a5,0x20400
   13724:	00178793          	addi	a5,a5,1 # 20400001 <_gp+0x203e3271>
   13728:	00e7d7b3          	srl	a5,a5,a4
   1372c:	0017f793          	andi	a5,a5,1
   13730:	f6078ee3          	beqz	a5,136ac <_fflush_r+0x1a4>
   13734:	00c45603          	lhu	a2,12(s0)
   13738:	fffff7b7          	lui	a5,0xfffff
   1373c:	7ff78793          	addi	a5,a5,2047 # fffff7ff <_gp+0xfffe2a6f>
   13740:	01042683          	lw	a3,16(s0)
   13744:	00f677b3          	and	a5,a2,a5
   13748:	01079793          	slli	a5,a5,0x10
   1374c:	4107d793          	srai	a5,a5,0x10
   13750:	00d42023          	sw	a3,0(s0)
   13754:	01379693          	slli	a3,a5,0x13
   13758:	00f41623          	sh	a5,12(s0)
   1375c:	00042223          	sw	zero,4(s0)
   13760:	ea06dce3          	bgez	a3,13618 <_fflush_r+0x110>
   13764:	ea071ae3          	bnez	a4,13618 <_fflush_r+0x110>
   13768:	eadff06f          	j	13614 <_fflush_r+0x10c>
   1376c:	f8a596e3          	bne	a1,a0,136f8 <_fflush_r+0x1f0>
   13770:	0009a783          	lw	a5,0(s3)
   13774:	f80782e3          	beqz	a5,136f8 <_fflush_r+0x1f0>
   13778:	01d00713          	li	a4,29
   1377c:	00e78663          	beq	a5,a4,13788 <_fflush_r+0x280>
   13780:	01600713          	li	a4,22
   13784:	00e79863          	bne	a5,a4,13794 <_fflush_r+0x28c>
   13788:	0099a023          	sw	s1,0(s3)
   1378c:	00000513          	li	a0,0
   13790:	eadff06f          	j	1363c <_fflush_r+0x134>
   13794:	00c45783          	lhu	a5,12(s0)
   13798:	00058513          	mv	a0,a1
   1379c:	0407e793          	ori	a5,a5,64
   137a0:	00f41623          	sh	a5,12(s0)
   137a4:	e99ff06f          	j	1363c <_fflush_r+0x134>

000137a8 <fflush>:
   137a8:	00050593          	mv	a1,a0
   137ac:	00050663          	beqz	a0,137b8 <fflush+0x10>
   137b0:	8081a503          	lw	a0,-2040(gp) # 1c598 <_impure_ptr>
   137b4:	d55ff06f          	j	13508 <_fflush_r>
   137b8:	8041a503          	lw	a0,-2044(gp) # 1c594 <_global_impure_ptr>
   137bc:	000135b7          	lui	a1,0x13
   137c0:	50858593          	addi	a1,a1,1288 # 13508 <_fflush_r>
   137c4:	7f40006f          	j	13fb8 <_fwalk_reent>

000137c8 <__fp_unlock>:
   137c8:	00000513          	li	a0,0
   137cc:	00008067          	ret

000137d0 <_cleanup_r>:
   137d0:	000175b7          	lui	a1,0x17
   137d4:	3f858593          	addi	a1,a1,1016 # 173f8 <fclose>
   137d8:	73c0006f          	j	13f14 <_fwalk>

000137dc <__sinit.part.1>:
   137dc:	fd010113          	addi	sp,sp,-48
   137e0:	000137b7          	lui	a5,0x13
   137e4:	02812423          	sw	s0,40(sp)
   137e8:	7d078793          	addi	a5,a5,2000 # 137d0 <_cleanup_r>
   137ec:	00452403          	lw	s0,4(a0)
   137f0:	02112623          	sw	ra,44(sp)
   137f4:	02912223          	sw	s1,36(sp)
   137f8:	03212023          	sw	s2,32(sp)
   137fc:	01312e23          	sw	s3,28(sp)
   13800:	01412c23          	sw	s4,24(sp)
   13804:	01512a23          	sw	s5,20(sp)
   13808:	01612823          	sw	s6,16(sp)
   1380c:	01712623          	sw	s7,12(sp)
   13810:	02f52e23          	sw	a5,60(a0)
   13814:	00300793          	li	a5,3
   13818:	2ef52223          	sw	a5,740(a0)
   1381c:	2ec50713          	addi	a4,a0,748
   13820:	00100b93          	li	s7,1
   13824:	00400793          	li	a5,4
   13828:	2ee52423          	sw	a4,744(a0)
   1382c:	03752c23          	sw	s7,56(a0)
   13830:	2e052023          	sw	zero,736(a0)
   13834:	00050913          	mv	s2,a0
   13838:	00f41623          	sh	a5,12(s0)
   1383c:	00800613          	li	a2,8
   13840:	00000593          	li	a1,0
   13844:	00042023          	sw	zero,0(s0)
   13848:	00042223          	sw	zero,4(s0)
   1384c:	00042423          	sw	zero,8(s0)
   13850:	06042223          	sw	zero,100(s0)
   13854:	00041723          	sh	zero,14(s0)
   13858:	00042823          	sw	zero,16(s0)
   1385c:	00042a23          	sw	zero,20(s0)
   13860:	00042c23          	sw	zero,24(s0)
   13864:	05c40513          	addi	a0,s0,92
   13868:	3c0010ef          	jal	14c28 <memset>
   1386c:	00892483          	lw	s1,8(s2)
   13870:	00016b37          	lui	s6,0x16
   13874:	00016ab7          	lui	s5,0x16
   13878:	00016a37          	lui	s4,0x16
   1387c:	000169b7          	lui	s3,0x16
   13880:	d7cb0b13          	addi	s6,s6,-644 # 15d7c <__sread>
   13884:	de8a8a93          	addi	s5,s5,-536 # 15de8 <__swrite>
   13888:	e60a0a13          	addi	s4,s4,-416 # 15e60 <__sseek>
   1388c:	ec898993          	addi	s3,s3,-312 # 15ec8 <__sclose>
   13890:	00900793          	li	a5,9
   13894:	03642023          	sw	s6,32(s0)
   13898:	03542223          	sw	s5,36(s0)
   1389c:	03442423          	sw	s4,40(s0)
   138a0:	03342623          	sw	s3,44(s0)
   138a4:	00842e23          	sw	s0,28(s0)
   138a8:	00800613          	li	a2,8
   138ac:	00f49623          	sh	a5,12(s1)
   138b0:	01749723          	sh	s7,14(s1)
   138b4:	00000593          	li	a1,0
   138b8:	0004a023          	sw	zero,0(s1)
   138bc:	0004a223          	sw	zero,4(s1)
   138c0:	0004a423          	sw	zero,8(s1)
   138c4:	0604a223          	sw	zero,100(s1)
   138c8:	0004a823          	sw	zero,16(s1)
   138cc:	0004aa23          	sw	zero,20(s1)
   138d0:	0004ac23          	sw	zero,24(s1)
   138d4:	05c48513          	addi	a0,s1,92
   138d8:	350010ef          	jal	14c28 <memset>
   138dc:	00c92403          	lw	s0,12(s2)
   138e0:	01200793          	li	a5,18
   138e4:	0364a023          	sw	s6,32(s1)
   138e8:	0354a223          	sw	s5,36(s1)
   138ec:	0344a423          	sw	s4,40(s1)
   138f0:	0334a623          	sw	s3,44(s1)
   138f4:	0094ae23          	sw	s1,28(s1)
   138f8:	00f41623          	sh	a5,12(s0)
   138fc:	00200793          	li	a5,2
   13900:	00042023          	sw	zero,0(s0)
   13904:	00042223          	sw	zero,4(s0)
   13908:	00042423          	sw	zero,8(s0)
   1390c:	06042223          	sw	zero,100(s0)
   13910:	00f41723          	sh	a5,14(s0)
   13914:	00042823          	sw	zero,16(s0)
   13918:	00042a23          	sw	zero,20(s0)
   1391c:	00042c23          	sw	zero,24(s0)
   13920:	05c40513          	addi	a0,s0,92
   13924:	00800613          	li	a2,8
   13928:	00000593          	li	a1,0
   1392c:	2fc010ef          	jal	14c28 <memset>
   13930:	02c12083          	lw	ra,44(sp)
   13934:	03642023          	sw	s6,32(s0)
   13938:	03542223          	sw	s5,36(s0)
   1393c:	03442423          	sw	s4,40(s0)
   13940:	03342623          	sw	s3,44(s0)
   13944:	00842e23          	sw	s0,28(s0)
   13948:	02412483          	lw	s1,36(sp)
   1394c:	02812403          	lw	s0,40(sp)
   13950:	02012903          	lw	s2,32(sp)
   13954:	01c12983          	lw	s3,28(sp)
   13958:	01812a03          	lw	s4,24(sp)
   1395c:	01412a83          	lw	s5,20(sp)
   13960:	01012b03          	lw	s6,16(sp)
   13964:	00c12b83          	lw	s7,12(sp)
   13968:	03010113          	addi	sp,sp,48
   1396c:	00008067          	ret

00013970 <__fp_lock>:
   13970:	00000513          	li	a0,0
   13974:	00008067          	ret

00013978 <__sfmoreglue>:
   13978:	ff010113          	addi	sp,sp,-16
   1397c:	00912223          	sw	s1,4(sp)
   13980:	06800493          	li	s1,104
   13984:	029584b3          	mul	s1,a1,s1
   13988:	01212023          	sw	s2,0(sp)
   1398c:	00058913          	mv	s2,a1
   13990:	00812423          	sw	s0,8(sp)
   13994:	00112623          	sw	ra,12(sp)
   13998:	00c48593          	addi	a1,s1,12
   1399c:	121000ef          	jal	142bc <_malloc_r>
   139a0:	00050413          	mv	s0,a0
   139a4:	02050063          	beqz	a0,139c4 <__sfmoreglue+0x4c>
   139a8:	00c50513          	addi	a0,a0,12
   139ac:	00042023          	sw	zero,0(s0)
   139b0:	01242223          	sw	s2,4(s0)
   139b4:	00a42423          	sw	a0,8(s0)
   139b8:	00048613          	mv	a2,s1
   139bc:	00000593          	li	a1,0
   139c0:	268010ef          	jal	14c28 <memset>
   139c4:	00c12083          	lw	ra,12(sp)
   139c8:	00040513          	mv	a0,s0
   139cc:	00412483          	lw	s1,4(sp)
   139d0:	00812403          	lw	s0,8(sp)
   139d4:	00012903          	lw	s2,0(sp)
   139d8:	01010113          	addi	sp,sp,16
   139dc:	00008067          	ret

000139e0 <__sfp>:
   139e0:	fe010113          	addi	sp,sp,-32
   139e4:	01212823          	sw	s2,16(sp)
   139e8:	8041a903          	lw	s2,-2044(gp) # 1c594 <_global_impure_ptr>
   139ec:	01312623          	sw	s3,12(sp)
   139f0:	00112e23          	sw	ra,28(sp)
   139f4:	03892783          	lw	a5,56(s2)
   139f8:	00812c23          	sw	s0,24(sp)
   139fc:	00912a23          	sw	s1,20(sp)
   13a00:	00050993          	mv	s3,a0
   13a04:	00079663          	bnez	a5,13a10 <__sfp+0x30>
   13a08:	00090513          	mv	a0,s2
   13a0c:	dd1ff0ef          	jal	137dc <__sinit.part.1>
   13a10:	2e090913          	addi	s2,s2,736
   13a14:	fff00493          	li	s1,-1
   13a18:	00492783          	lw	a5,4(s2)
   13a1c:	00892403          	lw	s0,8(s2)
   13a20:	fff78793          	addi	a5,a5,-1
   13a24:	0007da63          	bgez	a5,13a38 <__sfp+0x58>
   13a28:	0840006f          	j	13aac <__sfp+0xcc>
   13a2c:	fff78793          	addi	a5,a5,-1
   13a30:	06840413          	addi	s0,s0,104
   13a34:	06978c63          	beq	a5,s1,13aac <__sfp+0xcc>
   13a38:	00c41703          	lh	a4,12(s0)
   13a3c:	fe0718e3          	bnez	a4,13a2c <__sfp+0x4c>
   13a40:	fff00793          	li	a5,-1
   13a44:	00f41723          	sh	a5,14(s0)
   13a48:	00100793          	li	a5,1
   13a4c:	00f41623          	sh	a5,12(s0)
   13a50:	06042223          	sw	zero,100(s0)
   13a54:	00042023          	sw	zero,0(s0)
   13a58:	00042423          	sw	zero,8(s0)
   13a5c:	00042223          	sw	zero,4(s0)
   13a60:	00042823          	sw	zero,16(s0)
   13a64:	00042a23          	sw	zero,20(s0)
   13a68:	00042c23          	sw	zero,24(s0)
   13a6c:	00800613          	li	a2,8
   13a70:	00000593          	li	a1,0
   13a74:	05c40513          	addi	a0,s0,92
   13a78:	1b0010ef          	jal	14c28 <memset>
   13a7c:	02042823          	sw	zero,48(s0)
   13a80:	02042a23          	sw	zero,52(s0)
   13a84:	04042223          	sw	zero,68(s0)
   13a88:	04042423          	sw	zero,72(s0)
   13a8c:	00040513          	mv	a0,s0
   13a90:	01c12083          	lw	ra,28(sp)
   13a94:	01812403          	lw	s0,24(sp)
   13a98:	01412483          	lw	s1,20(sp)
   13a9c:	01012903          	lw	s2,16(sp)
   13aa0:	00c12983          	lw	s3,12(sp)
   13aa4:	02010113          	addi	sp,sp,32
   13aa8:	00008067          	ret
   13aac:	00092783          	lw	a5,0(s2)
   13ab0:	00078663          	beqz	a5,13abc <__sfp+0xdc>
   13ab4:	00078913          	mv	s2,a5
   13ab8:	f61ff06f          	j	13a18 <__sfp+0x38>
   13abc:	00400593          	li	a1,4
   13ac0:	00098513          	mv	a0,s3
   13ac4:	eb5ff0ef          	jal	13978 <__sfmoreglue>
   13ac8:	00a92023          	sw	a0,0(s2)
   13acc:	00050663          	beqz	a0,13ad8 <__sfp+0xf8>
   13ad0:	00050913          	mv	s2,a0
   13ad4:	f45ff06f          	j	13a18 <__sfp+0x38>
   13ad8:	00c00793          	li	a5,12
   13adc:	00f9a023          	sw	a5,0(s3)
   13ae0:	00000513          	li	a0,0
   13ae4:	fadff06f          	j	13a90 <__sfp+0xb0>

00013ae8 <_cleanup>:
   13ae8:	8041a503          	lw	a0,-2044(gp) # 1c594 <_global_impure_ptr>
   13aec:	000175b7          	lui	a1,0x17
   13af0:	3f858593          	addi	a1,a1,1016 # 173f8 <fclose>
   13af4:	4200006f          	j	13f14 <_fwalk>

00013af8 <__sinit>:
   13af8:	03852783          	lw	a5,56(a0)
   13afc:	00078463          	beqz	a5,13b04 <__sinit+0xc>
   13b00:	00008067          	ret
   13b04:	cd9ff06f          	j	137dc <__sinit.part.1>

00013b08 <__sfp_lock_acquire>:
   13b08:	00008067          	ret

00013b0c <__sfp_lock_release>:
   13b0c:	00008067          	ret

00013b10 <__sinit_lock_acquire>:
   13b10:	00008067          	ret

00013b14 <__sinit_lock_release>:
   13b14:	00008067          	ret

00013b18 <__fp_lock_all>:
   13b18:	8081a503          	lw	a0,-2040(gp) # 1c598 <_impure_ptr>
   13b1c:	000145b7          	lui	a1,0x14
   13b20:	97058593          	addi	a1,a1,-1680 # 13970 <__fp_lock>
   13b24:	3f00006f          	j	13f14 <_fwalk>

00013b28 <__fp_unlock_all>:
   13b28:	8081a503          	lw	a0,-2040(gp) # 1c598 <_impure_ptr>
   13b2c:	000135b7          	lui	a1,0x13
   13b30:	7c858593          	addi	a1,a1,1992 # 137c8 <__fp_unlock>
   13b34:	3e00006f          	j	13f14 <_fwalk>

00013b38 <_malloc_trim_r>:
   13b38:	fe010113          	addi	sp,sp,-32
   13b3c:	01212823          	sw	s2,16(sp)
   13b40:	0001c937          	lui	s2,0x1c
   13b44:	18890913          	addi	s2,s2,392 # 1c188 <__malloc_av_>
   13b48:	00812c23          	sw	s0,24(sp)
   13b4c:	00912a23          	sw	s1,20(sp)
   13b50:	00058413          	mv	s0,a1
   13b54:	01312623          	sw	s3,12(sp)
   13b58:	00112e23          	sw	ra,28(sp)
   13b5c:	00050993          	mv	s3,a0
   13b60:	1a4010ef          	jal	14d04 <__malloc_lock>
   13b64:	00892703          	lw	a4,8(s2)
   13b68:	000017b7          	lui	a5,0x1
   13b6c:	fef78593          	addi	a1,a5,-17 # fef <_ftext-0xf011>
   13b70:	00472483          	lw	s1,4(a4)
   13b74:	ffc4f493          	andi	s1,s1,-4
   13b78:	40848433          	sub	s0,s1,s0
   13b7c:	00b40433          	add	s0,s0,a1
   13b80:	00c45413          	srli	s0,s0,0xc
   13b84:	fff40413          	addi	s0,s0,-1
   13b88:	00c41413          	slli	s0,s0,0xc
   13b8c:	00f44c63          	blt	s0,a5,13ba4 <_malloc_trim_r+0x6c>
   13b90:	00000513          	li	a0,0
   13b94:	435040ef          	jal	187c8 <sbrk>
   13b98:	00892783          	lw	a5,8(s2)
   13b9c:	009787b3          	add	a5,a5,s1
   13ba0:	02f50663          	beq	a0,a5,13bcc <_malloc_trim_r+0x94>
   13ba4:	00098513          	mv	a0,s3
   13ba8:	160010ef          	jal	14d08 <__malloc_unlock>
   13bac:	00000513          	li	a0,0
   13bb0:	01c12083          	lw	ra,28(sp)
   13bb4:	01812403          	lw	s0,24(sp)
   13bb8:	01412483          	lw	s1,20(sp)
   13bbc:	01012903          	lw	s2,16(sp)
   13bc0:	00c12983          	lw	s3,12(sp)
   13bc4:	02010113          	addi	sp,sp,32
   13bc8:	00008067          	ret
   13bcc:	40800533          	neg	a0,s0
   13bd0:	3f9040ef          	jal	187c8 <sbrk>
   13bd4:	fff00793          	li	a5,-1
   13bd8:	02f50863          	beq	a0,a5,13c08 <_malloc_trim_r+0xd0>
   13bdc:	8b41a783          	lw	a5,-1868(gp) # 1c644 <__malloc_current_mallinfo>
   13be0:	00892683          	lw	a3,8(s2)
   13be4:	408484b3          	sub	s1,s1,s0
   13be8:	0014e493          	ori	s1,s1,1
   13bec:	40878433          	sub	s0,a5,s0
   13bf0:	00098513          	mv	a0,s3
   13bf4:	0096a223          	sw	s1,4(a3)
   13bf8:	8a81aa23          	sw	s0,-1868(gp) # 1c644 <__malloc_current_mallinfo>
   13bfc:	10c010ef          	jal	14d08 <__malloc_unlock>
   13c00:	00100513          	li	a0,1
   13c04:	fadff06f          	j	13bb0 <_malloc_trim_r+0x78>
   13c08:	00000513          	li	a0,0
   13c0c:	3bd040ef          	jal	187c8 <sbrk>
   13c10:	00892703          	lw	a4,8(s2)
   13c14:	00f00693          	li	a3,15
   13c18:	40e507b3          	sub	a5,a0,a4
   13c1c:	f8f6d4e3          	ble	a5,a3,13ba4 <_malloc_trim_r+0x6c>
   13c20:	8101a683          	lw	a3,-2032(gp) # 1c5a0 <__malloc_sbrk_base>
   13c24:	0017e793          	ori	a5,a5,1
   13c28:	00f72223          	sw	a5,4(a4)
   13c2c:	40d50533          	sub	a0,a0,a3
   13c30:	8aa1aa23          	sw	a0,-1868(gp) # 1c644 <__malloc_current_mallinfo>
   13c34:	f71ff06f          	j	13ba4 <_malloc_trim_r+0x6c>

00013c38 <_free_r>:
   13c38:	0e058e63          	beqz	a1,13d34 <_free_r+0xfc>
   13c3c:	ff010113          	addi	sp,sp,-16
   13c40:	00812423          	sw	s0,8(sp)
   13c44:	00058413          	mv	s0,a1
   13c48:	00912223          	sw	s1,4(sp)
   13c4c:	00112623          	sw	ra,12(sp)
   13c50:	00050493          	mv	s1,a0
   13c54:	0b0010ef          	jal	14d04 <__malloc_lock>
   13c58:	ffc42503          	lw	a0,-4(s0)
   13c5c:	ff840613          	addi	a2,s0,-8
   13c60:	0001c5b7          	lui	a1,0x1c
   13c64:	ffe57793          	andi	a5,a0,-2
   13c68:	00f606b3          	add	a3,a2,a5
   13c6c:	18858593          	addi	a1,a1,392 # 1c188 <__malloc_av_>
   13c70:	0046a703          	lw	a4,4(a3)
   13c74:	0085a803          	lw	a6,8(a1)
   13c78:	00157513          	andi	a0,a0,1
   13c7c:	ffc77713          	andi	a4,a4,-4
   13c80:	15068463          	beq	a3,a6,13dc8 <_free_r+0x190>
   13c84:	00e6a223          	sw	a4,4(a3)
   13c88:	02051663          	bnez	a0,13cb4 <_free_r+0x7c>
   13c8c:	ff842503          	lw	a0,-8(s0)
   13c90:	40a60633          	sub	a2,a2,a0
   13c94:	00862803          	lw	a6,8(a2) # fcc00008 <_gp+0xfcbe3278>
   13c98:	00a787b3          	add	a5,a5,a0
   13c9c:	0001c537          	lui	a0,0x1c
   13ca0:	19050513          	addi	a0,a0,400 # 1c190 <__malloc_av_+0x8>
   13ca4:	16a80663          	beq	a6,a0,13e10 <_free_r+0x1d8>
   13ca8:	00c62503          	lw	a0,12(a2)
   13cac:	00a82623          	sw	a0,12(a6)
   13cb0:	01052423          	sw	a6,8(a0)
   13cb4:	00e68533          	add	a0,a3,a4
   13cb8:	00452503          	lw	a0,4(a0)
   13cbc:	00157513          	andi	a0,a0,1
   13cc0:	0c050a63          	beqz	a0,13d94 <_free_r+0x15c>
   13cc4:	0017e693          	ori	a3,a5,1
   13cc8:	00f60733          	add	a4,a2,a5
   13ccc:	00d62223          	sw	a3,4(a2)
   13cd0:	00f72023          	sw	a5,0(a4)
   13cd4:	1ff00713          	li	a4,511
   13cd8:	06f76063          	bltu	a4,a5,13d38 <_free_r+0x100>
   13cdc:	0037d793          	srli	a5,a5,0x3
   13ce0:	00178713          	addi	a4,a5,1
   13ce4:	00371713          	slli	a4,a4,0x3
   13ce8:	0045a683          	lw	a3,4(a1)
   13cec:	00e58733          	add	a4,a1,a4
   13cf0:	00072803          	lw	a6,0(a4)
   13cf4:	4027d793          	srai	a5,a5,0x2
   13cf8:	00100513          	li	a0,1
   13cfc:	00f517b3          	sll	a5,a0,a5
   13d00:	00d7e7b3          	or	a5,a5,a3
   13d04:	ff870693          	addi	a3,a4,-8
   13d08:	00d62623          	sw	a3,12(a2)
   13d0c:	01062423          	sw	a6,8(a2)
   13d10:	00f5a223          	sw	a5,4(a1)
   13d14:	00c72023          	sw	a2,0(a4)
   13d18:	00c82623          	sw	a2,12(a6)
   13d1c:	00048513          	mv	a0,s1
   13d20:	00c12083          	lw	ra,12(sp)
   13d24:	00812403          	lw	s0,8(sp)
   13d28:	00412483          	lw	s1,4(sp)
   13d2c:	01010113          	addi	sp,sp,16
   13d30:	7d90006f          	j	14d08 <__malloc_unlock>
   13d34:	00008067          	ret
   13d38:	0097d713          	srli	a4,a5,0x9
   13d3c:	00400693          	li	a3,4
   13d40:	10e6e463          	bltu	a3,a4,13e48 <_free_r+0x210>
   13d44:	0067d713          	srli	a4,a5,0x6
   13d48:	03970513          	addi	a0,a4,57
   13d4c:	03870693          	addi	a3,a4,56
   13d50:	00151513          	slli	a0,a0,0x1
   13d54:	00251513          	slli	a0,a0,0x2
   13d58:	00a58533          	add	a0,a1,a0
   13d5c:	00052703          	lw	a4,0(a0)
   13d60:	ff850513          	addi	a0,a0,-8
   13d64:	0ee50e63          	beq	a0,a4,13e60 <_free_r+0x228>
   13d68:	00472683          	lw	a3,4(a4)
   13d6c:	ffc6f693          	andi	a3,a3,-4
   13d70:	00d7f663          	bleu	a3,a5,13d7c <_free_r+0x144>
   13d74:	00872703          	lw	a4,8(a4)
   13d78:	fee518e3          	bne	a0,a4,13d68 <_free_r+0x130>
   13d7c:	00c72503          	lw	a0,12(a4)
   13d80:	00a62623          	sw	a0,12(a2)
   13d84:	00e62423          	sw	a4,8(a2)
   13d88:	00c52423          	sw	a2,8(a0)
   13d8c:	00c72623          	sw	a2,12(a4)
   13d90:	f8dff06f          	j	13d1c <_free_r+0xe4>
   13d94:	0086a503          	lw	a0,8(a3)
   13d98:	00e787b3          	add	a5,a5,a4
   13d9c:	0001c737          	lui	a4,0x1c
   13da0:	19070713          	addi	a4,a4,400 # 1c190 <__malloc_av_+0x8>
   13da4:	0ce50e63          	beq	a0,a4,13e80 <_free_r+0x248>
   13da8:	00c6a803          	lw	a6,12(a3)
   13dac:	00f60733          	add	a4,a2,a5
   13db0:	0017e693          	ori	a3,a5,1
   13db4:	01052623          	sw	a6,12(a0)
   13db8:	00a82423          	sw	a0,8(a6)
   13dbc:	00d62223          	sw	a3,4(a2)
   13dc0:	00f72023          	sw	a5,0(a4)
   13dc4:	f11ff06f          	j	13cd4 <_free_r+0x9c>
   13dc8:	00e787b3          	add	a5,a5,a4
   13dcc:	02051063          	bnez	a0,13dec <_free_r+0x1b4>
   13dd0:	ff842503          	lw	a0,-8(s0)
   13dd4:	40a60633          	sub	a2,a2,a0
   13dd8:	00c62703          	lw	a4,12(a2)
   13ddc:	00862683          	lw	a3,8(a2)
   13de0:	00a787b3          	add	a5,a5,a0
   13de4:	00e6a623          	sw	a4,12(a3)
   13de8:	00d72423          	sw	a3,8(a4)
   13dec:	8141a703          	lw	a4,-2028(gp) # 1c5a4 <__malloc_trim_threshold>
   13df0:	0017e693          	ori	a3,a5,1
   13df4:	00d62223          	sw	a3,4(a2)
   13df8:	00c5a423          	sw	a2,8(a1)
   13dfc:	f2e7e0e3          	bltu	a5,a4,13d1c <_free_r+0xe4>
   13e00:	88c1a583          	lw	a1,-1908(gp) # 1c61c <__malloc_top_pad>
   13e04:	00048513          	mv	a0,s1
   13e08:	d31ff0ef          	jal	13b38 <_malloc_trim_r>
   13e0c:	f11ff06f          	j	13d1c <_free_r+0xe4>
   13e10:	00e685b3          	add	a1,a3,a4
   13e14:	0045a583          	lw	a1,4(a1)
   13e18:	0015f593          	andi	a1,a1,1
   13e1c:	0e059263          	bnez	a1,13f00 <_free_r+0x2c8>
   13e20:	0086a583          	lw	a1,8(a3)
   13e24:	00c6a683          	lw	a3,12(a3)
   13e28:	00f707b3          	add	a5,a4,a5
   13e2c:	0017e513          	ori	a0,a5,1
   13e30:	00f60733          	add	a4,a2,a5
   13e34:	00d5a623          	sw	a3,12(a1)
   13e38:	00b6a423          	sw	a1,8(a3)
   13e3c:	00a62223          	sw	a0,4(a2)
   13e40:	00f72023          	sw	a5,0(a4)
   13e44:	ed9ff06f          	j	13d1c <_free_r+0xe4>
   13e48:	01400693          	li	a3,20
   13e4c:	04e6ec63          	bltu	a3,a4,13ea4 <_free_r+0x26c>
   13e50:	05c70513          	addi	a0,a4,92
   13e54:	05b70693          	addi	a3,a4,91
   13e58:	00151513          	slli	a0,a0,0x1
   13e5c:	ef9ff06f          	j	13d54 <_free_r+0x11c>
   13e60:	0045a783          	lw	a5,4(a1)
   13e64:	4026d713          	srai	a4,a3,0x2
   13e68:	00100693          	li	a3,1
   13e6c:	00e69733          	sll	a4,a3,a4
   13e70:	00f76733          	or	a4,a4,a5
   13e74:	00e5a223          	sw	a4,4(a1)
   13e78:	00050713          	mv	a4,a0
   13e7c:	f05ff06f          	j	13d80 <_free_r+0x148>
   13e80:	0017e693          	ori	a3,a5,1
   13e84:	00f60733          	add	a4,a2,a5
   13e88:	00c5aa23          	sw	a2,20(a1)
   13e8c:	00c5a823          	sw	a2,16(a1)
   13e90:	00a62623          	sw	a0,12(a2)
   13e94:	00a62423          	sw	a0,8(a2)
   13e98:	00d62223          	sw	a3,4(a2)
   13e9c:	00f72023          	sw	a5,0(a4)
   13ea0:	e7dff06f          	j	13d1c <_free_r+0xe4>
   13ea4:	05400693          	li	a3,84
   13ea8:	00e6ec63          	bltu	a3,a4,13ec0 <_free_r+0x288>
   13eac:	00c7d713          	srli	a4,a5,0xc
   13eb0:	06f70513          	addi	a0,a4,111
   13eb4:	06e70693          	addi	a3,a4,110
   13eb8:	00151513          	slli	a0,a0,0x1
   13ebc:	e99ff06f          	j	13d54 <_free_r+0x11c>
   13ec0:	15400693          	li	a3,340
   13ec4:	00e6ec63          	bltu	a3,a4,13edc <_free_r+0x2a4>
   13ec8:	00f7d713          	srli	a4,a5,0xf
   13ecc:	07870513          	addi	a0,a4,120
   13ed0:	07770693          	addi	a3,a4,119
   13ed4:	00151513          	slli	a0,a0,0x1
   13ed8:	e7dff06f          	j	13d54 <_free_r+0x11c>
   13edc:	55400813          	li	a6,1364
   13ee0:	0fe00513          	li	a0,254
   13ee4:	07e00693          	li	a3,126
   13ee8:	e6e866e3          	bltu	a6,a4,13d54 <_free_r+0x11c>
   13eec:	0127d713          	srli	a4,a5,0x12
   13ef0:	07d70513          	addi	a0,a4,125
   13ef4:	07c70693          	addi	a3,a4,124
   13ef8:	00151513          	slli	a0,a0,0x1
   13efc:	e59ff06f          	j	13d54 <_free_r+0x11c>
   13f00:	0017e693          	ori	a3,a5,1
   13f04:	00f60733          	add	a4,a2,a5
   13f08:	00d62223          	sw	a3,4(a2)
   13f0c:	00f72023          	sw	a5,0(a4)
   13f10:	e0dff06f          	j	13d1c <_free_r+0xe4>

00013f14 <_fwalk>:
   13f14:	fe010113          	addi	sp,sp,-32
   13f18:	01312623          	sw	s3,12(sp)
   13f1c:	2e050993          	addi	s3,a0,736
   13f20:	01412423          	sw	s4,8(sp)
   13f24:	01512223          	sw	s5,4(sp)
   13f28:	00112e23          	sw	ra,28(sp)
   13f2c:	00812c23          	sw	s0,24(sp)
   13f30:	00912a23          	sw	s1,20(sp)
   13f34:	01212823          	sw	s2,16(sp)
   13f38:	00058a93          	mv	s5,a1
   13f3c:	00000a13          	li	s4,0
   13f40:	bc9ff0ef          	jal	13b08 <__sfp_lock_acquire>
   13f44:	04098463          	beqz	s3,13f8c <_fwalk+0x78>
   13f48:	fff00913          	li	s2,-1
   13f4c:	0049a483          	lw	s1,4(s3)
   13f50:	0089a403          	lw	s0,8(s3)
   13f54:	fff48493          	addi	s1,s1,-1
   13f58:	0204c663          	bltz	s1,13f84 <_fwalk+0x70>
   13f5c:	00c41783          	lh	a5,12(s0)
   13f60:	fff48493          	addi	s1,s1,-1
   13f64:	00078c63          	beqz	a5,13f7c <_fwalk+0x68>
   13f68:	00e41783          	lh	a5,14(s0)
   13f6c:	00040513          	mv	a0,s0
   13f70:	01278663          	beq	a5,s2,13f7c <_fwalk+0x68>
   13f74:	000a80e7          	jalr	s5
   13f78:	00aa6a33          	or	s4,s4,a0
   13f7c:	06840413          	addi	s0,s0,104
   13f80:	fd249ee3          	bne	s1,s2,13f5c <_fwalk+0x48>
   13f84:	0009a983          	lw	s3,0(s3)
   13f88:	fc0992e3          	bnez	s3,13f4c <_fwalk+0x38>
   13f8c:	b81ff0ef          	jal	13b0c <__sfp_lock_release>
   13f90:	01c12083          	lw	ra,28(sp)
   13f94:	000a0513          	mv	a0,s4
   13f98:	01812403          	lw	s0,24(sp)
   13f9c:	01412483          	lw	s1,20(sp)
   13fa0:	01012903          	lw	s2,16(sp)
   13fa4:	00c12983          	lw	s3,12(sp)
   13fa8:	00812a03          	lw	s4,8(sp)
   13fac:	00412a83          	lw	s5,4(sp)
   13fb0:	02010113          	addi	sp,sp,32
   13fb4:	00008067          	ret

00013fb8 <_fwalk_reent>:
   13fb8:	fe010113          	addi	sp,sp,-32
   13fbc:	01312623          	sw	s3,12(sp)
   13fc0:	2e050993          	addi	s3,a0,736
   13fc4:	01412423          	sw	s4,8(sp)
   13fc8:	01512223          	sw	s5,4(sp)
   13fcc:	01612023          	sw	s6,0(sp)
   13fd0:	00112e23          	sw	ra,28(sp)
   13fd4:	00812c23          	sw	s0,24(sp)
   13fd8:	00912a23          	sw	s1,20(sp)
   13fdc:	01212823          	sw	s2,16(sp)
   13fe0:	00050a93          	mv	s5,a0
   13fe4:	00058b13          	mv	s6,a1
   13fe8:	00000a13          	li	s4,0
   13fec:	b1dff0ef          	jal	13b08 <__sfp_lock_acquire>
   13ff0:	04098663          	beqz	s3,1403c <_fwalk_reent+0x84>
   13ff4:	fff00913          	li	s2,-1
   13ff8:	0049a483          	lw	s1,4(s3)
   13ffc:	0089a403          	lw	s0,8(s3)
   14000:	fff48493          	addi	s1,s1,-1
   14004:	0204c863          	bltz	s1,14034 <_fwalk_reent+0x7c>
   14008:	00c41783          	lh	a5,12(s0)
   1400c:	fff48493          	addi	s1,s1,-1
   14010:	00078e63          	beqz	a5,1402c <_fwalk_reent+0x74>
   14014:	00e41783          	lh	a5,14(s0)
   14018:	00040593          	mv	a1,s0
   1401c:	000a8513          	mv	a0,s5
   14020:	01278663          	beq	a5,s2,1402c <_fwalk_reent+0x74>
   14024:	000b00e7          	jalr	s6
   14028:	00aa6a33          	or	s4,s4,a0
   1402c:	06840413          	addi	s0,s0,104
   14030:	fd249ce3          	bne	s1,s2,14008 <_fwalk_reent+0x50>
   14034:	0009a983          	lw	s3,0(s3)
   14038:	fc0990e3          	bnez	s3,13ff8 <_fwalk_reent+0x40>
   1403c:	ad1ff0ef          	jal	13b0c <__sfp_lock_release>
   14040:	01c12083          	lw	ra,28(sp)
   14044:	000a0513          	mv	a0,s4
   14048:	01812403          	lw	s0,24(sp)
   1404c:	01412483          	lw	s1,20(sp)
   14050:	01012903          	lw	s2,16(sp)
   14054:	00c12983          	lw	s3,12(sp)
   14058:	00812a03          	lw	s4,8(sp)
   1405c:	00412a83          	lw	s5,4(sp)
   14060:	00012b03          	lw	s6,0(sp)
   14064:	02010113          	addi	sp,sp,32
   14068:	00008067          	ret

0001406c <_setlocale_r>:
   1406c:	ff010113          	addi	sp,sp,-16
   14070:	00912223          	sw	s1,4(sp)
   14074:	00112623          	sw	ra,12(sp)
   14078:	00812423          	sw	s0,8(sp)
   1407c:	0001b4b7          	lui	s1,0x1b
   14080:	02060063          	beqz	a2,140a0 <_setlocale_r+0x34>
   14084:	0001b5b7          	lui	a1,0x1b
   14088:	ae058593          	addi	a1,a1,-1312 # 1aae0 <__clz_tab+0x158>
   1408c:	00060513          	mv	a0,a2
   14090:	00060413          	mv	s0,a2
   14094:	63d010ef          	jal	15ed0 <strcmp>
   14098:	0001b4b7          	lui	s1,0x1b
   1409c:	00051e63          	bnez	a0,140b8 <_setlocale_r+0x4c>
   140a0:	a8848513          	addi	a0,s1,-1400 # 1aa88 <__clz_tab+0x100>
   140a4:	00c12083          	lw	ra,12(sp)
   140a8:	00812403          	lw	s0,8(sp)
   140ac:	00412483          	lw	s1,4(sp)
   140b0:	01010113          	addi	sp,sp,16
   140b4:	00008067          	ret
   140b8:	a8848593          	addi	a1,s1,-1400
   140bc:	00040513          	mv	a0,s0
   140c0:	611010ef          	jal	15ed0 <strcmp>
   140c4:	fc050ee3          	beqz	a0,140a0 <_setlocale_r+0x34>
   140c8:	0001b5b7          	lui	a1,0x1b
   140cc:	aac58593          	addi	a1,a1,-1364 # 1aaac <__clz_tab+0x124>
   140d0:	00040513          	mv	a0,s0
   140d4:	5fd010ef          	jal	15ed0 <strcmp>
   140d8:	fc0504e3          	beqz	a0,140a0 <_setlocale_r+0x34>
   140dc:	00000513          	li	a0,0
   140e0:	fc5ff06f          	j	140a4 <_setlocale_r+0x38>

000140e4 <__locale_charset>:
   140e4:	0001c537          	lui	a0,0x1c
   140e8:	14850513          	addi	a0,a0,328 # 1c148 <lc_ctype_charset>
   140ec:	00008067          	ret

000140f0 <__locale_msgcharset>:
   140f0:	0001c537          	lui	a0,0x1c
   140f4:	16850513          	addi	a0,a0,360 # 1c168 <lc_message_charset>
   140f8:	00008067          	ret

000140fc <__locale_cjk_lang>:
   140fc:	00000513          	li	a0,0
   14100:	00008067          	ret

00014104 <_localeconv_r>:
   14104:	0001a537          	lui	a0,0x1a
   14108:	67450513          	addi	a0,a0,1652 # 1a674 <lconv>
   1410c:	00008067          	ret

00014110 <setlocale>:
   14110:	00058613          	mv	a2,a1
   14114:	00050593          	mv	a1,a0
   14118:	8081a503          	lw	a0,-2040(gp) # 1c598 <_impure_ptr>
   1411c:	f51ff06f          	j	1406c <_setlocale_r>

00014120 <localeconv>:
   14120:	0001a537          	lui	a0,0x1a
   14124:	67450513          	addi	a0,a0,1652 # 1a674 <lconv>
   14128:	00008067          	ret

0001412c <__smakebuf_r>:
   1412c:	00c59783          	lh	a5,12(a1)
   14130:	f6010113          	addi	sp,sp,-160
   14134:	08912a23          	sw	s1,148(sp)
   14138:	01079493          	slli	s1,a5,0x10
   1413c:	0104d493          	srli	s1,s1,0x10
   14140:	0024f713          	andi	a4,s1,2
   14144:	08112e23          	sw	ra,156(sp)
   14148:	08812c23          	sw	s0,152(sp)
   1414c:	09212823          	sw	s2,144(sp)
   14150:	09312623          	sw	s3,140(sp)
   14154:	0e071063          	bnez	a4,14234 <__smakebuf_r+0x108>
   14158:	00050913          	mv	s2,a0
   1415c:	00e59503          	lh	a0,14(a1)
   14160:	00058413          	mv	s0,a1
   14164:	04054c63          	bltz	a0,141bc <__smakebuf_r+0x90>
   14168:	00010593          	mv	a1,sp
   1416c:	3a8040ef          	jal	18514 <fstat>
   14170:	04054063          	bltz	a0,141b0 <__smakebuf_r+0x84>
   14174:	01012703          	lw	a4,16(sp)
   14178:	0000f7b7          	lui	a5,0xf
   1417c:	ffffe9b7          	lui	s3,0xffffe
   14180:	00f777b3          	and	a5,a4,a5
   14184:	013789b3          	add	s3,a5,s3
   14188:	00008737          	lui	a4,0x8
   1418c:	0019b993          	seqz	s3,s3
   14190:	0ae78e63          	beq	a5,a4,1424c <__smakebuf_r+0x120>
   14194:	00c45703          	lhu	a4,12(s0)
   14198:	000017b7          	lui	a5,0x1
   1419c:	80078793          	addi	a5,a5,-2048 # 800 <_ftext-0xf800>
   141a0:	00f767b3          	or	a5,a4,a5
   141a4:	00f41623          	sh	a5,12(s0)
   141a8:	40000493          	li	s1,1024
   141ac:	0340006f          	j	141e0 <__smakebuf_r+0xb4>
   141b0:	00c41783          	lh	a5,12(s0)
   141b4:	01079493          	slli	s1,a5,0x10
   141b8:	0104d493          	srli	s1,s1,0x10
   141bc:	01849493          	slli	s1,s1,0x18
   141c0:	00001737          	lui	a4,0x1
   141c4:	41f4d493          	srai	s1,s1,0x1f
   141c8:	80070713          	addi	a4,a4,-2048 # 800 <_ftext-0xf800>
   141cc:	c404f493          	andi	s1,s1,-960
   141d0:	00e7e7b3          	or	a5,a5,a4
   141d4:	40048493          	addi	s1,s1,1024
   141d8:	00f41623          	sh	a5,12(s0)
   141dc:	00000993          	li	s3,0
   141e0:	00048593          	mv	a1,s1
   141e4:	00090513          	mv	a0,s2
   141e8:	0d4000ef          	jal	142bc <_malloc_r>
   141ec:	0a050263          	beqz	a0,14290 <__smakebuf_r+0x164>
   141f0:	00c45783          	lhu	a5,12(s0)
   141f4:	00013737          	lui	a4,0x13
   141f8:	7d070713          	addi	a4,a4,2000 # 137d0 <_cleanup_r>
   141fc:	0807e793          	ori	a5,a5,128
   14200:	02e92e23          	sw	a4,60(s2)
   14204:	00f41623          	sh	a5,12(s0)
   14208:	00a42023          	sw	a0,0(s0)
   1420c:	00a42823          	sw	a0,16(s0)
   14210:	00942a23          	sw	s1,20(s0)
   14214:	06099063          	bnez	s3,14274 <__smakebuf_r+0x148>
   14218:	09c12083          	lw	ra,156(sp)
   1421c:	09812403          	lw	s0,152(sp)
   14220:	09412483          	lw	s1,148(sp)
   14224:	09012903          	lw	s2,144(sp)
   14228:	08c12983          	lw	s3,140(sp)
   1422c:	0a010113          	addi	sp,sp,160
   14230:	00008067          	ret
   14234:	04358793          	addi	a5,a1,67
   14238:	00f5a023          	sw	a5,0(a1)
   1423c:	00f5a823          	sw	a5,16(a1)
   14240:	00100793          	li	a5,1
   14244:	00f5aa23          	sw	a5,20(a1)
   14248:	fd1ff06f          	j	14218 <__smakebuf_r+0xec>
   1424c:	02842703          	lw	a4,40(s0)
   14250:	000167b7          	lui	a5,0x16
   14254:	e6078793          	addi	a5,a5,-416 # 15e60 <__sseek>
   14258:	f2f71ee3          	bne	a4,a5,14194 <__smakebuf_r+0x68>
   1425c:	00c45783          	lhu	a5,12(s0)
   14260:	40000493          	li	s1,1024
   14264:	04942623          	sw	s1,76(s0)
   14268:	0097e7b3          	or	a5,a5,s1
   1426c:	00f41623          	sh	a5,12(s0)
   14270:	f71ff06f          	j	141e0 <__smakebuf_r+0xb4>
   14274:	00e41503          	lh	a0,14(s0)
   14278:	404040ef          	jal	1867c <isatty>
   1427c:	f8050ee3          	beqz	a0,14218 <__smakebuf_r+0xec>
   14280:	00c45783          	lhu	a5,12(s0)
   14284:	0017e793          	ori	a5,a5,1
   14288:	00f41623          	sh	a5,12(s0)
   1428c:	f8dff06f          	j	14218 <__smakebuf_r+0xec>
   14290:	00c41783          	lh	a5,12(s0)
   14294:	2007f713          	andi	a4,a5,512
   14298:	f80710e3          	bnez	a4,14218 <__smakebuf_r+0xec>
   1429c:	0027e793          	ori	a5,a5,2
   142a0:	04340713          	addi	a4,s0,67
   142a4:	00f41623          	sh	a5,12(s0)
   142a8:	00100793          	li	a5,1
   142ac:	00e42023          	sw	a4,0(s0)
   142b0:	00e42823          	sw	a4,16(s0)
   142b4:	00f42a23          	sw	a5,20(s0)
   142b8:	f61ff06f          	j	14218 <__smakebuf_r+0xec>

000142bc <_malloc_r>:
   142bc:	fd010113          	addi	sp,sp,-48
   142c0:	02912223          	sw	s1,36(sp)
   142c4:	01600793          	li	a5,22
   142c8:	00b58493          	addi	s1,a1,11
   142cc:	01312e23          	sw	s3,28(sp)
   142d0:	02112623          	sw	ra,44(sp)
   142d4:	02812423          	sw	s0,40(sp)
   142d8:	03212023          	sw	s2,32(sp)
   142dc:	01412c23          	sw	s4,24(sp)
   142e0:	01512a23          	sw	s5,20(sp)
   142e4:	01612823          	sw	s6,16(sp)
   142e8:	01712623          	sw	s7,12(sp)
   142ec:	01812423          	sw	s8,8(sp)
   142f0:	01912223          	sw	s9,4(sp)
   142f4:	00050993          	mv	s3,a0
   142f8:	1a97fc63          	bleu	s1,a5,144b0 <_malloc_r+0x1f4>
   142fc:	ff84f493          	andi	s1,s1,-8
   14300:	2404c463          	bltz	s1,14548 <_malloc_r+0x28c>
   14304:	24b4e263          	bltu	s1,a1,14548 <_malloc_r+0x28c>
   14308:	1fd000ef          	jal	14d04 <__malloc_lock>
   1430c:	1f700793          	li	a5,503
   14310:	7097fa63          	bleu	s1,a5,14a24 <_malloc_r+0x768>
   14314:	0094d793          	srli	a5,s1,0x9
   14318:	08000693          	li	a3,128
   1431c:	04000513          	li	a0,64
   14320:	03f00593          	li	a1,63
   14324:	22079a63          	bnez	a5,14558 <_malloc_r+0x29c>
   14328:	0001c937          	lui	s2,0x1c
   1432c:	18890913          	addi	s2,s2,392 # 1c188 <__malloc_av_>
   14330:	00269693          	slli	a3,a3,0x2
   14334:	00d906b3          	add	a3,s2,a3
   14338:	0046a403          	lw	s0,4(a3)
   1433c:	ff868693          	addi	a3,a3,-8
   14340:	22868a63          	beq	a3,s0,14574 <_malloc_r+0x2b8>
   14344:	00442783          	lw	a5,4(s0)
   14348:	00f00613          	li	a2,15
   1434c:	ffc7f793          	andi	a5,a5,-4
   14350:	40978733          	sub	a4,a5,s1
   14354:	02e64063          	blt	a2,a4,14374 <_malloc_r+0xb8>
   14358:	22075263          	bgez	a4,1457c <_malloc_r+0x2c0>
   1435c:	00c42403          	lw	s0,12(s0)
   14360:	20868a63          	beq	a3,s0,14574 <_malloc_r+0x2b8>
   14364:	00442783          	lw	a5,4(s0)
   14368:	ffc7f793          	andi	a5,a5,-4
   1436c:	40978733          	sub	a4,a5,s1
   14370:	fee654e3          	ble	a4,a2,14358 <_malloc_r+0x9c>
   14374:	00058693          	mv	a3,a1
   14378:	01092403          	lw	s0,16(s2)
   1437c:	00890813          	addi	a6,s2,8
   14380:	4b040263          	beq	s0,a6,14824 <_malloc_r+0x568>
   14384:	00442783          	lw	a5,4(s0)
   14388:	00f00613          	li	a2,15
   1438c:	ffc7f793          	andi	a5,a5,-4
   14390:	40978733          	sub	a4,a5,s1
   14394:	44e64a63          	blt	a2,a4,147e8 <_malloc_r+0x52c>
   14398:	01092a23          	sw	a6,20(s2)
   1439c:	01092823          	sw	a6,16(s2)
   143a0:	20075663          	bgez	a4,145ac <_malloc_r+0x2f0>
   143a4:	1ff00713          	li	a4,511
   143a8:	3cf76e63          	bltu	a4,a5,14784 <_malloc_r+0x4c8>
   143ac:	0037d793          	srli	a5,a5,0x3
   143b0:	00178613          	addi	a2,a5,1
   143b4:	00361613          	slli	a2,a2,0x3
   143b8:	00492703          	lw	a4,4(s2)
   143bc:	00c90633          	add	a2,s2,a2
   143c0:	00062503          	lw	a0,0(a2)
   143c4:	4027d793          	srai	a5,a5,0x2
   143c8:	00100593          	li	a1,1
   143cc:	00f597b3          	sll	a5,a1,a5
   143d0:	00e7e7b3          	or	a5,a5,a4
   143d4:	ff860713          	addi	a4,a2,-8
   143d8:	00e42623          	sw	a4,12(s0)
   143dc:	00a42423          	sw	a0,8(s0)
   143e0:	00f92223          	sw	a5,4(s2)
   143e4:	00862023          	sw	s0,0(a2)
   143e8:	00852623          	sw	s0,12(a0)
   143ec:	4026d713          	srai	a4,a3,0x2
   143f0:	00100613          	li	a2,1
   143f4:	00e61633          	sll	a2,a2,a4
   143f8:	1cc7ea63          	bltu	a5,a2,145cc <_malloc_r+0x310>
   143fc:	00f67733          	and	a4,a2,a5
   14400:	02071463          	bnez	a4,14428 <_malloc_r+0x16c>
   14404:	00161613          	slli	a2,a2,0x1
   14408:	ffc6f693          	andi	a3,a3,-4
   1440c:	00f67733          	and	a4,a2,a5
   14410:	00468693          	addi	a3,a3,4
   14414:	00071a63          	bnez	a4,14428 <_malloc_r+0x16c>
   14418:	00161613          	slli	a2,a2,0x1
   1441c:	00f67733          	and	a4,a2,a5
   14420:	00468693          	addi	a3,a3,4
   14424:	fe070ae3          	beqz	a4,14418 <_malloc_r+0x15c>
   14428:	00f00513          	li	a0,15
   1442c:	00369893          	slli	a7,a3,0x3
   14430:	012888b3          	add	a7,a7,s2
   14434:	00088593          	mv	a1,a7
   14438:	00068293          	mv	t0,a3
   1443c:	00c5a403          	lw	s0,12(a1)
   14440:	00859a63          	bne	a1,s0,14454 <_malloc_r+0x198>
   14444:	3e80006f          	j	1482c <_malloc_r+0x570>
   14448:	40075463          	bgez	a4,14850 <_malloc_r+0x594>
   1444c:	00c42403          	lw	s0,12(s0)
   14450:	3c858e63          	beq	a1,s0,1482c <_malloc_r+0x570>
   14454:	00442783          	lw	a5,4(s0)
   14458:	ffc7f793          	andi	a5,a5,-4
   1445c:	40978733          	sub	a4,a5,s1
   14460:	fee554e3          	ble	a4,a0,14448 <_malloc_r+0x18c>
   14464:	00c42683          	lw	a3,12(s0)
   14468:	00842603          	lw	a2,8(s0)
   1446c:	009407b3          	add	a5,s0,s1
   14470:	00176893          	ori	a7,a4,1
   14474:	00e785b3          	add	a1,a5,a4
   14478:	0014e493          	ori	s1,s1,1
   1447c:	00942223          	sw	s1,4(s0)
   14480:	00098513          	mv	a0,s3
   14484:	00d62623          	sw	a3,12(a2)
   14488:	00c6a423          	sw	a2,8(a3)
   1448c:	00f92a23          	sw	a5,20(s2)
   14490:	00f92823          	sw	a5,16(s2)
   14494:	0107a623          	sw	a6,12(a5)
   14498:	0107a423          	sw	a6,8(a5)
   1449c:	0117a223          	sw	a7,4(a5)
   144a0:	00e5a023          	sw	a4,0(a1)
   144a4:	065000ef          	jal	14d08 <__malloc_unlock>
   144a8:	00840513          	addi	a0,s0,8
   144ac:	0680006f          	j	14514 <_malloc_r+0x258>
   144b0:	01000493          	li	s1,16
   144b4:	08b4ea63          	bltu	s1,a1,14548 <_malloc_r+0x28c>
   144b8:	04d000ef          	jal	14d04 <__malloc_lock>
   144bc:	00600793          	li	a5,6
   144c0:	00200693          	li	a3,2
   144c4:	0001c937          	lui	s2,0x1c
   144c8:	18890913          	addi	s2,s2,392 # 1c188 <__malloc_av_>
   144cc:	00279793          	slli	a5,a5,0x2
   144d0:	00f907b3          	add	a5,s2,a5
   144d4:	0047a403          	lw	s0,4(a5)
   144d8:	ff878713          	addi	a4,a5,-8
   144dc:	36e40263          	beq	s0,a4,14840 <_malloc_r+0x584>
   144e0:	00442783          	lw	a5,4(s0)
   144e4:	00c42683          	lw	a3,12(s0)
   144e8:	00842603          	lw	a2,8(s0)
   144ec:	ffc7f793          	andi	a5,a5,-4
   144f0:	00f407b3          	add	a5,s0,a5
   144f4:	0047a703          	lw	a4,4(a5)
   144f8:	00098513          	mv	a0,s3
   144fc:	00d62623          	sw	a3,12(a2)
   14500:	00176713          	ori	a4,a4,1
   14504:	00c6a423          	sw	a2,8(a3)
   14508:	00e7a223          	sw	a4,4(a5)
   1450c:	7fc000ef          	jal	14d08 <__malloc_unlock>
   14510:	00840513          	addi	a0,s0,8
   14514:	02c12083          	lw	ra,44(sp)
   14518:	02812403          	lw	s0,40(sp)
   1451c:	02412483          	lw	s1,36(sp)
   14520:	02012903          	lw	s2,32(sp)
   14524:	01c12983          	lw	s3,28(sp)
   14528:	01812a03          	lw	s4,24(sp)
   1452c:	01412a83          	lw	s5,20(sp)
   14530:	01012b03          	lw	s6,16(sp)
   14534:	00c12b83          	lw	s7,12(sp)
   14538:	00812c03          	lw	s8,8(sp)
   1453c:	00412c83          	lw	s9,4(sp)
   14540:	03010113          	addi	sp,sp,48
   14544:	00008067          	ret
   14548:	00c00793          	li	a5,12
   1454c:	00f9a023          	sw	a5,0(s3) # ffffe000 <_gp+0xfffe1270>
   14550:	00000513          	li	a0,0
   14554:	fc1ff06f          	j	14514 <_malloc_r+0x258>
   14558:	00400713          	li	a4,4
   1455c:	20f76263          	bltu	a4,a5,14760 <_malloc_r+0x4a4>
   14560:	0064d593          	srli	a1,s1,0x6
   14564:	03958513          	addi	a0,a1,57
   14568:	00151693          	slli	a3,a0,0x1
   1456c:	03858593          	addi	a1,a1,56
   14570:	db9ff06f          	j	14328 <_malloc_r+0x6c>
   14574:	00050693          	mv	a3,a0
   14578:	e01ff06f          	j	14378 <_malloc_r+0xbc>
   1457c:	00f407b3          	add	a5,s0,a5
   14580:	0047a703          	lw	a4,4(a5)
   14584:	00c42683          	lw	a3,12(s0)
   14588:	00842603          	lw	a2,8(s0)
   1458c:	00176713          	ori	a4,a4,1
   14590:	00098513          	mv	a0,s3
   14594:	00d62623          	sw	a3,12(a2)
   14598:	00c6a423          	sw	a2,8(a3)
   1459c:	00e7a223          	sw	a4,4(a5)
   145a0:	768000ef          	jal	14d08 <__malloc_unlock>
   145a4:	00840513          	addi	a0,s0,8
   145a8:	f6dff06f          	j	14514 <_malloc_r+0x258>
   145ac:	00f407b3          	add	a5,s0,a5
   145b0:	0047a703          	lw	a4,4(a5)
   145b4:	00098513          	mv	a0,s3
   145b8:	00176713          	ori	a4,a4,1
   145bc:	00e7a223          	sw	a4,4(a5)
   145c0:	748000ef          	jal	14d08 <__malloc_unlock>
   145c4:	00840513          	addi	a0,s0,8
   145c8:	f4dff06f          	j	14514 <_malloc_r+0x258>
   145cc:	00892403          	lw	s0,8(s2)
   145d0:	00442a03          	lw	s4,4(s0)
   145d4:	ffca7a93          	andi	s5,s4,-4
   145d8:	009ae863          	bltu	s5,s1,145e8 <_malloc_r+0x32c>
   145dc:	409a87b3          	sub	a5,s5,s1
   145e0:	00f00713          	li	a4,15
   145e4:	14f74a63          	blt	a4,a5,14738 <_malloc_r+0x47c>
   145e8:	88c1a703          	lw	a4,-1908(gp) # 1c61c <__malloc_top_pad>
   145ec:	8101a683          	lw	a3,-2032(gp) # 1c5a0 <__malloc_sbrk_base>
   145f0:	00e48733          	add	a4,s1,a4
   145f4:	fff00793          	li	a5,-1
   145f8:	01540b33          	add	s6,s0,s5
   145fc:	01070a13          	addi	s4,a4,16
   14600:	00f68c63          	beq	a3,a5,14618 <_malloc_r+0x35c>
   14604:	000016b7          	lui	a3,0x1
   14608:	00f68a13          	addi	s4,a3,15 # 100f <_ftext-0xeff1>
   1460c:	014706b3          	add	a3,a4,s4
   14610:	fffff737          	lui	a4,0xfffff
   14614:	00e6fa33          	and	s4,a3,a4
   14618:	000a0513          	mv	a0,s4
   1461c:	1ac040ef          	jal	187c8 <sbrk>
   14620:	fff00793          	li	a5,-1
   14624:	00050b93          	mv	s7,a0
   14628:	28f50063          	beq	a0,a5,148a8 <_malloc_r+0x5ec>
   1462c:	27656c63          	bltu	a0,s6,148a4 <_malloc_r+0x5e8>
   14630:	8b418c13          	addi	s8,gp,-1868 # 1c644 <__malloc_current_mallinfo>
   14634:	000c2703          	lw	a4,0(s8)
   14638:	00ea0733          	add	a4,s4,a4
   1463c:	00ec2023          	sw	a4,0(s8)
   14640:	357b0c63          	beq	s6,s7,14998 <_malloc_r+0x6dc>
   14644:	8101a683          	lw	a3,-2032(gp) # 1c5a0 <__malloc_sbrk_base>
   14648:	fff00793          	li	a5,-1
   1464c:	36f68a63          	beq	a3,a5,149c0 <_malloc_r+0x704>
   14650:	416b8b33          	sub	s6,s7,s6
   14654:	00eb0733          	add	a4,s6,a4
   14658:	00ec2023          	sw	a4,0(s8)
   1465c:	007bf713          	andi	a4,s7,7
   14660:	000017b7          	lui	a5,0x1
   14664:	00070a63          	beqz	a4,14678 <_malloc_r+0x3bc>
   14668:	40eb8bb3          	sub	s7,s7,a4
   1466c:	00878793          	addi	a5,a5,8 # 1008 <_ftext-0xeff8>
   14670:	008b8b93          	addi	s7,s7,8
   14674:	40e787b3          	sub	a5,a5,a4
   14678:	00001737          	lui	a4,0x1
   1467c:	fff70713          	addi	a4,a4,-1 # fff <_ftext-0xf001>
   14680:	014b8a33          	add	s4,s7,s4
   14684:	00ea7a33          	and	s4,s4,a4
   14688:	41478a33          	sub	s4,a5,s4
   1468c:	000a0513          	mv	a0,s4
   14690:	138040ef          	jal	187c8 <sbrk>
   14694:	fff00793          	li	a5,-1
   14698:	30f50e63          	beq	a0,a5,149b4 <_malloc_r+0x6f8>
   1469c:	417507b3          	sub	a5,a0,s7
   146a0:	014787b3          	add	a5,a5,s4
   146a4:	0017e793          	ori	a5,a5,1
   146a8:	000c2703          	lw	a4,0(s8)
   146ac:	01792423          	sw	s7,8(s2)
   146b0:	00fba223          	sw	a5,4(s7)
   146b4:	00ea0733          	add	a4,s4,a4
   146b8:	00ec2023          	sw	a4,0(s8)
   146bc:	03240c63          	beq	s0,s2,146f4 <_malloc_r+0x438>
   146c0:	00f00613          	li	a2,15
   146c4:	29567263          	bleu	s5,a2,14948 <_malloc_r+0x68c>
   146c8:	ff4a8793          	addi	a5,s5,-12
   146cc:	ff87f793          	andi	a5,a5,-8
   146d0:	00f406b3          	add	a3,s0,a5
   146d4:	00500593          	li	a1,5
   146d8:	00b6a223          	sw	a1,4(a3)
   146dc:	00b6a423          	sw	a1,8(a3)
   146e0:	00442683          	lw	a3,4(s0)
   146e4:	0016f693          	andi	a3,a3,1
   146e8:	00f6e6b3          	or	a3,a3,a5
   146ec:	00d42223          	sw	a3,4(s0)
   146f0:	2cf66c63          	bltu	a2,a5,149c8 <_malloc_r+0x70c>
   146f4:	8881a683          	lw	a3,-1912(gp) # 1c618 <__malloc_max_sbrked_mem>
   146f8:	00e6f463          	bleu	a4,a3,14700 <_malloc_r+0x444>
   146fc:	88e1a423          	sw	a4,-1912(gp) # 1c618 <__malloc_max_sbrked_mem>
   14700:	8841a683          	lw	a3,-1916(gp) # 1c614 <__malloc_max_total_mem>
   14704:	00892403          	lw	s0,8(s2)
   14708:	00e6f463          	bleu	a4,a3,14710 <_malloc_r+0x454>
   1470c:	88e1a223          	sw	a4,-1916(gp) # 1c614 <__malloc_max_total_mem>
   14710:	00442703          	lw	a4,4(s0)
   14714:	ffc77713          	andi	a4,a4,-4
   14718:	409707b3          	sub	a5,a4,s1
   1471c:	00976663          	bltu	a4,s1,14728 <_malloc_r+0x46c>
   14720:	00f00713          	li	a4,15
   14724:	00f74a63          	blt	a4,a5,14738 <_malloc_r+0x47c>
   14728:	00098513          	mv	a0,s3
   1472c:	5dc000ef          	jal	14d08 <__malloc_unlock>
   14730:	00000513          	li	a0,0
   14734:	de1ff06f          	j	14514 <_malloc_r+0x258>
   14738:	00940733          	add	a4,s0,s1
   1473c:	0017e793          	ori	a5,a5,1
   14740:	0014e493          	ori	s1,s1,1
   14744:	00942223          	sw	s1,4(s0)
   14748:	00098513          	mv	a0,s3
   1474c:	00e92423          	sw	a4,8(s2)
   14750:	00f72223          	sw	a5,4(a4)
   14754:	5b4000ef          	jal	14d08 <__malloc_unlock>
   14758:	00840513          	addi	a0,s0,8
   1475c:	db9ff06f          	j	14514 <_malloc_r+0x258>
   14760:	01400713          	li	a4,20
   14764:	10f77e63          	bleu	a5,a4,14880 <_malloc_r+0x5c4>
   14768:	05400713          	li	a4,84
   1476c:	1af76063          	bltu	a4,a5,1490c <_malloc_r+0x650>
   14770:	00c4d593          	srli	a1,s1,0xc
   14774:	06f58513          	addi	a0,a1,111
   14778:	00151693          	slli	a3,a0,0x1
   1477c:	06e58593          	addi	a1,a1,110
   14780:	ba9ff06f          	j	14328 <_malloc_r+0x6c>
   14784:	0097d713          	srli	a4,a5,0x9
   14788:	00400613          	li	a2,4
   1478c:	10e67263          	bleu	a4,a2,14890 <_malloc_r+0x5d4>
   14790:	01400613          	li	a2,20
   14794:	1ee66463          	bltu	a2,a4,1497c <_malloc_r+0x6c0>
   14798:	05c70593          	addi	a1,a4,92
   1479c:	05b70613          	addi	a2,a4,91
   147a0:	00159593          	slli	a1,a1,0x1
   147a4:	00259593          	slli	a1,a1,0x2
   147a8:	00b905b3          	add	a1,s2,a1
   147ac:	0005a703          	lw	a4,0(a1)
   147b0:	ff858593          	addi	a1,a1,-8
   147b4:	16e58a63          	beq	a1,a4,14928 <_malloc_r+0x66c>
   147b8:	00472603          	lw	a2,4(a4)
   147bc:	ffc67613          	andi	a2,a2,-4
   147c0:	00c7f663          	bleu	a2,a5,147cc <_malloc_r+0x510>
   147c4:	00872703          	lw	a4,8(a4)
   147c8:	fee598e3          	bne	a1,a4,147b8 <_malloc_r+0x4fc>
   147cc:	00c72583          	lw	a1,12(a4)
   147d0:	00492783          	lw	a5,4(s2)
   147d4:	00b42623          	sw	a1,12(s0)
   147d8:	00e42423          	sw	a4,8(s0)
   147dc:	0085a423          	sw	s0,8(a1)
   147e0:	00872623          	sw	s0,12(a4)
   147e4:	c09ff06f          	j	143ec <_malloc_r+0x130>
   147e8:	009407b3          	add	a5,s0,s1
   147ec:	00176613          	ori	a2,a4,1
   147f0:	00e786b3          	add	a3,a5,a4
   147f4:	0014e493          	ori	s1,s1,1
   147f8:	00942223          	sw	s1,4(s0)
   147fc:	00098513          	mv	a0,s3
   14800:	00f92a23          	sw	a5,20(s2)
   14804:	00f92823          	sw	a5,16(s2)
   14808:	0107a623          	sw	a6,12(a5)
   1480c:	0107a423          	sw	a6,8(a5)
   14810:	00c7a223          	sw	a2,4(a5)
   14814:	00e6a023          	sw	a4,0(a3)
   14818:	4f0000ef          	jal	14d08 <__malloc_unlock>
   1481c:	00840513          	addi	a0,s0,8
   14820:	cf5ff06f          	j	14514 <_malloc_r+0x258>
   14824:	00492783          	lw	a5,4(s2)
   14828:	bc5ff06f          	j	143ec <_malloc_r+0x130>
   1482c:	00128293          	addi	t0,t0,1
   14830:	0032f793          	andi	a5,t0,3
   14834:	00858593          	addi	a1,a1,8
   14838:	c00792e3          	bnez	a5,1443c <_malloc_r+0x180>
   1483c:	0880006f          	j	148c4 <_malloc_r+0x608>
   14840:	00c7a403          	lw	s0,12(a5)
   14844:	00268693          	addi	a3,a3,2
   14848:	b28788e3          	beq	a5,s0,14378 <_malloc_r+0xbc>
   1484c:	c95ff06f          	j	144e0 <_malloc_r+0x224>
   14850:	00f407b3          	add	a5,s0,a5
   14854:	0047a703          	lw	a4,4(a5)
   14858:	00c42683          	lw	a3,12(s0)
   1485c:	00842603          	lw	a2,8(s0)
   14860:	00176713          	ori	a4,a4,1
   14864:	00e7a223          	sw	a4,4(a5)
   14868:	00098513          	mv	a0,s3
   1486c:	00d62623          	sw	a3,12(a2)
   14870:	00c6a423          	sw	a2,8(a3)
   14874:	494000ef          	jal	14d08 <__malloc_unlock>
   14878:	00840513          	addi	a0,s0,8
   1487c:	c99ff06f          	j	14514 <_malloc_r+0x258>
   14880:	05c78513          	addi	a0,a5,92
   14884:	05b78593          	addi	a1,a5,91
   14888:	00151693          	slli	a3,a0,0x1
   1488c:	a9dff06f          	j	14328 <_malloc_r+0x6c>
   14890:	0067d613          	srli	a2,a5,0x6
   14894:	03960593          	addi	a1,a2,57
   14898:	00159593          	slli	a1,a1,0x1
   1489c:	03860613          	addi	a2,a2,56
   148a0:	f05ff06f          	j	147a4 <_malloc_r+0x4e8>
   148a4:	d92406e3          	beq	s0,s2,14630 <_malloc_r+0x374>
   148a8:	00892403          	lw	s0,8(s2)
   148ac:	00442703          	lw	a4,4(s0)
   148b0:	ffc77713          	andi	a4,a4,-4
   148b4:	e65ff06f          	j	14718 <_malloc_r+0x45c>
   148b8:	0088a783          	lw	a5,8(a7)
   148bc:	fff68693          	addi	a3,a3,-1
   148c0:	14f89e63          	bne	a7,a5,14a1c <_malloc_r+0x760>
   148c4:	0036f793          	andi	a5,a3,3
   148c8:	ff888893          	addi	a7,a7,-8
   148cc:	fe0796e3          	bnez	a5,148b8 <_malloc_r+0x5fc>
   148d0:	00492783          	lw	a5,4(s2)
   148d4:	fff64713          	not	a4,a2
   148d8:	00f777b3          	and	a5,a4,a5
   148dc:	00f92223          	sw	a5,4(s2)
   148e0:	00161613          	slli	a2,a2,0x1
   148e4:	cec7e4e3          	bltu	a5,a2,145cc <_malloc_r+0x310>
   148e8:	ce0602e3          	beqz	a2,145cc <_malloc_r+0x310>
   148ec:	00f67733          	and	a4,a2,a5
   148f0:	00028693          	mv	a3,t0
   148f4:	b2071ce3          	bnez	a4,1442c <_malloc_r+0x170>
   148f8:	00161613          	slli	a2,a2,0x1
   148fc:	00f67733          	and	a4,a2,a5
   14900:	00468693          	addi	a3,a3,4
   14904:	fe070ae3          	beqz	a4,148f8 <_malloc_r+0x63c>
   14908:	b25ff06f          	j	1442c <_malloc_r+0x170>
   1490c:	15400713          	li	a4,340
   14910:	04f76263          	bltu	a4,a5,14954 <_malloc_r+0x698>
   14914:	00f4d593          	srli	a1,s1,0xf
   14918:	07858513          	addi	a0,a1,120
   1491c:	00151693          	slli	a3,a0,0x1
   14920:	07758593          	addi	a1,a1,119
   14924:	a05ff06f          	j	14328 <_malloc_r+0x6c>
   14928:	00492703          	lw	a4,4(s2)
   1492c:	40265613          	srai	a2,a2,0x2
   14930:	00100793          	li	a5,1
   14934:	00c797b3          	sll	a5,a5,a2
   14938:	00e7e7b3          	or	a5,a5,a4
   1493c:	00f92223          	sw	a5,4(s2)
   14940:	00058713          	mv	a4,a1
   14944:	e91ff06f          	j	147d4 <_malloc_r+0x518>
   14948:	00100793          	li	a5,1
   1494c:	00fba223          	sw	a5,4(s7)
   14950:	dd9ff06f          	j	14728 <_malloc_r+0x46c>
   14954:	55400713          	li	a4,1364
   14958:	0fe00693          	li	a3,254
   1495c:	07f00513          	li	a0,127
   14960:	07e00593          	li	a1,126
   14964:	9cf762e3          	bltu	a4,a5,14328 <_malloc_r+0x6c>
   14968:	0124d593          	srli	a1,s1,0x12
   1496c:	07d58513          	addi	a0,a1,125
   14970:	00151693          	slli	a3,a0,0x1
   14974:	07c58593          	addi	a1,a1,124
   14978:	9b1ff06f          	j	14328 <_malloc_r+0x6c>
   1497c:	05400613          	li	a2,84
   14980:	04e66e63          	bltu	a2,a4,149dc <_malloc_r+0x720>
   14984:	00c7d613          	srli	a2,a5,0xc
   14988:	06f60593          	addi	a1,a2,111
   1498c:	00159593          	slli	a1,a1,0x1
   14990:	06e60613          	addi	a2,a2,110
   14994:	e11ff06f          	j	147a4 <_malloc_r+0x4e8>
   14998:	014b1793          	slli	a5,s6,0x14
   1499c:	ca0794e3          	bnez	a5,14644 <_malloc_r+0x388>
   149a0:	00892783          	lw	a5,8(s2)
   149a4:	014a8a33          	add	s4,s5,s4
   149a8:	001a6a13          	ori	s4,s4,1
   149ac:	0147a223          	sw	s4,4(a5)
   149b0:	d45ff06f          	j	146f4 <_malloc_r+0x438>
   149b4:	00100793          	li	a5,1
   149b8:	00000a13          	li	s4,0
   149bc:	cedff06f          	j	146a8 <_malloc_r+0x3ec>
   149c0:	8171a823          	sw	s7,-2032(gp) # 1c5a0 <__malloc_sbrk_base>
   149c4:	c99ff06f          	j	1465c <_malloc_r+0x3a0>
   149c8:	00840593          	addi	a1,s0,8
   149cc:	00098513          	mv	a0,s3
   149d0:	a68ff0ef          	jal	13c38 <_free_r>
   149d4:	000c2703          	lw	a4,0(s8)
   149d8:	d1dff06f          	j	146f4 <_malloc_r+0x438>
   149dc:	15400613          	li	a2,340
   149e0:	00e66c63          	bltu	a2,a4,149f8 <_malloc_r+0x73c>
   149e4:	00f7d613          	srli	a2,a5,0xf
   149e8:	07860593          	addi	a1,a2,120
   149ec:	00159593          	slli	a1,a1,0x1
   149f0:	07760613          	addi	a2,a2,119
   149f4:	db1ff06f          	j	147a4 <_malloc_r+0x4e8>
   149f8:	55400513          	li	a0,1364
   149fc:	0fe00593          	li	a1,254
   14a00:	07e00613          	li	a2,126
   14a04:	dae560e3          	bltu	a0,a4,147a4 <_malloc_r+0x4e8>
   14a08:	0127d613          	srli	a2,a5,0x12
   14a0c:	07d60593          	addi	a1,a2,125
   14a10:	00159593          	slli	a1,a1,0x1
   14a14:	07c60613          	addi	a2,a2,124
   14a18:	d8dff06f          	j	147a4 <_malloc_r+0x4e8>
   14a1c:	00492783          	lw	a5,4(s2)
   14a20:	ec1ff06f          	j	148e0 <_malloc_r+0x624>
   14a24:	0034d693          	srli	a3,s1,0x3
   14a28:	00168793          	addi	a5,a3,1
   14a2c:	00179793          	slli	a5,a5,0x1
   14a30:	a95ff06f          	j	144c4 <_malloc_r+0x208>

00014a34 <memchr>:
   14a34:	00357793          	andi	a5,a0,3
   14a38:	0ff5f693          	andi	a3,a1,255
   14a3c:	0c078063          	beqz	a5,14afc <memchr+0xc8>
   14a40:	fff60793          	addi	a5,a2,-1
   14a44:	06060063          	beqz	a2,14aa4 <memchr+0x70>
   14a48:	00054703          	lbu	a4,0(a0)
   14a4c:	00d71c63          	bne	a4,a3,14a64 <memchr+0x30>
   14a50:	0b40006f          	j	14b04 <memchr+0xd0>
   14a54:	04078863          	beqz	a5,14aa4 <memchr+0x70>
   14a58:	00054703          	lbu	a4,0(a0)
   14a5c:	fff78793          	addi	a5,a5,-1
   14a60:	04d70463          	beq	a4,a3,14aa8 <memchr+0x74>
   14a64:	00150513          	addi	a0,a0,1
   14a68:	00357713          	andi	a4,a0,3
   14a6c:	fe0714e3          	bnez	a4,14a54 <memchr+0x20>
   14a70:	00300813          	li	a6,3
   14a74:	02f86c63          	bltu	a6,a5,14aac <memchr+0x78>
   14a78:	02078663          	beqz	a5,14aa4 <memchr+0x70>
   14a7c:	00054703          	lbu	a4,0(a0)
   14a80:	02d70463          	beq	a4,a3,14aa8 <memchr+0x74>
   14a84:	00150713          	addi	a4,a0,1
   14a88:	00f507b3          	add	a5,a0,a5
   14a8c:	0100006f          	j	14a9c <memchr+0x68>
   14a90:	00170713          	addi	a4,a4,1
   14a94:	fff74603          	lbu	a2,-1(a4)
   14a98:	00d60863          	beq	a2,a3,14aa8 <memchr+0x74>
   14a9c:	00070513          	mv	a0,a4
   14aa0:	fee798e3          	bne	a5,a4,14a90 <memchr+0x5c>
   14aa4:	00000513          	li	a0,0
   14aa8:	00008067          	ret
   14aac:	0ff5f593          	andi	a1,a1,255
   14ab0:	00859713          	slli	a4,a1,0x8
   14ab4:	00b765b3          	or	a1,a4,a1
   14ab8:	01059713          	slli	a4,a1,0x10
   14abc:	feff02b7          	lui	t0,0xfeff0
   14ac0:	808088b7          	lui	a7,0x80808
   14ac4:	00e5e5b3          	or	a1,a1,a4
   14ac8:	eff28293          	addi	t0,t0,-257 # fefefeff <_gp+0xfefd316f>
   14acc:	08088893          	addi	a7,a7,128 # 80808080 <_gp+0x807eb2f0>
   14ad0:	00052703          	lw	a4,0(a0)
   14ad4:	00e5c733          	xor	a4,a1,a4
   14ad8:	00570633          	add	a2,a4,t0
   14adc:	fff74713          	not	a4,a4
   14ae0:	00e67733          	and	a4,a2,a4
   14ae4:	01177733          	and	a4,a4,a7
   14ae8:	f8071ae3          	bnez	a4,14a7c <memchr+0x48>
   14aec:	ffc78793          	addi	a5,a5,-4
   14af0:	00450513          	addi	a0,a0,4
   14af4:	fcf86ee3          	bltu	a6,a5,14ad0 <memchr+0x9c>
   14af8:	f81ff06f          	j	14a78 <memchr+0x44>
   14afc:	00060793          	mv	a5,a2
   14b00:	f71ff06f          	j	14a70 <memchr+0x3c>
   14b04:	00008067          	ret

00014b08 <memcpy>:
   14b08:	00a5c7b3          	xor	a5,a1,a0
   14b0c:	0037f793          	andi	a5,a5,3
   14b10:	00c508b3          	add	a7,a0,a2
   14b14:	0e079263          	bnez	a5,14bf8 <memcpy+0xf0>
   14b18:	00300793          	li	a5,3
   14b1c:	0ec7fe63          	bleu	a2,a5,14c18 <memcpy+0x110>
   14b20:	00357793          	andi	a5,a0,3
   14b24:	04079a63          	bnez	a5,14b78 <memcpy+0x70>
   14b28:	ffc8f813          	andi	a6,a7,-4
   14b2c:	fe080793          	addi	a5,a6,-32
   14b30:	00050713          	mv	a4,a0
   14b34:	06f56663          	bltu	a0,a5,14ba0 <memcpy+0x98>
   14b38:	00058693          	mv	a3,a1
   14b3c:	00070793          	mv	a5,a4
   14b40:	03077863          	bleu	a6,a4,14b70 <memcpy+0x68>
   14b44:	0006a603          	lw	a2,0(a3)
   14b48:	00478793          	addi	a5,a5,4
   14b4c:	00468693          	addi	a3,a3,4
   14b50:	fec7ae23          	sw	a2,-4(a5)
   14b54:	ff07e8e3          	bltu	a5,a6,14b44 <memcpy+0x3c>
   14b58:	fff74793          	not	a5,a4
   14b5c:	01078833          	add	a6,a5,a6
   14b60:	ffc87813          	andi	a6,a6,-4
   14b64:	00480813          	addi	a6,a6,4
   14b68:	01070733          	add	a4,a4,a6
   14b6c:	010585b3          	add	a1,a1,a6
   14b70:	09176863          	bltu	a4,a7,14c00 <memcpy+0xf8>
   14b74:	00008067          	ret
   14b78:	00050713          	mv	a4,a0
   14b7c:	0005c683          	lbu	a3,0(a1)
   14b80:	00170713          	addi	a4,a4,1
   14b84:	00377793          	andi	a5,a4,3
   14b88:	00158593          	addi	a1,a1,1
   14b8c:	fed70fa3          	sb	a3,-1(a4)
   14b90:	fe0796e3          	bnez	a5,14b7c <memcpy+0x74>
   14b94:	ffc8f813          	andi	a6,a7,-4
   14b98:	fe080793          	addi	a5,a6,-32
   14b9c:	f8f77ee3          	bleu	a5,a4,14b38 <memcpy+0x30>
   14ba0:	0005af83          	lw	t6,0(a1)
   14ba4:	0045af03          	lw	t5,4(a1)
   14ba8:	0085ae83          	lw	t4,8(a1)
   14bac:	00c5ae03          	lw	t3,12(a1)
   14bb0:	0105a383          	lw	t2,16(a1)
   14bb4:	0145a303          	lw	t1,20(a1)
   14bb8:	0185a283          	lw	t0,24(a1)
   14bbc:	01c5a603          	lw	a2,28(a1)
   14bc0:	02458593          	addi	a1,a1,36
   14bc4:	02470713          	addi	a4,a4,36
   14bc8:	ffc5a683          	lw	a3,-4(a1)
   14bcc:	fdf72e23          	sw	t6,-36(a4)
   14bd0:	ffe72023          	sw	t5,-32(a4)
   14bd4:	ffd72223          	sw	t4,-28(a4)
   14bd8:	ffc72423          	sw	t3,-24(a4)
   14bdc:	fe772623          	sw	t2,-20(a4)
   14be0:	fe672823          	sw	t1,-16(a4)
   14be4:	fe572a23          	sw	t0,-12(a4)
   14be8:	fec72c23          	sw	a2,-8(a4)
   14bec:	fed72e23          	sw	a3,-4(a4)
   14bf0:	faf768e3          	bltu	a4,a5,14ba0 <memcpy+0x98>
   14bf4:	f45ff06f          	j	14b38 <memcpy+0x30>
   14bf8:	00050713          	mv	a4,a0
   14bfc:	03157463          	bleu	a7,a0,14c24 <memcpy+0x11c>
   14c00:	0005c783          	lbu	a5,0(a1)
   14c04:	00170713          	addi	a4,a4,1
   14c08:	00158593          	addi	a1,a1,1
   14c0c:	fef70fa3          	sb	a5,-1(a4)
   14c10:	ff1768e3          	bltu	a4,a7,14c00 <memcpy+0xf8>
   14c14:	00008067          	ret
   14c18:	00050713          	mv	a4,a0
   14c1c:	ff1562e3          	bltu	a0,a7,14c00 <memcpy+0xf8>
   14c20:	f55ff06f          	j	14b74 <memcpy+0x6c>
   14c24:	00008067          	ret

00014c28 <memset>:
   14c28:	00f00813          	li	a6,15
   14c2c:	00050713          	mv	a4,a0
   14c30:	02c87e63          	bleu	a2,a6,14c6c <memset+0x44>
   14c34:	00f77793          	andi	a5,a4,15
   14c38:	0a079063          	bnez	a5,14cd8 <memset+0xb0>
   14c3c:	08059263          	bnez	a1,14cc0 <memset+0x98>
   14c40:	ff067693          	andi	a3,a2,-16
   14c44:	00f67613          	andi	a2,a2,15
   14c48:	00e686b3          	add	a3,a3,a4
   14c4c:	00b72023          	sw	a1,0(a4)
   14c50:	00b72223          	sw	a1,4(a4)
   14c54:	00b72423          	sw	a1,8(a4)
   14c58:	00b72623          	sw	a1,12(a4)
   14c5c:	01070713          	addi	a4,a4,16
   14c60:	fed766e3          	bltu	a4,a3,14c4c <memset+0x24>
   14c64:	00061463          	bnez	a2,14c6c <memset+0x44>
   14c68:	00008067          	ret
   14c6c:	40c806b3          	sub	a3,a6,a2
   14c70:	00269693          	slli	a3,a3,0x2
   14c74:	00000297          	auipc	t0,0x0
   14c78:	005686b3          	add	a3,a3,t0
   14c7c:	00c68067          	jr	a3,12
   14c80:	00b70723          	sb	a1,14(a4)
   14c84:	00b706a3          	sb	a1,13(a4)
   14c88:	00b70623          	sb	a1,12(a4)
   14c8c:	00b705a3          	sb	a1,11(a4)
   14c90:	00b70523          	sb	a1,10(a4)
   14c94:	00b704a3          	sb	a1,9(a4)
   14c98:	00b70423          	sb	a1,8(a4)
   14c9c:	00b703a3          	sb	a1,7(a4)
   14ca0:	00b70323          	sb	a1,6(a4)
   14ca4:	00b702a3          	sb	a1,5(a4)
   14ca8:	00b70223          	sb	a1,4(a4)
   14cac:	00b701a3          	sb	a1,3(a4)
   14cb0:	00b70123          	sb	a1,2(a4)
   14cb4:	00b700a3          	sb	a1,1(a4)
   14cb8:	00b70023          	sb	a1,0(a4)
   14cbc:	00008067          	ret
   14cc0:	0ff5f593          	andi	a1,a1,255
   14cc4:	00859693          	slli	a3,a1,0x8
   14cc8:	00d5e5b3          	or	a1,a1,a3
   14ccc:	01059693          	slli	a3,a1,0x10
   14cd0:	00d5e5b3          	or	a1,a1,a3
   14cd4:	f6dff06f          	j	14c40 <memset+0x18>
   14cd8:	00279693          	slli	a3,a5,0x2
   14cdc:	00000297          	auipc	t0,0x0
   14ce0:	005686b3          	add	a3,a3,t0
   14ce4:	00008293          	mv	t0,ra
   14ce8:	fa0680e7          	jalr	a3,-96
   14cec:	00028093          	mv	ra,t0
   14cf0:	ff078793          	addi	a5,a5,-16
   14cf4:	40f70733          	sub	a4,a4,a5
   14cf8:	00f60633          	add	a2,a2,a5
   14cfc:	f6c878e3          	bleu	a2,a6,14c6c <memset+0x44>
   14d00:	f3dff06f          	j	14c3c <memset+0x14>

00014d04 <__malloc_lock>:
   14d04:	00008067          	ret

00014d08 <__malloc_unlock>:
   14d08:	00008067          	ret

00014d0c <_Balloc>:
   14d0c:	04c52783          	lw	a5,76(a0)
   14d10:	ff010113          	addi	sp,sp,-16
   14d14:	00812423          	sw	s0,8(sp)
   14d18:	00912223          	sw	s1,4(sp)
   14d1c:	00112623          	sw	ra,12(sp)
   14d20:	01212023          	sw	s2,0(sp)
   14d24:	00050413          	mv	s0,a0
   14d28:	00058493          	mv	s1,a1
   14d2c:	02078e63          	beqz	a5,14d68 <_Balloc+0x5c>
   14d30:	00249713          	slli	a4,s1,0x2
   14d34:	00e787b3          	add	a5,a5,a4
   14d38:	0007a503          	lw	a0,0(a5)
   14d3c:	04050663          	beqz	a0,14d88 <_Balloc+0x7c>
   14d40:	00052703          	lw	a4,0(a0)
   14d44:	00e7a023          	sw	a4,0(a5)
   14d48:	00052823          	sw	zero,16(a0)
   14d4c:	00052623          	sw	zero,12(a0)
   14d50:	00c12083          	lw	ra,12(sp)
   14d54:	00812403          	lw	s0,8(sp)
   14d58:	00412483          	lw	s1,4(sp)
   14d5c:	00012903          	lw	s2,0(sp)
   14d60:	01010113          	addi	sp,sp,16
   14d64:	00008067          	ret
   14d68:	02100613          	li	a2,33
   14d6c:	00400593          	li	a1,4
   14d70:	4d4020ef          	jal	17244 <_calloc_r>
   14d74:	00050793          	mv	a5,a0
   14d78:	04a42623          	sw	a0,76(s0)
   14d7c:	fa051ae3          	bnez	a0,14d30 <_Balloc+0x24>
   14d80:	00000513          	li	a0,0
   14d84:	fcdff06f          	j	14d50 <_Balloc+0x44>
   14d88:	00100593          	li	a1,1
   14d8c:	00959933          	sll	s2,a1,s1
   14d90:	00590613          	addi	a2,s2,5
   14d94:	00261613          	slli	a2,a2,0x2
   14d98:	00040513          	mv	a0,s0
   14d9c:	4a8020ef          	jal	17244 <_calloc_r>
   14da0:	fe0500e3          	beqz	a0,14d80 <_Balloc+0x74>
   14da4:	00952223          	sw	s1,4(a0)
   14da8:	01252423          	sw	s2,8(a0)
   14dac:	f9dff06f          	j	14d48 <_Balloc+0x3c>

00014db0 <_Bfree>:
   14db0:	02058063          	beqz	a1,14dd0 <_Bfree+0x20>
   14db4:	0045a783          	lw	a5,4(a1)
   14db8:	04c52703          	lw	a4,76(a0)
   14dbc:	00279793          	slli	a5,a5,0x2
   14dc0:	00f707b3          	add	a5,a4,a5
   14dc4:	0007a703          	lw	a4,0(a5)
   14dc8:	00e5a023          	sw	a4,0(a1)
   14dcc:	00b7a023          	sw	a1,0(a5)
   14dd0:	00008067          	ret

00014dd4 <__multadd>:
   14dd4:	fd010113          	addi	sp,sp,-48
   14dd8:	00010837          	lui	a6,0x10
   14ddc:	02812423          	sw	s0,40(sp)
   14de0:	02912223          	sw	s1,36(sp)
   14de4:	03212023          	sw	s2,32(sp)
   14de8:	00058493          	mv	s1,a1
   14dec:	0105a403          	lw	s0,16(a1)
   14df0:	00050913          	mv	s2,a0
   14df4:	02112623          	sw	ra,44(sp)
   14df8:	01312e23          	sw	s3,28(sp)
   14dfc:	01458593          	addi	a1,a1,20
   14e00:	00000513          	li	a0,0
   14e04:	fff80813          	addi	a6,a6,-1 # ffff <_ftext-0x1>
   14e08:	0005a783          	lw	a5,0(a1)
   14e0c:	00150513          	addi	a0,a0,1
   14e10:	00458593          	addi	a1,a1,4
   14e14:	0107f733          	and	a4,a5,a6
   14e18:	02c70733          	mul	a4,a4,a2
   14e1c:	0107d793          	srli	a5,a5,0x10
   14e20:	02c787b3          	mul	a5,a5,a2
   14e24:	00d70733          	add	a4,a4,a3
   14e28:	01075693          	srli	a3,a4,0x10
   14e2c:	01077733          	and	a4,a4,a6
   14e30:	00d786b3          	add	a3,a5,a3
   14e34:	01069793          	slli	a5,a3,0x10
   14e38:	00e78733          	add	a4,a5,a4
   14e3c:	0106d693          	srli	a3,a3,0x10
   14e40:	fee5ae23          	sw	a4,-4(a1)
   14e44:	fc8542e3          	blt	a0,s0,14e08 <__multadd+0x34>
   14e48:	02068263          	beqz	a3,14e6c <__multadd+0x98>
   14e4c:	0084a783          	lw	a5,8(s1)
   14e50:	02f45e63          	ble	a5,s0,14e8c <__multadd+0xb8>
   14e54:	00440793          	addi	a5,s0,4
   14e58:	00279793          	slli	a5,a5,0x2
   14e5c:	00f487b3          	add	a5,s1,a5
   14e60:	00140413          	addi	s0,s0,1
   14e64:	00d7a223          	sw	a3,4(a5)
   14e68:	0084a823          	sw	s0,16(s1)
   14e6c:	02c12083          	lw	ra,44(sp)
   14e70:	00048513          	mv	a0,s1
   14e74:	02812403          	lw	s0,40(sp)
   14e78:	02412483          	lw	s1,36(sp)
   14e7c:	02012903          	lw	s2,32(sp)
   14e80:	01c12983          	lw	s3,28(sp)
   14e84:	03010113          	addi	sp,sp,48
   14e88:	00008067          	ret
   14e8c:	0044a583          	lw	a1,4(s1)
   14e90:	00090513          	mv	a0,s2
   14e94:	00d12623          	sw	a3,12(sp)
   14e98:	00158593          	addi	a1,a1,1
   14e9c:	e71ff0ef          	jal	14d0c <_Balloc>
   14ea0:	0104a603          	lw	a2,16(s1)
   14ea4:	00050993          	mv	s3,a0
   14ea8:	00c48593          	addi	a1,s1,12
   14eac:	00260613          	addi	a2,a2,2
   14eb0:	00c50513          	addi	a0,a0,12
   14eb4:	00261613          	slli	a2,a2,0x2
   14eb8:	c51ff0ef          	jal	14b08 <memcpy>
   14ebc:	0044a783          	lw	a5,4(s1)
   14ec0:	04c92703          	lw	a4,76(s2)
   14ec4:	00c12683          	lw	a3,12(sp)
   14ec8:	00279793          	slli	a5,a5,0x2
   14ecc:	00f707b3          	add	a5,a4,a5
   14ed0:	0007a703          	lw	a4,0(a5)
   14ed4:	00e4a023          	sw	a4,0(s1)
   14ed8:	0097a023          	sw	s1,0(a5)
   14edc:	00098493          	mv	s1,s3
   14ee0:	f75ff06f          	j	14e54 <__multadd+0x80>

00014ee4 <__s2b>:
   14ee4:	fe010113          	addi	sp,sp,-32
   14ee8:	00868793          	addi	a5,a3,8
   14eec:	01312623          	sw	s3,12(sp)
   14ef0:	00068993          	mv	s3,a3
   14ef4:	00900693          	li	a3,9
   14ef8:	02d7c6b3          	div	a3,a5,a3
   14efc:	00100793          	li	a5,1
   14f00:	00812c23          	sw	s0,24(sp)
   14f04:	00912a23          	sw	s1,20(sp)
   14f08:	01212823          	sw	s2,16(sp)
   14f0c:	01412423          	sw	s4,8(sp)
   14f10:	00058413          	mv	s0,a1
   14f14:	00112e23          	sw	ra,28(sp)
   14f18:	01512223          	sw	s5,4(sp)
   14f1c:	00050913          	mv	s2,a0
   14f20:	00060a13          	mv	s4,a2
   14f24:	00070493          	mv	s1,a4
   14f28:	00000593          	li	a1,0
   14f2c:	00d7d863          	ble	a3,a5,14f3c <__s2b+0x58>
   14f30:	00179793          	slli	a5,a5,0x1
   14f34:	00158593          	addi	a1,a1,1
   14f38:	fed7cce3          	blt	a5,a3,14f30 <__s2b+0x4c>
   14f3c:	00090513          	mv	a0,s2
   14f40:	dcdff0ef          	jal	14d0c <_Balloc>
   14f44:	00100713          	li	a4,1
   14f48:	00900793          	li	a5,9
   14f4c:	00952a23          	sw	s1,20(a0)
   14f50:	00e52823          	sw	a4,16(a0)
   14f54:	0947d463          	ble	s4,a5,14fdc <__s2b+0xf8>
   14f58:	00f40ab3          	add	s5,s0,a5
   14f5c:	000a8493          	mv	s1,s5
   14f60:	01440433          	add	s0,s0,s4
   14f64:	00148493          	addi	s1,s1,1
   14f68:	fff4c683          	lbu	a3,-1(s1)
   14f6c:	00050593          	mv	a1,a0
   14f70:	00a00613          	li	a2,10
   14f74:	fd068693          	addi	a3,a3,-48
   14f78:	00090513          	mv	a0,s2
   14f7c:	e59ff0ef          	jal	14dd4 <__multadd>
   14f80:	fe8492e3          	bne	s1,s0,14f64 <__s2b+0x80>
   14f84:	014a8433          	add	s0,s5,s4
   14f88:	ff840413          	addi	s0,s0,-8
   14f8c:	033a5663          	ble	s3,s4,14fb8 <__s2b+0xd4>
   14f90:	414984b3          	sub	s1,s3,s4
   14f94:	009404b3          	add	s1,s0,s1
   14f98:	00140413          	addi	s0,s0,1
   14f9c:	fff44683          	lbu	a3,-1(s0)
   14fa0:	00050593          	mv	a1,a0
   14fa4:	00a00613          	li	a2,10
   14fa8:	fd068693          	addi	a3,a3,-48
   14fac:	00090513          	mv	a0,s2
   14fb0:	e25ff0ef          	jal	14dd4 <__multadd>
   14fb4:	fe8492e3          	bne	s1,s0,14f98 <__s2b+0xb4>
   14fb8:	01c12083          	lw	ra,28(sp)
   14fbc:	01812403          	lw	s0,24(sp)
   14fc0:	01412483          	lw	s1,20(sp)
   14fc4:	01012903          	lw	s2,16(sp)
   14fc8:	00c12983          	lw	s3,12(sp)
   14fcc:	00812a03          	lw	s4,8(sp)
   14fd0:	00412a83          	lw	s5,4(sp)
   14fd4:	02010113          	addi	sp,sp,32
   14fd8:	00008067          	ret
   14fdc:	00a40413          	addi	s0,s0,10
   14fe0:	00078a13          	mv	s4,a5
   14fe4:	fa9ff06f          	j	14f8c <__s2b+0xa8>

00014fe8 <__hi0bits>:
   14fe8:	ffff06b7          	lui	a3,0xffff0
   14fec:	00d576b3          	and	a3,a0,a3
   14ff0:	00050793          	mv	a5,a0
   14ff4:	00000713          	li	a4,0
   14ff8:	00069663          	bnez	a3,15004 <__hi0bits+0x1c>
   14ffc:	01051793          	slli	a5,a0,0x10
   15000:	01000713          	li	a4,16
   15004:	ff0006b7          	lui	a3,0xff000
   15008:	00d7f6b3          	and	a3,a5,a3
   1500c:	00069663          	bnez	a3,15018 <__hi0bits+0x30>
   15010:	00870713          	addi	a4,a4,8
   15014:	00879793          	slli	a5,a5,0x8
   15018:	f00006b7          	lui	a3,0xf0000
   1501c:	00d7f6b3          	and	a3,a5,a3
   15020:	00069663          	bnez	a3,1502c <__hi0bits+0x44>
   15024:	00470713          	addi	a4,a4,4
   15028:	00479793          	slli	a5,a5,0x4
   1502c:	c00006b7          	lui	a3,0xc0000
   15030:	00d7f6b3          	and	a3,a5,a3
   15034:	00069663          	bnez	a3,15040 <__hi0bits+0x58>
   15038:	00270713          	addi	a4,a4,2
   1503c:	00279793          	slli	a5,a5,0x2
   15040:	0007ce63          	bltz	a5,1505c <__hi0bits+0x74>
   15044:	00179693          	slli	a3,a5,0x1
   15048:	02000513          	li	a0,32
   1504c:	0006c463          	bltz	a3,15054 <__hi0bits+0x6c>
   15050:	00008067          	ret
   15054:	00170513          	addi	a0,a4,1
   15058:	00008067          	ret
   1505c:	00070513          	mv	a0,a4
   15060:	00008067          	ret

00015064 <__lo0bits>:
   15064:	00052783          	lw	a5,0(a0)
   15068:	00050693          	mv	a3,a0
   1506c:	0077f713          	andi	a4,a5,7
   15070:	02070463          	beqz	a4,15098 <__lo0bits+0x34>
   15074:	0017f713          	andi	a4,a5,1
   15078:	00000513          	li	a0,0
   1507c:	08071263          	bnez	a4,15100 <__lo0bits+0x9c>
   15080:	0027f713          	andi	a4,a5,2
   15084:	08071063          	bnez	a4,15104 <__lo0bits+0xa0>
   15088:	0027d793          	srli	a5,a5,0x2
   1508c:	00f6a023          	sw	a5,0(a3) # c0000000 <_gp+0xbffe3270>
   15090:	00200513          	li	a0,2
   15094:	00008067          	ret
   15098:	01079613          	slli	a2,a5,0x10
   1509c:	01065613          	srli	a2,a2,0x10
   150a0:	00000713          	li	a4,0
   150a4:	00061663          	bnez	a2,150b0 <__lo0bits+0x4c>
   150a8:	0107d793          	srli	a5,a5,0x10
   150ac:	01000713          	li	a4,16
   150b0:	0ff7f613          	andi	a2,a5,255
   150b4:	00061663          	bnez	a2,150c0 <__lo0bits+0x5c>
   150b8:	00870713          	addi	a4,a4,8
   150bc:	0087d793          	srli	a5,a5,0x8
   150c0:	00f7f613          	andi	a2,a5,15
   150c4:	00061663          	bnez	a2,150d0 <__lo0bits+0x6c>
   150c8:	00470713          	addi	a4,a4,4
   150cc:	0047d793          	srli	a5,a5,0x4
   150d0:	0037f613          	andi	a2,a5,3
   150d4:	00061663          	bnez	a2,150e0 <__lo0bits+0x7c>
   150d8:	00270713          	addi	a4,a4,2
   150dc:	0027d793          	srli	a5,a5,0x2
   150e0:	0017f613          	andi	a2,a5,1
   150e4:	00061a63          	bnez	a2,150f8 <__lo0bits+0x94>
   150e8:	0017d793          	srli	a5,a5,0x1
   150ec:	02000513          	li	a0,32
   150f0:	00078863          	beqz	a5,15100 <__lo0bits+0x9c>
   150f4:	00170713          	addi	a4,a4,1
   150f8:	00f6a023          	sw	a5,0(a3)
   150fc:	00070513          	mv	a0,a4
   15100:	00008067          	ret
   15104:	0017d793          	srli	a5,a5,0x1
   15108:	00f6a023          	sw	a5,0(a3)
   1510c:	00100513          	li	a0,1
   15110:	00008067          	ret

00015114 <__i2b>:
   15114:	ff010113          	addi	sp,sp,-16
   15118:	00812423          	sw	s0,8(sp)
   1511c:	00058413          	mv	s0,a1
   15120:	00100593          	li	a1,1
   15124:	00112623          	sw	ra,12(sp)
   15128:	be5ff0ef          	jal	14d0c <_Balloc>
   1512c:	00c12083          	lw	ra,12(sp)
   15130:	00100713          	li	a4,1
   15134:	00852a23          	sw	s0,20(a0)
   15138:	00e52823          	sw	a4,16(a0)
   1513c:	00812403          	lw	s0,8(sp)
   15140:	01010113          	addi	sp,sp,16
   15144:	00008067          	ret

00015148 <__multiply>:
   15148:	fe010113          	addi	sp,sp,-32
   1514c:	01312623          	sw	s3,12(sp)
   15150:	01412423          	sw	s4,8(sp)
   15154:	0105a983          	lw	s3,16(a1)
   15158:	01062a03          	lw	s4,16(a2)
   1515c:	00912a23          	sw	s1,20(sp)
   15160:	01212823          	sw	s2,16(sp)
   15164:	00112e23          	sw	ra,28(sp)
   15168:	00812c23          	sw	s0,24(sp)
   1516c:	00058913          	mv	s2,a1
   15170:	00060493          	mv	s1,a2
   15174:	0149dc63          	ble	s4,s3,1518c <__multiply+0x44>
   15178:	00098713          	mv	a4,s3
   1517c:	00060913          	mv	s2,a2
   15180:	000a0993          	mv	s3,s4
   15184:	00058493          	mv	s1,a1
   15188:	00070a13          	mv	s4,a4
   1518c:	00892783          	lw	a5,8(s2)
   15190:	00492583          	lw	a1,4(s2)
   15194:	01498433          	add	s0,s3,s4
   15198:	0087a7b3          	slt	a5,a5,s0
   1519c:	00f585b3          	add	a1,a1,a5
   151a0:	b6dff0ef          	jal	14d0c <_Balloc>
   151a4:	01450293          	addi	t0,a0,20
   151a8:	00241893          	slli	a7,s0,0x2
   151ac:	011288b3          	add	a7,t0,a7
   151b0:	00028793          	mv	a5,t0
   151b4:	0112f863          	bleu	a7,t0,151c4 <__multiply+0x7c>
   151b8:	0007a023          	sw	zero,0(a5)
   151bc:	00478793          	addi	a5,a5,4
   151c0:	ff17ece3          	bltu	a5,a7,151b8 <__multiply+0x70>
   151c4:	01448613          	addi	a2,s1,20
   151c8:	002a1313          	slli	t1,s4,0x2
   151cc:	01490393          	addi	t2,s2,20
   151d0:	00299813          	slli	a6,s3,0x2
   151d4:	000105b7          	lui	a1,0x10
   151d8:	00660333          	add	t1,a2,t1
   151dc:	01038833          	add	a6,t2,a6
   151e0:	fff58593          	addi	a1,a1,-1 # ffff <_ftext-0x1>
   151e4:	10667463          	bleu	t1,a2,152ec <__multiply+0x1a4>
   151e8:	00062f83          	lw	t6,0(a2)
   151ec:	00bff933          	and	s2,t6,a1
   151f0:	06090a63          	beqz	s2,15264 <__multiply+0x11c>
   151f4:	00028f93          	mv	t6,t0
   151f8:	00038f13          	mv	t5,t2
   151fc:	00000693          	li	a3,0
   15200:	0080006f          	j	15208 <__multiply+0xc0>
   15204:	00048f93          	mv	t6,s1
   15208:	000f2e03          	lw	t3,0(t5)
   1520c:	000fae83          	lw	t4,0(t6)
   15210:	004f8493          	addi	s1,t6,4
   15214:	00be7733          	and	a4,t3,a1
   15218:	03270733          	mul	a4,a4,s2
   1521c:	010e5e13          	srli	t3,t3,0x10
   15220:	00bef7b3          	and	a5,t4,a1
   15224:	010ede93          	srli	t4,t4,0x10
   15228:	004f0f13          	addi	t5,t5,4
   1522c:	032e0e33          	mul	t3,t3,s2
   15230:	00f70733          	add	a4,a4,a5
   15234:	00d707b3          	add	a5,a4,a3
   15238:	0107d693          	srli	a3,a5,0x10
   1523c:	00b7f7b3          	and	a5,a5,a1
   15240:	01de0e33          	add	t3,t3,t4
   15244:	00de06b3          	add	a3,t3,a3
   15248:	01069713          	slli	a4,a3,0x10
   1524c:	00f76733          	or	a4,a4,a5
   15250:	0106d693          	srli	a3,a3,0x10
   15254:	fee4ae23          	sw	a4,-4(s1)
   15258:	fb0f66e3          	bltu	t5,a6,15204 <__multiply+0xbc>
   1525c:	00dfa223          	sw	a3,4(t6)
   15260:	00062f83          	lw	t6,0(a2)
   15264:	010fdf93          	srli	t6,t6,0x10
   15268:	060f8c63          	beqz	t6,152e0 <__multiply+0x198>
   1526c:	0002a783          	lw	a5,0(t0) # 14cdc <memset+0xb4>
   15270:	00028f13          	mv	t5,t0
   15274:	00038e93          	mv	t4,t2
   15278:	00078e13          	mv	t3,a5
   1527c:	00000913          	li	s2,0
   15280:	0080006f          	j	15288 <__multiply+0x140>
   15284:	00048f13          	mv	t5,s1
   15288:	000ea703          	lw	a4,0(t4)
   1528c:	010e5693          	srli	a3,t3,0x10
   15290:	00b7f7b3          	and	a5,a5,a1
   15294:	00b77733          	and	a4,a4,a1
   15298:	03f70733          	mul	a4,a4,t6
   1529c:	004f0493          	addi	s1,t5,4
   152a0:	004e8e93          	addi	t4,t4,4
   152a4:	00d706b3          	add	a3,a4,a3
   152a8:	012686b3          	add	a3,a3,s2
   152ac:	01069713          	slli	a4,a3,0x10
   152b0:	00f767b3          	or	a5,a4,a5
   152b4:	fef4ae23          	sw	a5,-4(s1)
   152b8:	ffeed703          	lhu	a4,-2(t4)
   152bc:	004f2e03          	lw	t3,4(t5)
   152c0:	0106d693          	srli	a3,a3,0x10
   152c4:	03f70733          	mul	a4,a4,t6
   152c8:	00be77b3          	and	a5,t3,a1
   152cc:	00f707b3          	add	a5,a4,a5
   152d0:	00d787b3          	add	a5,a5,a3
   152d4:	0107d913          	srli	s2,a5,0x10
   152d8:	fb0ee6e3          	bltu	t4,a6,15284 <__multiply+0x13c>
   152dc:	00ff2223          	sw	a5,4(t5)
   152e0:	00460613          	addi	a2,a2,4
   152e4:	00428293          	addi	t0,t0,4
   152e8:	f06660e3          	bltu	a2,t1,151e8 <__multiply+0xa0>
   152ec:	02805463          	blez	s0,15314 <__multiply+0x1cc>
   152f0:	ffc8a783          	lw	a5,-4(a7)
   152f4:	ffc88893          	addi	a7,a7,-4
   152f8:	00078863          	beqz	a5,15308 <__multiply+0x1c0>
   152fc:	0180006f          	j	15314 <__multiply+0x1cc>
   15300:	0008a783          	lw	a5,0(a7)
   15304:	00079863          	bnez	a5,15314 <__multiply+0x1cc>
   15308:	fff40413          	addi	s0,s0,-1
   1530c:	ffc88893          	addi	a7,a7,-4
   15310:	fe0418e3          	bnez	s0,15300 <__multiply+0x1b8>
   15314:	01c12083          	lw	ra,28(sp)
   15318:	00852823          	sw	s0,16(a0)
   1531c:	01412483          	lw	s1,20(sp)
   15320:	01812403          	lw	s0,24(sp)
   15324:	01012903          	lw	s2,16(sp)
   15328:	00c12983          	lw	s3,12(sp)
   1532c:	00812a03          	lw	s4,8(sp)
   15330:	02010113          	addi	sp,sp,32
   15334:	00008067          	ret

00015338 <__pow5mult>:
   15338:	fe010113          	addi	sp,sp,-32
   1533c:	00367793          	andi	a5,a2,3
   15340:	00812c23          	sw	s0,24(sp)
   15344:	01212823          	sw	s2,16(sp)
   15348:	01312623          	sw	s3,12(sp)
   1534c:	00112e23          	sw	ra,28(sp)
   15350:	00912a23          	sw	s1,20(sp)
   15354:	00060413          	mv	s0,a2
   15358:	00050993          	mv	s3,a0
   1535c:	00058913          	mv	s2,a1
   15360:	0a079e63          	bnez	a5,1541c <__pow5mult+0xe4>
   15364:	40245413          	srai	s0,s0,0x2
   15368:	06040663          	beqz	s0,153d4 <__pow5mult+0x9c>
   1536c:	0489a483          	lw	s1,72(s3)
   15370:	0c048a63          	beqz	s1,15444 <__pow5mult+0x10c>
   15374:	00147793          	andi	a5,s0,1
   15378:	02079063          	bnez	a5,15398 <__pow5mult+0x60>
   1537c:	40145413          	srai	s0,s0,0x1
   15380:	04040a63          	beqz	s0,153d4 <__pow5mult+0x9c>
   15384:	0004a503          	lw	a0,0(s1)
   15388:	06050663          	beqz	a0,153f4 <__pow5mult+0xbc>
   1538c:	00050493          	mv	s1,a0
   15390:	00147793          	andi	a5,s0,1
   15394:	fe0784e3          	beqz	a5,1537c <__pow5mult+0x44>
   15398:	00048613          	mv	a2,s1
   1539c:	00090593          	mv	a1,s2
   153a0:	00098513          	mv	a0,s3
   153a4:	da5ff0ef          	jal	15148 <__multiply>
   153a8:	06090663          	beqz	s2,15414 <__pow5mult+0xdc>
   153ac:	00492783          	lw	a5,4(s2)
   153b0:	04c9a703          	lw	a4,76(s3)
   153b4:	40145413          	srai	s0,s0,0x1
   153b8:	00279793          	slli	a5,a5,0x2
   153bc:	00f707b3          	add	a5,a4,a5
   153c0:	0007a703          	lw	a4,0(a5)
   153c4:	00e92023          	sw	a4,0(s2)
   153c8:	0127a023          	sw	s2,0(a5)
   153cc:	00050913          	mv	s2,a0
   153d0:	fa041ae3          	bnez	s0,15384 <__pow5mult+0x4c>
   153d4:	01c12083          	lw	ra,28(sp)
   153d8:	00090513          	mv	a0,s2
   153dc:	01812403          	lw	s0,24(sp)
   153e0:	01412483          	lw	s1,20(sp)
   153e4:	01012903          	lw	s2,16(sp)
   153e8:	00c12983          	lw	s3,12(sp)
   153ec:	02010113          	addi	sp,sp,32
   153f0:	00008067          	ret
   153f4:	00048613          	mv	a2,s1
   153f8:	00048593          	mv	a1,s1
   153fc:	00098513          	mv	a0,s3
   15400:	d49ff0ef          	jal	15148 <__multiply>
   15404:	00a4a023          	sw	a0,0(s1)
   15408:	00052023          	sw	zero,0(a0)
   1540c:	00050493          	mv	s1,a0
   15410:	f81ff06f          	j	15390 <__pow5mult+0x58>
   15414:	00050913          	mv	s2,a0
   15418:	f65ff06f          	j	1537c <__pow5mult+0x44>
   1541c:	fff78793          	addi	a5,a5,-1
   15420:	0001a737          	lui	a4,0x1a
   15424:	6b070713          	addi	a4,a4,1712 # 1a6b0 <p05.2508>
   15428:	00279793          	slli	a5,a5,0x2
   1542c:	00f707b3          	add	a5,a4,a5
   15430:	0007a603          	lw	a2,0(a5)
   15434:	00000693          	li	a3,0
   15438:	99dff0ef          	jal	14dd4 <__multadd>
   1543c:	00050913          	mv	s2,a0
   15440:	f25ff06f          	j	15364 <__pow5mult+0x2c>
   15444:	00100593          	li	a1,1
   15448:	00098513          	mv	a0,s3
   1544c:	8c1ff0ef          	jal	14d0c <_Balloc>
   15450:	27100793          	li	a5,625
   15454:	00f52a23          	sw	a5,20(a0)
   15458:	00100793          	li	a5,1
   1545c:	00f52823          	sw	a5,16(a0)
   15460:	00050493          	mv	s1,a0
   15464:	04a9a423          	sw	a0,72(s3)
   15468:	00052023          	sw	zero,0(a0)
   1546c:	f09ff06f          	j	15374 <__pow5mult+0x3c>

00015470 <__lshift>:
   15470:	fe010113          	addi	sp,sp,-32
   15474:	01412423          	sw	s4,8(sp)
   15478:	0105aa03          	lw	s4,16(a1)
   1547c:	00812c23          	sw	s0,24(sp)
   15480:	0085a783          	lw	a5,8(a1)
   15484:	40565413          	srai	s0,a2,0x5
   15488:	01440a33          	add	s4,s0,s4
   1548c:	00912a23          	sw	s1,20(sp)
   15490:	001a0493          	addi	s1,s4,1
   15494:	01212823          	sw	s2,16(sp)
   15498:	01312623          	sw	s3,12(sp)
   1549c:	01512223          	sw	s5,4(sp)
   154a0:	00058993          	mv	s3,a1
   154a4:	00112e23          	sw	ra,28(sp)
   154a8:	00060913          	mv	s2,a2
   154ac:	00050a93          	mv	s5,a0
   154b0:	0045a583          	lw	a1,4(a1)
   154b4:	0097d863          	ble	s1,a5,154c4 <__lshift+0x54>
   154b8:	00179793          	slli	a5,a5,0x1
   154bc:	00158593          	addi	a1,a1,1
   154c0:	fe97cce3          	blt	a5,s1,154b8 <__lshift+0x48>
   154c4:	000a8513          	mv	a0,s5
   154c8:	845ff0ef          	jal	14d0c <_Balloc>
   154cc:	01450793          	addi	a5,a0,20
   154d0:	0e805463          	blez	s0,155b8 <__lshift+0x148>
   154d4:	00241713          	slli	a4,s0,0x2
   154d8:	00e78733          	add	a4,a5,a4
   154dc:	00478793          	addi	a5,a5,4
   154e0:	fe07ae23          	sw	zero,-4(a5)
   154e4:	fee79ce3          	bne	a5,a4,154dc <__lshift+0x6c>
   154e8:	0109a883          	lw	a7,16(s3)
   154ec:	01498793          	addi	a5,s3,20
   154f0:	01f97613          	andi	a2,s2,31
   154f4:	00289893          	slli	a7,a7,0x2
   154f8:	011788b3          	add	a7,a5,a7
   154fc:	08060863          	beqz	a2,1558c <__lshift+0x11c>
   15500:	02000293          	li	t0,32
   15504:	40c282b3          	sub	t0,t0,a2
   15508:	00000693          	li	a3,0
   1550c:	0080006f          	j	15514 <__lshift+0xa4>
   15510:	00080713          	mv	a4,a6
   15514:	0007a583          	lw	a1,0(a5)
   15518:	00470813          	addi	a6,a4,4
   1551c:	00478793          	addi	a5,a5,4
   15520:	00c595b3          	sll	a1,a1,a2
   15524:	00d5e6b3          	or	a3,a1,a3
   15528:	fed82e23          	sw	a3,-4(a6)
   1552c:	ffc7a683          	lw	a3,-4(a5)
   15530:	0056d6b3          	srl	a3,a3,t0
   15534:	fd17eee3          	bltu	a5,a7,15510 <__lshift+0xa0>
   15538:	00d72223          	sw	a3,4(a4)
   1553c:	00068463          	beqz	a3,15544 <__lshift+0xd4>
   15540:	002a0493          	addi	s1,s4,2
   15544:	0049a783          	lw	a5,4(s3)
   15548:	04caa703          	lw	a4,76(s5)
   1554c:	01c12083          	lw	ra,28(sp)
   15550:	00279793          	slli	a5,a5,0x2
   15554:	00f707b3          	add	a5,a4,a5
   15558:	0007a703          	lw	a4,0(a5)
   1555c:	fff48493          	addi	s1,s1,-1
   15560:	00952823          	sw	s1,16(a0)
   15564:	01812403          	lw	s0,24(sp)
   15568:	00e9a023          	sw	a4,0(s3)
   1556c:	01412483          	lw	s1,20(sp)
   15570:	0137a023          	sw	s3,0(a5)
   15574:	01012903          	lw	s2,16(sp)
   15578:	00c12983          	lw	s3,12(sp)
   1557c:	00812a03          	lw	s4,8(sp)
   15580:	00412a83          	lw	s5,4(sp)
   15584:	02010113          	addi	sp,sp,32
   15588:	00008067          	ret
   1558c:	00478793          	addi	a5,a5,4
   15590:	ffc7a683          	lw	a3,-4(a5)
   15594:	00470713          	addi	a4,a4,4
   15598:	fed72e23          	sw	a3,-4(a4)
   1559c:	fb17f4e3          	bleu	a7,a5,15544 <__lshift+0xd4>
   155a0:	00478793          	addi	a5,a5,4
   155a4:	ffc7a683          	lw	a3,-4(a5)
   155a8:	00470713          	addi	a4,a4,4
   155ac:	fed72e23          	sw	a3,-4(a4)
   155b0:	fd17eee3          	bltu	a5,a7,1558c <__lshift+0x11c>
   155b4:	f91ff06f          	j	15544 <__lshift+0xd4>
   155b8:	00078713          	mv	a4,a5
   155bc:	f2dff06f          	j	154e8 <__lshift+0x78>

000155c0 <__mcmp>:
   155c0:	01052703          	lw	a4,16(a0)
   155c4:	0105a783          	lw	a5,16(a1)
   155c8:	40f70733          	sub	a4,a4,a5
   155cc:	04071263          	bnez	a4,15610 <__mcmp+0x50>
   155d0:	00279713          	slli	a4,a5,0x2
   155d4:	01450513          	addi	a0,a0,20
   155d8:	01458593          	addi	a1,a1,20
   155dc:	00e507b3          	add	a5,a0,a4
   155e0:	00e585b3          	add	a1,a1,a4
   155e4:	0080006f          	j	155ec <__mcmp+0x2c>
   155e8:	02f57863          	bleu	a5,a0,15618 <__mcmp+0x58>
   155ec:	ffc78793          	addi	a5,a5,-4
   155f0:	ffc58593          	addi	a1,a1,-4
   155f4:	0007a703          	lw	a4,0(a5)
   155f8:	0005a683          	lw	a3,0(a1)
   155fc:	fed706e3          	beq	a4,a3,155e8 <__mcmp+0x28>
   15600:	00d73733          	sltu	a4,a4,a3
   15604:	40e00733          	neg	a4,a4
   15608:	00176513          	ori	a0,a4,1
   1560c:	00008067          	ret
   15610:	00070513          	mv	a0,a4
   15614:	00008067          	ret
   15618:	00000513          	li	a0,0
   1561c:	00008067          	ret

00015620 <__mdiff>:
   15620:	0105a783          	lw	a5,16(a1)
   15624:	01062703          	lw	a4,16(a2)
   15628:	fd010113          	addi	sp,sp,-48
   1562c:	03212023          	sw	s2,32(sp)
   15630:	40e787b3          	sub	a5,a5,a4
   15634:	02112623          	sw	ra,44(sp)
   15638:	02812423          	sw	s0,40(sp)
   1563c:	02912223          	sw	s1,36(sp)
   15640:	01312e23          	sw	s3,28(sp)
   15644:	00058913          	mv	s2,a1
   15648:	04079863          	bnez	a5,15698 <__mdiff+0x78>
   1564c:	00271713          	slli	a4,a4,0x2
   15650:	01458813          	addi	a6,a1,20
   15654:	01460413          	addi	s0,a2,20
   15658:	00e807b3          	add	a5,a6,a4
   1565c:	00e40733          	add	a4,s0,a4
   15660:	0080006f          	j	15668 <__mdiff+0x48>
   15664:	16f87463          	bleu	a5,a6,157cc <__mdiff+0x1ac>
   15668:	ffc78793          	addi	a5,a5,-4
   1566c:	ffc70713          	addi	a4,a4,-4
   15670:	0007a583          	lw	a1,0(a5)
   15674:	00072683          	lw	a3,0(a4)
   15678:	fed586e3          	beq	a1,a3,15664 <__mdiff+0x44>
   1567c:	16d5f463          	bleu	a3,a1,157e4 <__mdiff+0x1c4>
   15680:	00090793          	mv	a5,s2
   15684:	00080493          	mv	s1,a6
   15688:	00060913          	mv	s2,a2
   1568c:	00100993          	li	s3,1
   15690:	00078613          	mv	a2,a5
   15694:	0140006f          	j	156a8 <__mdiff+0x88>
   15698:	1407ce63          	bltz	a5,157f4 <__mdiff+0x1d4>
   1569c:	01460493          	addi	s1,a2,20
   156a0:	01458413          	addi	s0,a1,20
   156a4:	00000993          	li	s3,0
   156a8:	00492583          	lw	a1,4(s2)
   156ac:	00c12623          	sw	a2,12(sp)
   156b0:	e5cff0ef          	jal	14d0c <_Balloc>
   156b4:	00c12603          	lw	a2,12(sp)
   156b8:	01092303          	lw	t1,16(s2)
   156bc:	000102b7          	lui	t0,0x10
   156c0:	01062e03          	lw	t3,16(a2)
   156c4:	00231393          	slli	t2,t1,0x2
   156c8:	01352623          	sw	s3,12(a0)
   156cc:	002e1e13          	slli	t3,t3,0x2
   156d0:	007403b3          	add	t2,s0,t2
   156d4:	01c48e33          	add	t3,s1,t3
   156d8:	01450813          	addi	a6,a0,20
   156dc:	00000693          	li	a3,0
   156e0:	fff28293          	addi	t0,t0,-1 # ffff <_ftext-0x1>
   156e4:	00042583          	lw	a1,0(s0)
   156e8:	0004a883          	lw	a7,0(s1)
   156ec:	00480813          	addi	a6,a6,4
   156f0:	0055f633          	and	a2,a1,t0
   156f4:	00d606b3          	add	a3,a2,a3
   156f8:	0058f733          	and	a4,a7,t0
   156fc:	40e68733          	sub	a4,a3,a4
   15700:	0105d593          	srli	a1,a1,0x10
   15704:	0108d693          	srli	a3,a7,0x10
   15708:	40d585b3          	sub	a1,a1,a3
   1570c:	41075693          	srai	a3,a4,0x10
   15710:	00d586b3          	add	a3,a1,a3
   15714:	01069793          	slli	a5,a3,0x10
   15718:	00577733          	and	a4,a4,t0
   1571c:	00e7e7b3          	or	a5,a5,a4
   15720:	00448493          	addi	s1,s1,4
   15724:	00440413          	addi	s0,s0,4
   15728:	4106d693          	srai	a3,a3,0x10
   1572c:	fef82e23          	sw	a5,-4(a6)
   15730:	fbc4eae3          	bltu	s1,t3,156e4 <__mdiff+0xc4>
   15734:	06747063          	bleu	t2,s0,15794 <__mdiff+0x174>
   15738:	00010e37          	lui	t3,0x10
   1573c:	00080293          	mv	t0,a6
   15740:	00040893          	mv	a7,s0
   15744:	fffe0e13          	addi	t3,t3,-1 # ffff <_ftext-0x1>
   15748:	0008a583          	lw	a1,0(a7)
   1574c:	00428293          	addi	t0,t0,4
   15750:	00488893          	addi	a7,a7,4
   15754:	01c5f633          	and	a2,a1,t3
   15758:	00d606b3          	add	a3,a2,a3
   1575c:	4106d713          	srai	a4,a3,0x10
   15760:	0105d593          	srli	a1,a1,0x10
   15764:	00e58733          	add	a4,a1,a4
   15768:	01c6f6b3          	and	a3,a3,t3
   1576c:	01071793          	slli	a5,a4,0x10
   15770:	00d7e7b3          	or	a5,a5,a3
   15774:	fef2ae23          	sw	a5,-4(t0)
   15778:	41075693          	srai	a3,a4,0x10
   1577c:	fc78e6e3          	bltu	a7,t2,15748 <__mdiff+0x128>
   15780:	fff44413          	not	s0,s0
   15784:	007403b3          	add	t2,s0,t2
   15788:	ffc3f393          	andi	t2,t2,-4
   1578c:	00438393          	addi	t2,t2,4
   15790:	00780833          	add	a6,a6,t2
   15794:	ffc80813          	addi	a6,a6,-4
   15798:	00079a63          	bnez	a5,157ac <__mdiff+0x18c>
   1579c:	ffc80813          	addi	a6,a6,-4
   157a0:	00082783          	lw	a5,0(a6)
   157a4:	fff30313          	addi	t1,t1,-1
   157a8:	fe078ae3          	beqz	a5,1579c <__mdiff+0x17c>
   157ac:	00652823          	sw	t1,16(a0)
   157b0:	02c12083          	lw	ra,44(sp)
   157b4:	02812403          	lw	s0,40(sp)
   157b8:	02412483          	lw	s1,36(sp)
   157bc:	02012903          	lw	s2,32(sp)
   157c0:	01c12983          	lw	s3,28(sp)
   157c4:	03010113          	addi	sp,sp,48
   157c8:	00008067          	ret
   157cc:	00000593          	li	a1,0
   157d0:	d3cff0ef          	jal	14d0c <_Balloc>
   157d4:	00100793          	li	a5,1
   157d8:	00f52823          	sw	a5,16(a0)
   157dc:	00052a23          	sw	zero,20(a0)
   157e0:	fd1ff06f          	j	157b0 <__mdiff+0x190>
   157e4:	00040493          	mv	s1,s0
   157e8:	00000993          	li	s3,0
   157ec:	00080413          	mv	s0,a6
   157f0:	eb9ff06f          	j	156a8 <__mdiff+0x88>
   157f4:	00090793          	mv	a5,s2
   157f8:	01490493          	addi	s1,s2,20
   157fc:	01460413          	addi	s0,a2,20
   15800:	00060913          	mv	s2,a2
   15804:	00100993          	li	s3,1
   15808:	00078613          	mv	a2,a5
   1580c:	e9dff06f          	j	156a8 <__mdiff+0x88>

00015810 <__ulp>:
   15810:	ff010113          	addi	sp,sp,-16
   15814:	00a13427          	fsd	fa0,8(sp)
   15818:	00c12783          	lw	a5,12(sp)
   1581c:	7ff00737          	lui	a4,0x7ff00
   15820:	00e7f7b3          	and	a5,a5,a4
   15824:	fcc00737          	lui	a4,0xfcc00
   15828:	00e787b3          	add	a5,a5,a4
   1582c:	02f05063          	blez	a5,1584c <__ulp+0x3c>
   15830:	00000613          	li	a2,0
   15834:	00078693          	mv	a3,a5
   15838:	00c12023          	sw	a2,0(sp)
   1583c:	00d12223          	sw	a3,4(sp)
   15840:	00013507          	fld	fa0,0(sp)
   15844:	01010113          	addi	sp,sp,16
   15848:	00008067          	ret
   1584c:	40f007b3          	neg	a5,a5
   15850:	4147d793          	srai	a5,a5,0x14
   15854:	01300713          	li	a4,19
   15858:	02f75c63          	ble	a5,a4,15890 <__ulp+0x80>
   1585c:	fec78793          	addi	a5,a5,-20
   15860:	01e00593          	li	a1,30
   15864:	00000693          	li	a3,0
   15868:	00100713          	li	a4,1
   1586c:	00f5c663          	blt	a1,a5,15878 <__ulp+0x68>
   15870:	fff7c793          	not	a5,a5
   15874:	00f71733          	sll	a4,a4,a5
   15878:	00070613          	mv	a2,a4
   1587c:	00c12023          	sw	a2,0(sp)
   15880:	00d12223          	sw	a3,4(sp)
   15884:	00013507          	fld	fa0,0(sp)
   15888:	01010113          	addi	sp,sp,16
   1588c:	00008067          	ret
   15890:	00080737          	lui	a4,0x80
   15894:	00000613          	li	a2,0
   15898:	40f756b3          	sra	a3,a4,a5
   1589c:	00c12023          	sw	a2,0(sp)
   158a0:	00d12223          	sw	a3,4(sp)
   158a4:	00013507          	fld	fa0,0(sp)
   158a8:	01010113          	addi	sp,sp,16
   158ac:	00008067          	ret

000158b0 <__b2d>:
   158b0:	fd010113          	addi	sp,sp,-48
   158b4:	02812423          	sw	s0,40(sp)
   158b8:	01052403          	lw	s0,16(a0)
   158bc:	02912223          	sw	s1,36(sp)
   158c0:	01450493          	addi	s1,a0,20
   158c4:	00241413          	slli	s0,s0,0x2
   158c8:	00848433          	add	s0,s1,s0
   158cc:	03212023          	sw	s2,32(sp)
   158d0:	ffc42903          	lw	s2,-4(s0)
   158d4:	01312e23          	sw	s3,28(sp)
   158d8:	01412c23          	sw	s4,24(sp)
   158dc:	00090513          	mv	a0,s2
   158e0:	00058a13          	mv	s4,a1
   158e4:	02112623          	sw	ra,44(sp)
   158e8:	f00ff0ef          	jal	14fe8 <__hi0bits>
   158ec:	02000793          	li	a5,32
   158f0:	40a78733          	sub	a4,a5,a0
   158f4:	00ea2023          	sw	a4,0(s4)
   158f8:	00a00713          	li	a4,10
   158fc:	ffc40993          	addi	s3,s0,-4
   15900:	06a74063          	blt	a4,a0,15960 <__b2d+0xb0>
   15904:	00b00693          	li	a3,11
   15908:	40a686b3          	sub	a3,a3,a0
   1590c:	3ff00637          	lui	a2,0x3ff00
   15910:	00d955b3          	srl	a1,s2,a3
   15914:	00c5e7b3          	or	a5,a1,a2
   15918:	00000613          	li	a2,0
   1591c:	0134f663          	bleu	s3,s1,15928 <__b2d+0x78>
   15920:	ff842603          	lw	a2,-8(s0)
   15924:	00d65633          	srl	a2,a2,a3
   15928:	01550513          	addi	a0,a0,21
   1592c:	00a91533          	sll	a0,s2,a0
   15930:	00c56733          	or	a4,a0,a2
   15934:	02c12083          	lw	ra,44(sp)
   15938:	00e12423          	sw	a4,8(sp)
   1593c:	00f12623          	sw	a5,12(sp)
   15940:	00813507          	fld	fa0,8(sp)
   15944:	02812403          	lw	s0,40(sp)
   15948:	02412483          	lw	s1,36(sp)
   1594c:	02012903          	lw	s2,32(sp)
   15950:	01c12983          	lw	s3,28(sp)
   15954:	01812a03          	lw	s4,24(sp)
   15958:	03010113          	addi	sp,sp,48
   1595c:	00008067          	ret
   15960:	ff550513          	addi	a0,a0,-11
   15964:	0534f263          	bleu	s3,s1,159a8 <__b2d+0xf8>
   15968:	ff842603          	lw	a2,-8(s0)
   1596c:	04050263          	beqz	a0,159b0 <__b2d+0x100>
   15970:	40a786b3          	sub	a3,a5,a0
   15974:	00a91933          	sll	s2,s2,a0
   15978:	3ff007b7          	lui	a5,0x3ff00
   1597c:	00f96933          	or	s2,s2,a5
   15980:	00d65833          	srl	a6,a2,a3
   15984:	ff840593          	addi	a1,s0,-8
   15988:	010967b3          	or	a5,s2,a6
   1598c:	04b4f663          	bleu	a1,s1,159d8 <__b2d+0x128>
   15990:	ff442583          	lw	a1,-12(s0)
   15994:	00a61533          	sll	a0,a2,a0
   15998:	00d5d633          	srl	a2,a1,a3
   1599c:	00a66533          	or	a0,a2,a0
   159a0:	00050713          	mv	a4,a0
   159a4:	f91ff06f          	j	15934 <__b2d+0x84>
   159a8:	00000613          	li	a2,0
   159ac:	00051a63          	bnez	a0,159c0 <__b2d+0x110>
   159b0:	3ff006b7          	lui	a3,0x3ff00
   159b4:	00d967b3          	or	a5,s2,a3
   159b8:	00060713          	mv	a4,a2
   159bc:	f79ff06f          	j	15934 <__b2d+0x84>
   159c0:	00a91533          	sll	a0,s2,a0
   159c4:	3ff006b7          	lui	a3,0x3ff00
   159c8:	00d567b3          	or	a5,a0,a3
   159cc:	00000513          	li	a0,0
   159d0:	00050713          	mv	a4,a0
   159d4:	f61ff06f          	j	15934 <__b2d+0x84>
   159d8:	00a61533          	sll	a0,a2,a0
   159dc:	00050713          	mv	a4,a0
   159e0:	f55ff06f          	j	15934 <__b2d+0x84>

000159e4 <__d2b>:
   159e4:	fc010113          	addi	sp,sp,-64
   159e8:	00c13427          	fsd	fa2,8(sp)
   159ec:	03412423          	sw	s4,40(sp)
   159f0:	00c12a03          	lw	s4,12(sp)
   159f4:	00100593          	li	a1,1
   159f8:	02812c23          	sw	s0,56(sp)
   159fc:	02912a23          	sw	s1,52(sp)
   15a00:	03212823          	sw	s2,48(sp)
   15a04:	03312623          	sw	s3,44(sp)
   15a08:	03512223          	sw	s5,36(sp)
   15a0c:	00078993          	mv	s3,a5
   15a10:	00070a93          	mv	s5,a4
   15a14:	001a1493          	slli	s1,s4,0x1
   15a18:	02112e23          	sw	ra,60(sp)
   15a1c:	00812403          	lw	s0,8(sp)
   15a20:	aecff0ef          	jal	14d0c <_Balloc>
   15a24:	00100737          	lui	a4,0x100
   15a28:	fff70793          	addi	a5,a4,-1 # fffff <_gp+0xe326f>
   15a2c:	0154d493          	srli	s1,s1,0x15
   15a30:	00050913          	mv	s2,a0
   15a34:	00fa7a33          	and	s4,s4,a5
   15a38:	00048463          	beqz	s1,15a40 <__d2b+0x5c>
   15a3c:	00ea6a33          	or	s4,s4,a4
   15a40:	01412e23          	sw	s4,28(sp)
   15a44:	08040463          	beqz	s0,15acc <__d2b+0xe8>
   15a48:	01810513          	addi	a0,sp,24
   15a4c:	00812c23          	sw	s0,24(sp)
   15a50:	e14ff0ef          	jal	15064 <__lo0bits>
   15a54:	00050793          	mv	a5,a0
   15a58:	01c12703          	lw	a4,28(sp)
   15a5c:	0a051663          	bnez	a0,15b08 <__d2b+0x124>
   15a60:	01812683          	lw	a3,24(sp)
   15a64:	00d92a23          	sw	a3,20(s2)
   15a68:	00173413          	seqz	s0,a4
   15a6c:	00200693          	li	a3,2
   15a70:	40868433          	sub	s0,a3,s0
   15a74:	00e92c23          	sw	a4,24(s2)
   15a78:	00892823          	sw	s0,16(s2)
   15a7c:	06049863          	bnez	s1,15aec <__d2b+0x108>
   15a80:	00241713          	slli	a4,s0,0x2
   15a84:	00e90733          	add	a4,s2,a4
   15a88:	01072503          	lw	a0,16(a4)
   15a8c:	bce78793          	addi	a5,a5,-1074 # 3feffbce <_gp+0x3fee2e3e>
   15a90:	00faa023          	sw	a5,0(s5)
   15a94:	d54ff0ef          	jal	14fe8 <__hi0bits>
   15a98:	00541413          	slli	s0,s0,0x5
   15a9c:	40a40533          	sub	a0,s0,a0
   15aa0:	00a9a023          	sw	a0,0(s3)
   15aa4:	03c12083          	lw	ra,60(sp)
   15aa8:	00090513          	mv	a0,s2
   15aac:	03812403          	lw	s0,56(sp)
   15ab0:	03412483          	lw	s1,52(sp)
   15ab4:	03012903          	lw	s2,48(sp)
   15ab8:	02c12983          	lw	s3,44(sp)
   15abc:	02812a03          	lw	s4,40(sp)
   15ac0:	02412a83          	lw	s5,36(sp)
   15ac4:	04010113          	addi	sp,sp,64
   15ac8:	00008067          	ret
   15acc:	01c10513          	addi	a0,sp,28
   15ad0:	d94ff0ef          	jal	15064 <__lo0bits>
   15ad4:	01c12783          	lw	a5,28(sp)
   15ad8:	00100413          	li	s0,1
   15adc:	00892823          	sw	s0,16(s2)
   15ae0:	00f92a23          	sw	a5,20(s2)
   15ae4:	02050793          	addi	a5,a0,32
   15ae8:	f8048ce3          	beqz	s1,15a80 <__d2b+0x9c>
   15aec:	bcd48493          	addi	s1,s1,-1075
   15af0:	03500713          	li	a4,53
   15af4:	00f484b3          	add	s1,s1,a5
   15af8:	40f707b3          	sub	a5,a4,a5
   15afc:	009aa023          	sw	s1,0(s5)
   15b00:	00f9a023          	sw	a5,0(s3)
   15b04:	fa1ff06f          	j	15aa4 <__d2b+0xc0>
   15b08:	02000693          	li	a3,32
   15b0c:	01812603          	lw	a2,24(sp)
   15b10:	40a686b3          	sub	a3,a3,a0
   15b14:	00d716b3          	sll	a3,a4,a3
   15b18:	00c6e6b3          	or	a3,a3,a2
   15b1c:	00a75733          	srl	a4,a4,a0
   15b20:	00d92a23          	sw	a3,20(s2)
   15b24:	00e12e23          	sw	a4,28(sp)
   15b28:	f41ff06f          	j	15a68 <__d2b+0x84>

00015b2c <__ratio>:
   15b2c:	fd010113          	addi	sp,sp,-48
   15b30:	02812423          	sw	s0,40(sp)
   15b34:	00058413          	mv	s0,a1
   15b38:	01810593          	addi	a1,sp,24
   15b3c:	02112623          	sw	ra,44(sp)
   15b40:	02912223          	sw	s1,36(sp)
   15b44:	00050493          	mv	s1,a0
   15b48:	d69ff0ef          	jal	158b0 <__b2d>
   15b4c:	01c10593          	addi	a1,sp,28
   15b50:	00040513          	mv	a0,s0
   15b54:	00a13027          	fsd	fa0,0(sp)
   15b58:	d59ff0ef          	jal	158b0 <__b2d>
   15b5c:	01042703          	lw	a4,16(s0)
   15b60:	0104a783          	lw	a5,16(s1)
   15b64:	01c12683          	lw	a3,28(sp)
   15b68:	00a13427          	fsd	fa0,8(sp)
   15b6c:	40e787b3          	sub	a5,a5,a4
   15b70:	00579713          	slli	a4,a5,0x5
   15b74:	01812783          	lw	a5,24(sp)
   15b78:	00012603          	lw	a2,0(sp)
   15b7c:	00812503          	lw	a0,8(sp)
   15b80:	40d787b3          	sub	a5,a5,a3
   15b84:	00f707b3          	add	a5,a4,a5
   15b88:	00412683          	lw	a3,4(sp)
   15b8c:	00c12583          	lw	a1,12(sp)
   15b90:	02f05a63          	blez	a5,15bc4 <__ratio+0x98>
   15b94:	01479793          	slli	a5,a5,0x14
   15b98:	00d786b3          	add	a3,a5,a3
   15b9c:	00c12023          	sw	a2,0(sp)
   15ba0:	00d12223          	sw	a3,4(sp)
   15ba4:	00813607          	fld	fa2,8(sp)
   15ba8:	00013507          	fld	fa0,0(sp)
   15bac:	648030ef          	jal	191f4 <__divdf3>
   15bb0:	02c12083          	lw	ra,44(sp)
   15bb4:	02812403          	lw	s0,40(sp)
   15bb8:	02412483          	lw	s1,36(sp)
   15bbc:	03010113          	addi	sp,sp,48
   15bc0:	00008067          	ret
   15bc4:	01479793          	slli	a5,a5,0x14
   15bc8:	40f585b3          	sub	a1,a1,a5
   15bcc:	00a12423          	sw	a0,8(sp)
   15bd0:	00b12623          	sw	a1,12(sp)
   15bd4:	fd1ff06f          	j	15ba4 <__ratio+0x78>

00015bd8 <_mprec_log10>:
   15bd8:	01700793          	li	a5,23
   15bdc:	00a7de63          	ble	a0,a5,15bf8 <_mprec_log10+0x20>
   15be0:	8401b507          	fld	fa0,-1984(gp) # 1c5d0 <__wctomb+0x28>
   15be4:	8481b007          	fld	ft0,-1976(gp) # 1c5d8 <__wctomb+0x30>
   15be8:	fff50513          	addi	a0,a0,-1
   15bec:	12057553          	fmul.d	fa0,fa0,ft0
   15bf0:	fe051ce3          	bnez	a0,15be8 <_mprec_log10+0x10>
   15bf4:	00008067          	ret
   15bf8:	0001a7b7          	lui	a5,0x1a
   15bfc:	6b078793          	addi	a5,a5,1712 # 1a6b0 <p05.2508>
   15c00:	00351513          	slli	a0,a0,0x3
   15c04:	00a78533          	add	a0,a5,a0
   15c08:	01053507          	fld	fa0,16(a0)
   15c0c:	00008067          	ret

00015c10 <__copybits>:
   15c10:	01062683          	lw	a3,16(a2) # 3ff00010 <_gp+0x3fee3280>
   15c14:	fff58593          	addi	a1,a1,-1
   15c18:	4055d813          	srai	a6,a1,0x5
   15c1c:	00180813          	addi	a6,a6,1
   15c20:	01460793          	addi	a5,a2,20
   15c24:	00269693          	slli	a3,a3,0x2
   15c28:	00281813          	slli	a6,a6,0x2
   15c2c:	00d786b3          	add	a3,a5,a3
   15c30:	01050833          	add	a6,a0,a6
   15c34:	02d7f863          	bleu	a3,a5,15c64 <__copybits+0x54>
   15c38:	00050713          	mv	a4,a0
   15c3c:	00478793          	addi	a5,a5,4
   15c40:	ffc7a583          	lw	a1,-4(a5)
   15c44:	00470713          	addi	a4,a4,4
   15c48:	feb72e23          	sw	a1,-4(a4)
   15c4c:	fed7e8e3          	bltu	a5,a3,15c3c <__copybits+0x2c>
   15c50:	40c687b3          	sub	a5,a3,a2
   15c54:	feb78793          	addi	a5,a5,-21
   15c58:	ffc7f793          	andi	a5,a5,-4
   15c5c:	00478793          	addi	a5,a5,4
   15c60:	00f50533          	add	a0,a0,a5
   15c64:	01057863          	bleu	a6,a0,15c74 <__copybits+0x64>
   15c68:	00450513          	addi	a0,a0,4
   15c6c:	fe052e23          	sw	zero,-4(a0)
   15c70:	ff056ce3          	bltu	a0,a6,15c68 <__copybits+0x58>
   15c74:	00008067          	ret

00015c78 <__any_on>:
   15c78:	01052783          	lw	a5,16(a0)
   15c7c:	4055d713          	srai	a4,a1,0x5
   15c80:	01450693          	addi	a3,a0,20
   15c84:	02e7da63          	ble	a4,a5,15cb8 <__any_on+0x40>
   15c88:	00279793          	slli	a5,a5,0x2
   15c8c:	00f687b3          	add	a5,a3,a5
   15c90:	06f6f263          	bleu	a5,a3,15cf4 <__any_on+0x7c>
   15c94:	ffc7a503          	lw	a0,-4(a5)
   15c98:	ffc78793          	addi	a5,a5,-4
   15c9c:	00051a63          	bnez	a0,15cb0 <__any_on+0x38>
   15ca0:	04f6f863          	bleu	a5,a3,15cf0 <__any_on+0x78>
   15ca4:	ffc78793          	addi	a5,a5,-4
   15ca8:	0007a703          	lw	a4,0(a5)
   15cac:	fe070ae3          	beqz	a4,15ca0 <__any_on+0x28>
   15cb0:	00100513          	li	a0,1
   15cb4:	00008067          	ret
   15cb8:	02f75663          	ble	a5,a4,15ce4 <__any_on+0x6c>
   15cbc:	00271793          	slli	a5,a4,0x2
   15cc0:	01f5f593          	andi	a1,a1,31
   15cc4:	00f687b3          	add	a5,a3,a5
   15cc8:	fc0584e3          	beqz	a1,15c90 <__any_on+0x18>
   15ccc:	0007a603          	lw	a2,0(a5)
   15cd0:	00100513          	li	a0,1
   15cd4:	00b65733          	srl	a4,a2,a1
   15cd8:	00b715b3          	sll	a1,a4,a1
   15cdc:	fab60ae3          	beq	a2,a1,15c90 <__any_on+0x18>
   15ce0:	00008067          	ret
   15ce4:	00271793          	slli	a5,a4,0x2
   15ce8:	00f687b3          	add	a5,a3,a5
   15cec:	fa5ff06f          	j	15c90 <__any_on+0x18>
   15cf0:	00008067          	ret
   15cf4:	00000513          	li	a0,0
   15cf8:	00008067          	ret

00015cfc <__fpclassifyd>:
   15cfc:	ff010113          	addi	sp,sp,-16
   15d00:	00a13427          	fsd	fa0,8(sp)
   15d04:	00812703          	lw	a4,8(sp)
   15d08:	00c12783          	lw	a5,12(sp)
   15d0c:	00200513          	li	a0,2
   15d10:	00e7e6b3          	or	a3,a5,a4
   15d14:	00069663          	bnez	a3,15d20 <__fpclassifyd+0x24>
   15d18:	01010113          	addi	sp,sp,16
   15d1c:	00008067          	ret
   15d20:	800006b7          	lui	a3,0x80000
   15d24:	04d78863          	beq	a5,a3,15d74 <__fpclassifyd+0x78>
   15d28:	fff006b7          	lui	a3,0xfff00
   15d2c:	00d786b3          	add	a3,a5,a3
   15d30:	7fe00637          	lui	a2,0x7fe00
   15d34:	00400513          	li	a0,4
   15d38:	fec6e0e3          	bltu	a3,a2,15d18 <__fpclassifyd+0x1c>
   15d3c:	7ff006b7          	lui	a3,0x7ff00
   15d40:	00d786b3          	add	a3,a5,a3
   15d44:	fcc6eae3          	bltu	a3,a2,15d18 <__fpclassifyd+0x1c>
   15d48:	800006b7          	lui	a3,0x80000
   15d4c:	fff6c693          	not	a3,a3
   15d50:	00d7f7b3          	and	a5,a5,a3
   15d54:	001006b7          	lui	a3,0x100
   15d58:	00300513          	li	a0,3
   15d5c:	fad7eee3          	bltu	a5,a3,15d18 <__fpclassifyd+0x1c>
   15d60:	7ff006b7          	lui	a3,0x7ff00
   15d64:	00000513          	li	a0,0
   15d68:	fad798e3          	bne	a5,a3,15d18 <__fpclassifyd+0x1c>
   15d6c:	00173513          	seqz	a0,a4
   15d70:	fa9ff06f          	j	15d18 <__fpclassifyd+0x1c>
   15d74:	fa0702e3          	beqz	a4,15d18 <__fpclassifyd+0x1c>
   15d78:	fd1ff06f          	j	15d48 <__fpclassifyd+0x4c>

00015d7c <__sread>:
   15d7c:	00e59503          	lh	a0,14(a1)
   15d80:	ff010113          	addi	sp,sp,-16
   15d84:	00812423          	sw	s0,8(sp)
   15d88:	00058413          	mv	s0,a1
   15d8c:	00060593          	mv	a1,a2
   15d90:	00068613          	mv	a2,a3
   15d94:	00112623          	sw	ra,12(sp)
   15d98:	754020ef          	jal	184ec <read>
   15d9c:	02054063          	bltz	a0,15dbc <__sread+0x40>
   15da0:	05042783          	lw	a5,80(s0)
   15da4:	00c12083          	lw	ra,12(sp)
   15da8:	00a787b3          	add	a5,a5,a0
   15dac:	04f42823          	sw	a5,80(s0)
   15db0:	00812403          	lw	s0,8(sp)
   15db4:	01010113          	addi	sp,sp,16
   15db8:	00008067          	ret
   15dbc:	00c45703          	lhu	a4,12(s0)
   15dc0:	fffff7b7          	lui	a5,0xfffff
   15dc4:	00c12083          	lw	ra,12(sp)
   15dc8:	fff78793          	addi	a5,a5,-1 # ffffefff <_gp+0xfffe226f>
   15dcc:	00f777b3          	and	a5,a4,a5
   15dd0:	00f41623          	sh	a5,12(s0)
   15dd4:	00812403          	lw	s0,8(sp)
   15dd8:	01010113          	addi	sp,sp,16
   15ddc:	00008067          	ret

00015de0 <__seofread>:
   15de0:	00000513          	li	a0,0
   15de4:	00008067          	ret

00015de8 <__swrite>:
   15de8:	00c59703          	lh	a4,12(a1)
   15dec:	ff010113          	addi	sp,sp,-16
   15df0:	00812423          	sw	s0,8(sp)
   15df4:	10077793          	andi	a5,a4,256
   15df8:	00912223          	sw	s1,4(sp)
   15dfc:	01212023          	sw	s2,0(sp)
   15e00:	00112623          	sw	ra,12(sp)
   15e04:	00058413          	mv	s0,a1
   15e08:	00060493          	mv	s1,a2
   15e0c:	00068913          	mv	s2,a3
   15e10:	00078e63          	beqz	a5,15e2c <__swrite+0x44>
   15e14:	00e59503          	lh	a0,14(a1)
   15e18:	00200713          	li	a4,2
   15e1c:	00000613          	li	a2,0
   15e20:	00000693          	li	a3,0
   15e24:	6a8020ef          	jal	184cc <lseek>
   15e28:	00c41703          	lh	a4,12(s0)
   15e2c:	fffff7b7          	lui	a5,0xfffff
   15e30:	fff78793          	addi	a5,a5,-1 # ffffefff <_gp+0xfffe226f>
   15e34:	00f777b3          	and	a5,a4,a5
   15e38:	00e41503          	lh	a0,14(s0)
   15e3c:	00f41623          	sh	a5,12(s0)
   15e40:	00090613          	mv	a2,s2
   15e44:	00048593          	mv	a1,s1
   15e48:	00c12083          	lw	ra,12(sp)
   15e4c:	00812403          	lw	s0,8(sp)
   15e50:	00412483          	lw	s1,4(sp)
   15e54:	00012903          	lw	s2,0(sp)
   15e58:	01010113          	addi	sp,sp,16
   15e5c:	6a40206f          	j	18500 <write>

00015e60 <__sseek>:
   15e60:	00e59503          	lh	a0,14(a1)
   15e64:	ff010113          	addi	sp,sp,-16
   15e68:	00812423          	sw	s0,8(sp)
   15e6c:	00112623          	sw	ra,12(sp)
   15e70:	00058413          	mv	s0,a1
   15e74:	658020ef          	jal	184cc <lseek>
   15e78:	fff00793          	li	a5,-1
   15e7c:	00c45703          	lhu	a4,12(s0)
   15e80:	02f50263          	beq	a0,a5,15ea4 <__sseek+0x44>
   15e84:	00c12083          	lw	ra,12(sp)
   15e88:	000017b7          	lui	a5,0x1
   15e8c:	00f767b3          	or	a5,a4,a5
   15e90:	04a42823          	sw	a0,80(s0)
   15e94:	00f41623          	sh	a5,12(s0)
   15e98:	00812403          	lw	s0,8(sp)
   15e9c:	01010113          	addi	sp,sp,16
   15ea0:	00008067          	ret
   15ea4:	fea590e3          	bne	a1,a0,15e84 <__sseek+0x24>
   15ea8:	fffff7b7          	lui	a5,0xfffff
   15eac:	00c12083          	lw	ra,12(sp)
   15eb0:	fff78793          	addi	a5,a5,-1 # ffffefff <_gp+0xfffe226f>
   15eb4:	00f777b3          	and	a5,a4,a5
   15eb8:	00f41623          	sh	a5,12(s0)
   15ebc:	00812403          	lw	s0,8(sp)
   15ec0:	01010113          	addi	sp,sp,16
   15ec4:	00008067          	ret

00015ec8 <__sclose>:
   15ec8:	00e59503          	lh	a0,14(a1)
   15ecc:	6c80206f          	j	18594 <close>

00015ed0 <strcmp>:
   15ed0:	00b56733          	or	a4,a0,a1
   15ed4:	fff00393          	li	t2,-1
   15ed8:	00377713          	andi	a4,a4,3
   15edc:	0c071063          	bnez	a4,15f9c <strcmp+0xcc>
   15ee0:	7f7f8e37          	lui	t3,0x7f7f8
   15ee4:	f7fe0e13          	addi	t3,t3,-129 # 7f7f7f7f <_gp+0x7f7db1ef>
   15ee8:	00052603          	lw	a2,0(a0)
   15eec:	0005a683          	lw	a3,0(a1)
   15ef0:	01c672b3          	and	t0,a2,t3
   15ef4:	01c66333          	or	t1,a2,t3
   15ef8:	01c282b3          	add	t0,t0,t3
   15efc:	0062e2b3          	or	t0,t0,t1
   15f00:	0c729263          	bne	t0,t2,15fc4 <strcmp+0xf4>
   15f04:	04d61663          	bne	a2,a3,15f50 <strcmp+0x80>
   15f08:	00452603          	lw	a2,4(a0)
   15f0c:	0045a683          	lw	a3,4(a1)
   15f10:	01c672b3          	and	t0,a2,t3
   15f14:	01c66333          	or	t1,a2,t3
   15f18:	01c282b3          	add	t0,t0,t3
   15f1c:	0062e2b3          	or	t0,t0,t1
   15f20:	08729e63          	bne	t0,t2,15fbc <strcmp+0xec>
   15f24:	02d61663          	bne	a2,a3,15f50 <strcmp+0x80>
   15f28:	00852603          	lw	a2,8(a0)
   15f2c:	0085a683          	lw	a3,8(a1)
   15f30:	01c672b3          	and	t0,a2,t3
   15f34:	01c66333          	or	t1,a2,t3
   15f38:	01c282b3          	add	t0,t0,t3
   15f3c:	0062e2b3          	or	t0,t0,t1
   15f40:	08729863          	bne	t0,t2,15fd0 <strcmp+0x100>
   15f44:	00c50513          	addi	a0,a0,12
   15f48:	00c58593          	addi	a1,a1,12
   15f4c:	f8d60ee3          	beq	a2,a3,15ee8 <strcmp+0x18>
   15f50:	01061713          	slli	a4,a2,0x10
   15f54:	01069793          	slli	a5,a3,0x10
   15f58:	00f71e63          	bne	a4,a5,15f74 <strcmp+0xa4>
   15f5c:	01065713          	srli	a4,a2,0x10
   15f60:	0106d793          	srli	a5,a3,0x10
   15f64:	40f70533          	sub	a0,a4,a5
   15f68:	0ff57593          	andi	a1,a0,255
   15f6c:	02059063          	bnez	a1,15f8c <strcmp+0xbc>
   15f70:	00008067          	ret
   15f74:	01075713          	srli	a4,a4,0x10
   15f78:	0107d793          	srli	a5,a5,0x10
   15f7c:	40f70533          	sub	a0,a4,a5
   15f80:	0ff57593          	andi	a1,a0,255
   15f84:	00059463          	bnez	a1,15f8c <strcmp+0xbc>
   15f88:	00008067          	ret
   15f8c:	0ff77713          	andi	a4,a4,255
   15f90:	0ff7f793          	andi	a5,a5,255
   15f94:	40f70533          	sub	a0,a4,a5
   15f98:	00008067          	ret
   15f9c:	00054603          	lbu	a2,0(a0)
   15fa0:	0005c683          	lbu	a3,0(a1)
   15fa4:	00150513          	addi	a0,a0,1
   15fa8:	00158593          	addi	a1,a1,1
   15fac:	00d61463          	bne	a2,a3,15fb4 <strcmp+0xe4>
   15fb0:	fe0616e3          	bnez	a2,15f9c <strcmp+0xcc>
   15fb4:	40d60533          	sub	a0,a2,a3
   15fb8:	00008067          	ret
   15fbc:	00450513          	addi	a0,a0,4
   15fc0:	00458593          	addi	a1,a1,4
   15fc4:	fcd61ce3          	bne	a2,a3,15f9c <strcmp+0xcc>
   15fc8:	00000513          	li	a0,0
   15fcc:	00008067          	ret
   15fd0:	00850513          	addi	a0,a0,8
   15fd4:	00858593          	addi	a1,a1,8
   15fd8:	fcd612e3          	bne	a2,a3,15f9c <strcmp+0xcc>
   15fdc:	00000513          	li	a0,0
   15fe0:	00008067          	ret

00015fe4 <strlen>:
   15fe4:	00357793          	andi	a5,a0,3
   15fe8:	00050593          	mv	a1,a0
   15fec:	04079a63          	bnez	a5,16040 <strlen+0x5c>
   15ff0:	7f7f86b7          	lui	a3,0x7f7f8
   15ff4:	f7f68693          	addi	a3,a3,-129 # 7f7f7f7f <_gp+0x7f7db1ef>
   15ff8:	fff00613          	li	a2,-1
   15ffc:	00450513          	addi	a0,a0,4
   16000:	ffc52783          	lw	a5,-4(a0)
   16004:	00d7f733          	and	a4,a5,a3
   16008:	00d70733          	add	a4,a4,a3
   1600c:	00d7e7b3          	or	a5,a5,a3
   16010:	00f767b3          	or	a5,a4,a5
   16014:	fec784e3          	beq	a5,a2,15ffc <strlen+0x18>
   16018:	ffc54703          	lbu	a4,-4(a0)
   1601c:	40b507b3          	sub	a5,a0,a1
   16020:	ffd54683          	lbu	a3,-3(a0)
   16024:	ffe54603          	lbu	a2,-2(a0)
   16028:	02070e63          	beqz	a4,16064 <strlen+0x80>
   1602c:	02068863          	beqz	a3,1605c <strlen+0x78>
   16030:	fff78513          	addi	a0,a5,-1
   16034:	02060c63          	beqz	a2,1606c <strlen+0x88>
   16038:	00008067          	ret
   1603c:	fa070ae3          	beqz	a4,15ff0 <strlen+0xc>
   16040:	00054783          	lbu	a5,0(a0)
   16044:	00150513          	addi	a0,a0,1
   16048:	00357713          	andi	a4,a0,3
   1604c:	fe0798e3          	bnez	a5,1603c <strlen+0x58>
   16050:	40b50533          	sub	a0,a0,a1
   16054:	fff50513          	addi	a0,a0,-1
   16058:	00008067          	ret
   1605c:	ffd78513          	addi	a0,a5,-3
   16060:	00008067          	ret
   16064:	ffc78513          	addi	a0,a5,-4
   16068:	00008067          	ret
   1606c:	ffe78513          	addi	a0,a5,-2
   16070:	00008067          	ret

00016074 <__sprint_r.part.0>:
   16074:	0645a783          	lw	a5,100(a1)
   16078:	fd010113          	addi	sp,sp,-48
   1607c:	01612823          	sw	s6,16(sp)
   16080:	01279713          	slli	a4,a5,0x12
   16084:	02112623          	sw	ra,44(sp)
   16088:	02812423          	sw	s0,40(sp)
   1608c:	02912223          	sw	s1,36(sp)
   16090:	03212023          	sw	s2,32(sp)
   16094:	01312e23          	sw	s3,28(sp)
   16098:	01412c23          	sw	s4,24(sp)
   1609c:	01512a23          	sw	s5,20(sp)
   160a0:	01712623          	sw	s7,12(sp)
   160a4:	00060b13          	mv	s6,a2
   160a8:	0a075663          	bgez	a4,16154 <__sprint_r.part.0+0xe0>
   160ac:	00862783          	lw	a5,8(a2) # 7fe00008 <_gp+0x7fde3278>
   160b0:	00058a13          	mv	s4,a1
   160b4:	00050a93          	mv	s5,a0
   160b8:	00062b83          	lw	s7,0(a2)
   160bc:	fff00993          	li	s3,-1
   160c0:	08078663          	beqz	a5,1614c <__sprint_r.part.0+0xd8>
   160c4:	004ba903          	lw	s2,4(s7)
   160c8:	000ba483          	lw	s1,0(s7)
   160cc:	00000413          	li	s0,0
   160d0:	00295913          	srli	s2,s2,0x2
   160d4:	00091863          	bnez	s2,160e4 <__sprint_r.part.0+0x70>
   160d8:	0600006f          	j	16138 <__sprint_r.part.0+0xc4>
   160dc:	00448493          	addi	s1,s1,4
   160e0:	04890a63          	beq	s2,s0,16134 <__sprint_r.part.0+0xc0>
   160e4:	0004a583          	lw	a1,0(s1)
   160e8:	000a0613          	mv	a2,s4
   160ec:	000a8513          	mv	a0,s5
   160f0:	470010ef          	jal	17560 <_fputwc_r>
   160f4:	00140413          	addi	s0,s0,1
   160f8:	ff3512e3          	bne	a0,s3,160dc <__sprint_r.part.0+0x68>
   160fc:	00098513          	mv	a0,s3
   16100:	02c12083          	lw	ra,44(sp)
   16104:	000b2423          	sw	zero,8(s6)
   16108:	000b2223          	sw	zero,4(s6)
   1610c:	02812403          	lw	s0,40(sp)
   16110:	02412483          	lw	s1,36(sp)
   16114:	02012903          	lw	s2,32(sp)
   16118:	01c12983          	lw	s3,28(sp)
   1611c:	01812a03          	lw	s4,24(sp)
   16120:	01412a83          	lw	s5,20(sp)
   16124:	01012b03          	lw	s6,16(sp)
   16128:	00c12b83          	lw	s7,12(sp)
   1612c:	03010113          	addi	sp,sp,48
   16130:	00008067          	ret
   16134:	008b2783          	lw	a5,8(s6)
   16138:	00291913          	slli	s2,s2,0x2
   1613c:	412787b3          	sub	a5,a5,s2
   16140:	00fb2423          	sw	a5,8(s6)
   16144:	008b8b93          	addi	s7,s7,8
   16148:	f6079ee3          	bnez	a5,160c4 <__sprint_r.part.0+0x50>
   1614c:	00000513          	li	a0,0
   16150:	fb1ff06f          	j	16100 <__sprint_r.part.0+0x8c>
   16154:	4b4010ef          	jal	17608 <__sfvwrite_r>
   16158:	fa9ff06f          	j	16100 <__sprint_r.part.0+0x8c>

0001615c <__sprint_r>:
   1615c:	00862703          	lw	a4,8(a2)
   16160:	00070463          	beqz	a4,16168 <__sprint_r+0xc>
   16164:	f11ff06f          	j	16074 <__sprint_r.part.0>
   16168:	00062223          	sw	zero,4(a2)
   1616c:	00000513          	li	a0,0
   16170:	00008067          	ret

00016174 <_vfiprintf_r>:
   16174:	b1010113          	addi	sp,sp,-1264
   16178:	4d412c23          	sw	s4,1240(sp)
   1617c:	4d912223          	sw	s9,1220(sp)
   16180:	4bb12e23          	sw	s11,1212(sp)
   16184:	4e112623          	sw	ra,1260(sp)
   16188:	4e812423          	sw	s0,1256(sp)
   1618c:	4e912223          	sw	s1,1252(sp)
   16190:	4f212023          	sw	s2,1248(sp)
   16194:	4d312e23          	sw	s3,1244(sp)
   16198:	4d512a23          	sw	s5,1236(sp)
   1619c:	4d612823          	sw	s6,1232(sp)
   161a0:	4d712623          	sw	s7,1228(sp)
   161a4:	4d812423          	sw	s8,1224(sp)
   161a8:	4da12023          	sw	s10,1216(sp)
   161ac:	00050a13          	mv	s4,a0
   161b0:	00058c93          	mv	s9,a1
   161b4:	00060d93          	mv	s11,a2
   161b8:	00d12a23          	sw	a3,20(sp)
   161bc:	00050663          	beqz	a0,161c8 <_vfiprintf_r+0x54>
   161c0:	03852783          	lw	a5,56(a0)
   161c4:	26078663          	beqz	a5,16430 <_vfiprintf_r+0x2bc>
   161c8:	00cc9703          	lh	a4,12(s9)
   161cc:	01071793          	slli	a5,a4,0x10
   161d0:	0107d793          	srli	a5,a5,0x10
   161d4:	01279593          	slli	a1,a5,0x12
   161d8:	0205c663          	bltz	a1,16204 <_vfiprintf_r+0x90>
   161dc:	064ca683          	lw	a3,100(s9)
   161e0:	000027b7          	lui	a5,0x2
   161e4:	00f76733          	or	a4,a4,a5
   161e8:	ffffe7b7          	lui	a5,0xffffe
   161ec:	fff78793          	addi	a5,a5,-1 # ffffdfff <_gp+0xfffe126f>
   161f0:	00f6f7b3          	and	a5,a3,a5
   161f4:	06fca223          	sw	a5,100(s9)
   161f8:	01071793          	slli	a5,a4,0x10
   161fc:	00ec9623          	sh	a4,12(s9)
   16200:	0107d793          	srli	a5,a5,0x10
   16204:	0087f693          	andi	a3,a5,8
   16208:	12068a63          	beqz	a3,1633c <_vfiprintf_r+0x1c8>
   1620c:	010ca683          	lw	a3,16(s9)
   16210:	12068663          	beqz	a3,1633c <_vfiprintf_r+0x1c8>
   16214:	01a7f793          	andi	a5,a5,26
   16218:	00a00693          	li	a3,10
   1621c:	14d78463          	beq	a5,a3,16364 <_vfiprintf_r+0x1f0>
   16220:	07010793          	addi	a5,sp,112
   16224:	06f10813          	addi	a6,sp,111
   16228:	0b010c13          	addi	s8,sp,176
   1622c:	410786b3          	sub	a3,a5,a6
   16230:	0001b337          	lui	t1,0x1b
   16234:	02d12623          	sw	a3,44(sp)
   16238:	00f12823          	sw	a5,16(sp)
   1623c:	01012623          	sw	a6,12(sp)
   16240:	03812e23          	sw	s8,60(sp)
   16244:	04012223          	sw	zero,68(sp)
   16248:	04012023          	sw	zero,64(sp)
   1624c:	02012023          	sw	zero,32(sp)
   16250:	00012c23          	sw	zero,24(sp)
   16254:	93c30b93          	addi	s7,t1,-1732 # 1a93c <blanks.3948>
   16258:	000c0693          	mv	a3,s8
   1625c:	000d8a93          	mv	s5,s11
   16260:	000ac783          	lbu	a5,0(s5)
   16264:	540782e3          	beqz	a5,16fa8 <_vfiprintf_r+0xe34>
   16268:	02500713          	li	a4,37
   1626c:	000a8493          	mv	s1,s5
   16270:	00e79663          	bne	a5,a4,1627c <_vfiprintf_r+0x108>
   16274:	0540006f          	j	162c8 <_vfiprintf_r+0x154>
   16278:	00e78863          	beq	a5,a4,16288 <_vfiprintf_r+0x114>
   1627c:	00148493          	addi	s1,s1,1
   16280:	0004c783          	lbu	a5,0(s1)
   16284:	fe079ae3          	bnez	a5,16278 <_vfiprintf_r+0x104>
   16288:	41548433          	sub	s0,s1,s5
   1628c:	02040e63          	beqz	s0,162c8 <_vfiprintf_r+0x154>
   16290:	04412703          	lw	a4,68(sp)
   16294:	04012783          	lw	a5,64(sp)
   16298:	00700613          	li	a2,7
   1629c:	00e40733          	add	a4,s0,a4
   162a0:	00178793          	addi	a5,a5,1
   162a4:	0156a023          	sw	s5,0(a3)
   162a8:	0086a223          	sw	s0,4(a3)
   162ac:	04e12223          	sw	a4,68(sp)
   162b0:	04f12023          	sw	a5,64(sp)
   162b4:	00868693          	addi	a3,a3,8
   162b8:	06f64463          	blt	a2,a5,16320 <_vfiprintf_r+0x1ac>
   162bc:	01812703          	lw	a4,24(sp)
   162c0:	00870733          	add	a4,a4,s0
   162c4:	00e12c23          	sw	a4,24(sp)
   162c8:	0004c783          	lbu	a5,0(s1)
   162cc:	120780e3          	beqz	a5,16bec <_vfiprintf_r+0xa78>
   162d0:	00148493          	addi	s1,s1,1
   162d4:	02010ba3          	sb	zero,55(sp)
   162d8:	00000513          	li	a0,0
   162dc:	00000293          	li	t0,0
   162e0:	fff00d93          	li	s11,-1
   162e4:	00000b13          	li	s6,0
   162e8:	00000913          	li	s2,0
   162ec:	05800613          	li	a2,88
   162f0:	00900593          	li	a1,9
   162f4:	02a00313          	li	t1,42
   162f8:	0004c703          	lbu	a4,0(s1)
   162fc:	00148a93          	addi	s5,s1,1
   16300:	fe070793          	addi	a5,a4,-32
   16304:	74f66463          	bltu	a2,a5,16a4c <_vfiprintf_r+0x8d8>
   16308:	0001a837          	lui	a6,0x1a
   1630c:	00279793          	slli	a5,a5,0x2
   16310:	7d880813          	addi	a6,a6,2008 # 1a7d8 <__mprec_bigtens+0x28>
   16314:	010787b3          	add	a5,a5,a6
   16318:	0007a783          	lw	a5,0(a5)
   1631c:	00078067          	jr	a5
   16320:	380718e3          	bnez	a4,16eb0 <_vfiprintf_r+0xd3c>
   16324:	04012023          	sw	zero,64(sp)
   16328:	000c0693          	mv	a3,s8
   1632c:	f91ff06f          	j	162bc <_vfiprintf_r+0x148>
   16330:	01096913          	ori	s2,s2,16
   16334:	000a8493          	mv	s1,s5
   16338:	fc1ff06f          	j	162f8 <_vfiprintf_r+0x184>
   1633c:	000c8593          	mv	a1,s9
   16340:	000a0513          	mv	a0,s4
   16344:	bb9fb0ef          	jal	11efc <__swsetup_r>
   16348:	50051ae3          	bnez	a0,1705c <_vfiprintf_r+0xee8>
   1634c:	00cc9703          	lh	a4,12(s9)
   16350:	00a00693          	li	a3,10
   16354:	01071793          	slli	a5,a4,0x10
   16358:	0107d793          	srli	a5,a5,0x10
   1635c:	01a7f793          	andi	a5,a5,26
   16360:	ecd790e3          	bne	a5,a3,16220 <_vfiprintf_r+0xac>
   16364:	00ec9783          	lh	a5,14(s9)
   16368:	ea07cce3          	bltz	a5,16220 <_vfiprintf_r+0xac>
   1636c:	064ca303          	lw	t1,100(s9)
   16370:	01cca283          	lw	t0,28(s9)
   16374:	024ca883          	lw	a7,36(s9)
   16378:	01412683          	lw	a3,20(sp)
   1637c:	ffd77713          	andi	a4,a4,-3
   16380:	40000813          	li	a6,1024
   16384:	04e11a23          	sh	a4,84(sp)
   16388:	000d8613          	mv	a2,s11
   1638c:	0b010713          	addi	a4,sp,176
   16390:	04810593          	addi	a1,sp,72
   16394:	000a0513          	mv	a0,s4
   16398:	0a612623          	sw	t1,172(sp)
   1639c:	04f11b23          	sh	a5,86(sp)
   163a0:	06512223          	sw	t0,100(sp)
   163a4:	07112623          	sw	a7,108(sp)
   163a8:	04e12423          	sw	a4,72(sp)
   163ac:	04e12c23          	sw	a4,88(sp)
   163b0:	05012823          	sw	a6,80(sp)
   163b4:	05012e23          	sw	a6,92(sp)
   163b8:	06012023          	sw	zero,96(sp)
   163bc:	db9ff0ef          	jal	16174 <_vfiprintf_r>
   163c0:	00050a93          	mv	s5,a0
   163c4:	00054a63          	bltz	a0,163d8 <_vfiprintf_r+0x264>
   163c8:	04810593          	addi	a1,sp,72
   163cc:	000a0513          	mv	a0,s4
   163d0:	938fd0ef          	jal	13508 <_fflush_r>
   163d4:	5e0518e3          	bnez	a0,171c4 <_vfiprintf_r+0x1050>
   163d8:	05415783          	lhu	a5,84(sp)
   163dc:	0407f793          	andi	a5,a5,64
   163e0:	00078863          	beqz	a5,163f0 <_vfiprintf_r+0x27c>
   163e4:	00ccd783          	lhu	a5,12(s9)
   163e8:	0407e793          	ori	a5,a5,64
   163ec:	00fc9623          	sh	a5,12(s9)
   163f0:	000a8513          	mv	a0,s5
   163f4:	4ec12083          	lw	ra,1260(sp)
   163f8:	4e812403          	lw	s0,1256(sp)
   163fc:	4e412483          	lw	s1,1252(sp)
   16400:	4e012903          	lw	s2,1248(sp)
   16404:	4dc12983          	lw	s3,1244(sp)
   16408:	4d812a03          	lw	s4,1240(sp)
   1640c:	4d412a83          	lw	s5,1236(sp)
   16410:	4d012b03          	lw	s6,1232(sp)
   16414:	4cc12b83          	lw	s7,1228(sp)
   16418:	4c812c03          	lw	s8,1224(sp)
   1641c:	4c412c83          	lw	s9,1220(sp)
   16420:	4c012d03          	lw	s10,1216(sp)
   16424:	4bc12d83          	lw	s11,1212(sp)
   16428:	4f010113          	addi	sp,sp,1264
   1642c:	00008067          	ret
   16430:	ec8fd0ef          	jal	13af8 <__sinit>
   16434:	d95ff06f          	j	161c8 <_vfiprintf_r+0x54>
   16438:	01412703          	lw	a4,20(sp)
   1643c:	00072b03          	lw	s6,0(a4)
   16440:	00470713          	addi	a4,a4,4
   16444:	00e12a23          	sw	a4,20(sp)
   16448:	ee0b56e3          	bgez	s6,16334 <_vfiprintf_r+0x1c0>
   1644c:	41600b33          	neg	s6,s6
   16450:	00496913          	ori	s2,s2,4
   16454:	000a8493          	mv	s1,s5
   16458:	ea1ff06f          	j	162f8 <_vfiprintf_r+0x184>
   1645c:	01412803          	lw	a6,20(sp)
   16460:	03000613          	li	a2,48
   16464:	02c10c23          	sb	a2,56(sp)
   16468:	07800613          	li	a2,120
   1646c:	00480713          	addi	a4,a6,4
   16470:	00082783          	lw	a5,0(a6)
   16474:	00296593          	ori	a1,s2,2
   16478:	02c10ca3          	sb	a2,57(sp)
   1647c:	02010ba3          	sb	zero,55(sp)
   16480:	2e0dc8e3          	bltz	s11,16f70 <_vfiprintf_r+0xdfc>
   16484:	f7f97893          	andi	a7,s2,-129
   16488:	0028e913          	ori	s2,a7,2
   1648c:	00e12a23          	sw	a4,20(sp)
   16490:	300792e3          	bnez	a5,16f94 <_vfiprintf_r+0xe20>
   16494:	0001b9b7          	lui	s3,0x1b
   16498:	ab098993          	addi	s3,s3,-1360 # 1aab0 <__clz_tab+0x128>
   1649c:	03312023          	sw	s3,32(sp)
   164a0:	00000593          	li	a1,0
   164a4:	00000793          	li	a5,0
   164a8:	2c0d8c63          	beqz	s11,16780 <_vfiprintf_r+0x60c>
   164ac:	02012603          	lw	a2,32(sp)
   164b0:	07010993          	addi	s3,sp,112
   164b4:	00f7f713          	andi	a4,a5,15
   164b8:	00e60733          	add	a4,a2,a4
   164bc:	00074703          	lbu	a4,0(a4)
   164c0:	fff98993          	addi	s3,s3,-1
   164c4:	0047d793          	srli	a5,a5,0x4
   164c8:	00e98023          	sb	a4,0(s3)
   164cc:	fe0794e3          	bnez	a5,164b4 <_vfiprintf_r+0x340>
   164d0:	01012783          	lw	a5,16(sp)
   164d4:	41378433          	sub	s0,a5,s3
   164d8:	000d8d13          	mv	s10,s11
   164dc:	008dd463          	ble	s0,s11,164e4 <_vfiprintf_r+0x370>
   164e0:	00040d13          	mv	s10,s0
   164e4:	00b035b3          	snez	a1,a1
   164e8:	00bd0d33          	add	s10,s10,a1
   164ec:	00297393          	andi	t2,s2,2
   164f0:	00038463          	beqz	t2,164f8 <_vfiprintf_r+0x384>
   164f4:	002d0d13          	addi	s10,s10,2
   164f8:	08497313          	andi	t1,s2,132
   164fc:	5c031463          	bnez	t1,16ac4 <_vfiprintf_r+0x950>
   16500:	41ab04b3          	sub	s1,s6,s10
   16504:	5c905063          	blez	s1,16ac4 <_vfiprintf_r+0x950>
   16508:	01000e13          	li	t3,16
   1650c:	04412783          	lw	a5,68(sp)
   16510:	3e9e50e3          	ble	s1,t3,170f0 <_vfiprintf_r+0xf7c>
   16514:	02812223          	sw	s0,36(sp)
   16518:	04012583          	lw	a1,64(sp)
   1651c:	00048413          	mv	s0,s1
   16520:	01712e23          	sw	s7,28(sp)
   16524:	00700e93          	li	t4,7
   16528:	02712423          	sw	t2,40(sp)
   1652c:	00030493          	mv	s1,t1
   16530:	0180006f          	j	16548 <_vfiprintf_r+0x3d4>
   16534:	00258613          	addi	a2,a1,2
   16538:	00868693          	addi	a3,a3,8
   1653c:	00070593          	mv	a1,a4
   16540:	ff040413          	addi	s0,s0,-16
   16544:	028e5c63          	ble	s0,t3,1657c <_vfiprintf_r+0x408>
   16548:	01078793          	addi	a5,a5,16
   1654c:	00158713          	addi	a4,a1,1
   16550:	0176a023          	sw	s7,0(a3)
   16554:	01c6a223          	sw	t3,4(a3)
   16558:	04f12223          	sw	a5,68(sp)
   1655c:	04e12023          	sw	a4,64(sp)
   16560:	fceedae3          	ble	a4,t4,16534 <_vfiprintf_r+0x3c0>
   16564:	52079463          	bnez	a5,16a8c <_vfiprintf_r+0x918>
   16568:	ff040413          	addi	s0,s0,-16
   1656c:	00000593          	li	a1,0
   16570:	00100613          	li	a2,1
   16574:	000c0693          	mv	a3,s8
   16578:	fc8e48e3          	blt	t3,s0,16548 <_vfiprintf_r+0x3d4>
   1657c:	00048313          	mv	t1,s1
   16580:	02812383          	lw	t2,40(sp)
   16584:	00040493          	mv	s1,s0
   16588:	02412403          	lw	s0,36(sp)
   1658c:	01c12803          	lw	a6,28(sp)
   16590:	00f487b3          	add	a5,s1,a5
   16594:	00700713          	li	a4,7
   16598:	0106a023          	sw	a6,0(a3)
   1659c:	0096a223          	sw	s1,4(a3)
   165a0:	04f12223          	sw	a5,68(sp)
   165a4:	04c12023          	sw	a2,64(sp)
   165a8:	7ec74263          	blt	a4,a2,16d8c <_vfiprintf_r+0xc18>
   165ac:	03714703          	lbu	a4,55(sp)
   165b0:	00868693          	addi	a3,a3,8
   165b4:	00160593          	addi	a1,a2,1
   165b8:	52071063          	bnez	a4,16ad8 <_vfiprintf_r+0x964>
   165bc:	54038a63          	beqz	t2,16b10 <_vfiprintf_r+0x99c>
   165c0:	03810713          	addi	a4,sp,56
   165c4:	00e6a023          	sw	a4,0(a3)
   165c8:	00200713          	li	a4,2
   165cc:	00278793          	addi	a5,a5,2
   165d0:	00e6a223          	sw	a4,4(a3)
   165d4:	00700713          	li	a4,7
   165d8:	04f12223          	sw	a5,68(sp)
   165dc:	04b12023          	sw	a1,64(sp)
   165e0:	7eb75c63          	ble	a1,a4,16dd8 <_vfiprintf_r+0xc64>
   165e4:	0e0794e3          	bnez	a5,16ecc <_vfiprintf_r+0xd58>
   165e8:	08000713          	li	a4,128
   165ec:	00000613          	li	a2,0
   165f0:	00100593          	li	a1,1
   165f4:	000c0693          	mv	a3,s8
   165f8:	52e31063          	bne	t1,a4,16b18 <_vfiprintf_r+0x9a4>
   165fc:	41ab04b3          	sub	s1,s6,s10
   16600:	50905c63          	blez	s1,16b18 <_vfiprintf_r+0x9a4>
   16604:	01000393          	li	t2,16
   16608:	3693d8e3          	ble	s1,t2,17178 <_vfiprintf_r+0x1004>
   1660c:	0001b5b7          	lui	a1,0x1b
   16610:	94c58313          	addi	t1,a1,-1716 # 1a94c <zeroes.3949>
   16614:	00812e23          	sw	s0,28(sp)
   16618:	00700e13          	li	t3,7
   1661c:	00030413          	mv	s0,t1
   16620:	0180006f          	j	16638 <_vfiprintf_r+0x4c4>
   16624:	00260513          	addi	a0,a2,2
   16628:	00868693          	addi	a3,a3,8
   1662c:	00070613          	mv	a2,a4
   16630:	ff048493          	addi	s1,s1,-16
   16634:	0293dc63          	ble	s1,t2,1666c <_vfiprintf_r+0x4f8>
   16638:	01078793          	addi	a5,a5,16
   1663c:	00160713          	addi	a4,a2,1
   16640:	0086a023          	sw	s0,0(a3)
   16644:	0076a223          	sw	t2,4(a3)
   16648:	04f12223          	sw	a5,68(sp)
   1664c:	04e12023          	sw	a4,64(sp)
   16650:	fcee5ae3          	ble	a4,t3,16624 <_vfiprintf_r+0x4b0>
   16654:	70079063          	bnez	a5,16d54 <_vfiprintf_r+0xbe0>
   16658:	ff048493          	addi	s1,s1,-16
   1665c:	00000613          	li	a2,0
   16660:	00100513          	li	a0,1
   16664:	000c0693          	mv	a3,s8
   16668:	fc93c8e3          	blt	t2,s1,16638 <_vfiprintf_r+0x4c4>
   1666c:	00040313          	mv	t1,s0
   16670:	01c12403          	lw	s0,28(sp)
   16674:	009787b3          	add	a5,a5,s1
   16678:	00700713          	li	a4,7
   1667c:	0066a023          	sw	t1,0(a3)
   16680:	0096a223          	sw	s1,4(a3)
   16684:	04f12223          	sw	a5,68(sp)
   16688:	04a12023          	sw	a0,64(sp)
   1668c:	0aa744e3          	blt	a4,a0,16f34 <_vfiprintf_r+0xdc0>
   16690:	408d8db3          	sub	s11,s11,s0
   16694:	00868693          	addi	a3,a3,8
   16698:	00150593          	addi	a1,a0,1
   1669c:	00050613          	mv	a2,a0
   166a0:	49b04063          	bgtz	s11,16b20 <_vfiprintf_r+0x9ac>
   166a4:	00f407b3          	add	a5,s0,a5
   166a8:	00700713          	li	a4,7
   166ac:	0136a023          	sw	s3,0(a3)
   166b0:	0086a223          	sw	s0,4(a3)
   166b4:	04f12223          	sw	a5,68(sp)
   166b8:	04b12023          	sw	a1,64(sp)
   166bc:	56b75e63          	ble	a1,a4,16c38 <_vfiprintf_r+0xac4>
   166c0:	7c079863          	bnez	a5,16e90 <_vfiprintf_r+0xd1c>
   166c4:	00497893          	andi	a7,s2,4
   166c8:	04012023          	sw	zero,64(sp)
   166cc:	78088a63          	beqz	a7,16e60 <_vfiprintf_r+0xcec>
   166d0:	41ab0433          	sub	s0,s6,s10
   166d4:	1a804ee3          	bgtz	s0,17090 <_vfiprintf_r+0xf1c>
   166d8:	01ab5463          	ble	s10,s6,166e0 <_vfiprintf_r+0x56c>
   166dc:	000d0b13          	mv	s6,s10
   166e0:	01812703          	lw	a4,24(sp)
   166e4:	01670733          	add	a4,a4,s6
   166e8:	00e12c23          	sw	a4,24(sp)
   166ec:	04012023          	sw	zero,64(sp)
   166f0:	000c0693          	mv	a3,s8
   166f4:	b6dff06f          	j	16260 <_vfiprintf_r+0xec>
   166f8:	00100513          	li	a0,1
   166fc:	02b00293          	li	t0,43
   16700:	000a8493          	mv	s1,s5
   16704:	bf5ff06f          	j	162f8 <_vfiprintf_r+0x184>
   16708:	08096913          	ori	s2,s2,128
   1670c:	000a8493          	mv	s1,s5
   16710:	be9ff06f          	j	162f8 <_vfiprintf_r+0x184>
   16714:	00000b13          	li	s6,0
   16718:	fd070793          	addi	a5,a4,-48
   1671c:	001a8a93          	addi	s5,s5,1
   16720:	fffac703          	lbu	a4,-1(s5)
   16724:	001b1813          	slli	a6,s6,0x1
   16728:	003b1b13          	slli	s6,s6,0x3
   1672c:	01680b33          	add	s6,a6,s6
   16730:	01678b33          	add	s6,a5,s6
   16734:	fd070793          	addi	a5,a4,-48
   16738:	fef5f2e3          	bleu	a5,a1,1671c <_vfiprintf_r+0x5a8>
   1673c:	bc5ff06f          	j	16300 <_vfiprintf_r+0x18c>
   16740:	280516e3          	bnez	a0,171cc <_vfiprintf_r+0x1058>
   16744:	01096913          	ori	s2,s2,16
   16748:	01097793          	andi	a5,s2,16
   1674c:	70079063          	bnez	a5,16e4c <_vfiprintf_r+0xcd8>
   16750:	04097793          	andi	a5,s2,64
   16754:	6e078c63          	beqz	a5,16e4c <_vfiprintf_r+0xcd8>
   16758:	01412803          	lw	a6,20(sp)
   1675c:	00081783          	lh	a5,0(a6)
   16760:	00480813          	addi	a6,a6,4
   16764:	01012a23          	sw	a6,20(sp)
   16768:	0607c8e3          	bltz	a5,16fd8 <_vfiprintf_r+0xe64>
   1676c:	03714583          	lbu	a1,55(sp)
   16770:	680dca63          	bltz	s11,16e04 <_vfiprintf_r+0xc90>
   16774:	f7f97913          	andi	s2,s2,-129
   16778:	10079663          	bnez	a5,16884 <_vfiprintf_r+0x710>
   1677c:	1a0d92e3          	bnez	s11,17120 <_vfiprintf_r+0xfac>
   16780:	00000d93          	li	s11,0
   16784:	00000413          	li	s0,0
   16788:	07010993          	addi	s3,sp,112
   1678c:	d4dff06f          	j	164d8 <_vfiprintf_r+0x364>
   16790:	240516e3          	bnez	a0,171dc <_vfiprintf_r+0x1068>
   16794:	01096913          	ori	s2,s2,16
   16798:	01097793          	andi	a5,s2,16
   1679c:	68079463          	bnez	a5,16e24 <_vfiprintf_r+0xcb0>
   167a0:	04097793          	andi	a5,s2,64
   167a4:	68078063          	beqz	a5,16e24 <_vfiprintf_r+0xcb0>
   167a8:	01412803          	lw	a6,20(sp)
   167ac:	02010ba3          	sb	zero,55(sp)
   167b0:	00480713          	addi	a4,a6,4
   167b4:	00085783          	lhu	a5,0(a6)
   167b8:	680dc063          	bltz	s11,16e38 <_vfiprintf_r+0xcc4>
   167bc:	f7f97913          	andi	s2,s2,-129
   167c0:	00e12a23          	sw	a4,20(sp)
   167c4:	68079063          	bnez	a5,16e44 <_vfiprintf_r+0xcd0>
   167c8:	00000593          	li	a1,0
   167cc:	00000793          	li	a5,0
   167d0:	220d82e3          	beqz	s11,171f4 <_vfiprintf_r+0x1080>
   167d4:	07010993          	addi	s3,sp,112
   167d8:	0077f713          	andi	a4,a5,7
   167dc:	fff98993          	addi	s3,s3,-1
   167e0:	03070713          	addi	a4,a4,48
   167e4:	0037d793          	srli	a5,a5,0x3
   167e8:	00e98023          	sb	a4,0(s3)
   167ec:	fe0796e3          	bnez	a5,167d8 <_vfiprintf_r+0x664>
   167f0:	00197793          	andi	a5,s2,1
   167f4:	0c078263          	beqz	a5,168b8 <_vfiprintf_r+0x744>
   167f8:	03000793          	li	a5,48
   167fc:	ccf70ae3          	beq	a4,a5,164d0 <_vfiprintf_r+0x35c>
   16800:	01012803          	lw	a6,16(sp)
   16804:	fff98713          	addi	a4,s3,-1
   16808:	fef98fa3          	sb	a5,-1(s3)
   1680c:	40e80433          	sub	s0,a6,a4
   16810:	00070993          	mv	s3,a4
   16814:	cc5ff06f          	j	164d8 <_vfiprintf_r+0x364>
   16818:	1c051ae3          	bnez	a0,171ec <_vfiprintf_r+0x1078>
   1681c:	01097793          	andi	a5,s2,16
   16820:	24079863          	bnez	a5,16a70 <_vfiprintf_r+0x8fc>
   16824:	04097893          	andi	a7,s2,64
   16828:	24088463          	beqz	a7,16a70 <_vfiprintf_r+0x8fc>
   1682c:	01412803          	lw	a6,20(sp)
   16830:	01812703          	lw	a4,24(sp)
   16834:	00082783          	lw	a5,0(a6)
   16838:	00480813          	addi	a6,a6,4
   1683c:	01012a23          	sw	a6,20(sp)
   16840:	00e79023          	sh	a4,0(a5)
   16844:	a1dff06f          	j	16260 <_vfiprintf_r+0xec>
   16848:	18051ee3          	bnez	a0,171e4 <_vfiprintf_r+0x1070>
   1684c:	01096913          	ori	s2,s2,16
   16850:	01097793          	andi	a5,s2,16
   16854:	58079a63          	bnez	a5,16de8 <_vfiprintf_r+0xc74>
   16858:	04097793          	andi	a5,s2,64
   1685c:	58078663          	beqz	a5,16de8 <_vfiprintf_r+0xc74>
   16860:	01412803          	lw	a6,20(sp)
   16864:	02010ba3          	sb	zero,55(sp)
   16868:	00480713          	addi	a4,a6,4
   1686c:	00085783          	lhu	a5,0(a6)
   16870:	580dc663          	bltz	s11,16dfc <_vfiprintf_r+0xc88>
   16874:	f7f97913          	andi	s2,s2,-129
   16878:	00e12a23          	sw	a4,20(sp)
   1687c:	00000593          	li	a1,0
   16880:	ee078ee3          	beqz	a5,1677c <_vfiprintf_r+0x608>
   16884:	00900293          	li	t0,9
   16888:	07010613          	addi	a2,sp,112
   1688c:	00a00513          	li	a0,10
   16890:	00f2fe63          	bleu	a5,t0,168ac <_vfiprintf_r+0x738>
   16894:	02a7f733          	remu	a4,a5,a0
   16898:	fff60613          	addi	a2,a2,-1
   1689c:	02a7d7b3          	divu	a5,a5,a0
   168a0:	03070713          	addi	a4,a4,48
   168a4:	00e60023          	sb	a4,0(a2)
   168a8:	fef2e6e3          	bltu	t0,a5,16894 <_vfiprintf_r+0x720>
   168ac:	03078793          	addi	a5,a5,48
   168b0:	fff60993          	addi	s3,a2,-1
   168b4:	fef60fa3          	sb	a5,-1(a2)
   168b8:	01012703          	lw	a4,16(sp)
   168bc:	41370433          	sub	s0,a4,s3
   168c0:	c19ff06f          	j	164d8 <_vfiprintf_r+0x364>
   168c4:	000ac703          	lbu	a4,0(s5)
   168c8:	001a8a93          	addi	s5,s5,1
   168cc:	0c670ce3          	beq	a4,t1,171a4 <_vfiprintf_r+0x1030>
   168d0:	fd070793          	addi	a5,a4,-48
   168d4:	00000d93          	li	s11,0
   168d8:	a2f5e4e3          	bltu	a1,a5,16300 <_vfiprintf_r+0x18c>
   168dc:	001a8a93          	addi	s5,s5,1
   168e0:	fffac703          	lbu	a4,-1(s5)
   168e4:	001d9813          	slli	a6,s11,0x1
   168e8:	003d9d93          	slli	s11,s11,0x3
   168ec:	01b80db3          	add	s11,a6,s11
   168f0:	01b78db3          	add	s11,a5,s11
   168f4:	fd070793          	addi	a5,a4,-48
   168f8:	fef5f2e3          	bleu	a5,a1,168dc <_vfiprintf_r+0x768>
   168fc:	a00dd2e3          	bgez	s11,16300 <_vfiprintf_r+0x18c>
   16900:	fff00d93          	li	s11,-1
   16904:	9fdff06f          	j	16300 <_vfiprintf_r+0x18c>
   16908:	04096913          	ori	s2,s2,64
   1690c:	000a8493          	mv	s1,s5
   16910:	9e9ff06f          	j	162f8 <_vfiprintf_r+0x184>
   16914:	0c0510e3          	bnez	a0,171d4 <_vfiprintf_r+0x1060>
   16918:	0001b9b7          	lui	s3,0x1b
   1691c:	ab098993          	addi	s3,s3,-1360 # 1aab0 <__clz_tab+0x128>
   16920:	01097793          	andi	a5,s2,16
   16924:	03312023          	sw	s3,32(sp)
   16928:	10078463          	beqz	a5,16a30 <_vfiprintf_r+0x8bc>
   1692c:	01412803          	lw	a6,20(sp)
   16930:	00082783          	lw	a5,0(a6)
   16934:	00480813          	addi	a6,a6,4
   16938:	01012a23          	sw	a6,20(sp)
   1693c:	00197613          	andi	a2,s2,1
   16940:	52060c63          	beqz	a2,16e78 <_vfiprintf_r+0xd04>
   16944:	66079663          	bnez	a5,16fb0 <_vfiprintf_r+0xe3c>
   16948:	02010ba3          	sb	zero,55(sp)
   1694c:	620dce63          	bltz	s11,16f88 <_vfiprintf_r+0xe14>
   16950:	f7f97913          	andi	s2,s2,-129
   16954:	b4dff06f          	j	164a0 <_vfiprintf_r+0x32c>
   16958:	e40500e3          	beqz	a0,16798 <_vfiprintf_r+0x624>
   1695c:	02510ba3          	sb	t0,55(sp)
   16960:	e39ff06f          	j	16798 <_vfiprintf_r+0x624>
   16964:	9c0298e3          	bnez	t0,16334 <_vfiprintf_r+0x1c0>
   16968:	00100513          	li	a0,1
   1696c:	02000293          	li	t0,32
   16970:	000a8493          	mv	s1,s5
   16974:	985ff06f          	j	162f8 <_vfiprintf_r+0x184>
   16978:	00196913          	ori	s2,s2,1
   1697c:	000a8493          	mv	s1,s5
   16980:	979ff06f          	j	162f8 <_vfiprintf_r+0x184>
   16984:	01412703          	lw	a4,20(sp)
   16988:	02010ba3          	sb	zero,55(sp)
   1698c:	00072983          	lw	s3,0(a4)
   16990:	00470493          	addi	s1,a4,4
   16994:	78098c63          	beqz	s3,1712c <_vfiprintf_r+0xfb8>
   16998:	700dc663          	bltz	s11,170a4 <_vfiprintf_r+0xf30>
   1699c:	000d8613          	mv	a2,s11
   169a0:	00000593          	li	a1,0
   169a4:	00098513          	mv	a0,s3
   169a8:	00d12423          	sw	a3,8(sp)
   169ac:	888fe0ef          	jal	14a34 <memchr>
   169b0:	00812683          	lw	a3,8(sp)
   169b4:	7c050a63          	beqz	a0,17188 <_vfiprintf_r+0x1014>
   169b8:	41350533          	sub	a0,a0,s3
   169bc:	000d8413          	mv	s0,s11
   169c0:	6bb54663          	blt	a0,s11,1706c <_vfiprintf_r+0xef8>
   169c4:	03714583          	lbu	a1,55(sp)
   169c8:	00912a23          	sw	s1,20(sp)
   169cc:	00000d93          	li	s11,0
   169d0:	b09ff06f          	j	164d8 <_vfiprintf_r+0x364>
   169d4:	e6050ee3          	beqz	a0,16850 <_vfiprintf_r+0x6dc>
   169d8:	02510ba3          	sb	t0,55(sp)
   169dc:	e75ff06f          	j	16850 <_vfiprintf_r+0x6dc>
   169e0:	01412803          	lw	a6,20(sp)
   169e4:	00100d13          	li	s10,1
   169e8:	02010ba3          	sb	zero,55(sp)
   169ec:	00082783          	lw	a5,0(a6)
   169f0:	00480813          	addi	a6,a6,4
   169f4:	01012a23          	sw	a6,20(sp)
   169f8:	04f10423          	sb	a5,72(sp)
   169fc:	000d0413          	mv	s0,s10
   16a00:	04810993          	addi	s3,sp,72
   16a04:	00000d93          	li	s11,0
   16a08:	ae5ff06f          	j	164ec <_vfiprintf_r+0x378>
   16a0c:	d2050ee3          	beqz	a0,16748 <_vfiprintf_r+0x5d4>
   16a10:	02510ba3          	sb	t0,55(sp)
   16a14:	d35ff06f          	j	16748 <_vfiprintf_r+0x5d4>
   16a18:	000518e3          	bnez	a0,17228 <_vfiprintf_r+0x10b4>
   16a1c:	0001b9b7          	lui	s3,0x1b
   16a20:	a9c98993          	addi	s3,s3,-1380 # 1aa9c <__clz_tab+0x114>
   16a24:	01097793          	andi	a5,s2,16
   16a28:	03312023          	sw	s3,32(sp)
   16a2c:	f00790e3          	bnez	a5,1692c <_vfiprintf_r+0x7b8>
   16a30:	04097793          	andi	a5,s2,64
   16a34:	01412803          	lw	a6,20(sp)
   16a38:	5c078e63          	beqz	a5,17014 <_vfiprintf_r+0xea0>
   16a3c:	00085783          	lhu	a5,0(a6)
   16a40:	00480813          	addi	a6,a6,4
   16a44:	01012a23          	sw	a6,20(sp)
   16a48:	ef5ff06f          	j	1693c <_vfiprintf_r+0x7c8>
   16a4c:	7c051a63          	bnez	a0,17220 <_vfiprintf_r+0x10ac>
   16a50:	18070e63          	beqz	a4,16bec <_vfiprintf_r+0xa78>
   16a54:	00100d13          	li	s10,1
   16a58:	04e10423          	sb	a4,72(sp)
   16a5c:	02010ba3          	sb	zero,55(sp)
   16a60:	000d0413          	mv	s0,s10
   16a64:	04810993          	addi	s3,sp,72
   16a68:	00000d93          	li	s11,0
   16a6c:	a81ff06f          	j	164ec <_vfiprintf_r+0x378>
   16a70:	01412803          	lw	a6,20(sp)
   16a74:	01812703          	lw	a4,24(sp)
   16a78:	00082783          	lw	a5,0(a6)
   16a7c:	00480813          	addi	a6,a6,4
   16a80:	01012a23          	sw	a6,20(sp)
   16a84:	00e7a023          	sw	a4,0(a5)
   16a88:	fd8ff06f          	j	16260 <_vfiprintf_r+0xec>
   16a8c:	03c10613          	addi	a2,sp,60
   16a90:	000c8593          	mv	a1,s9
   16a94:	000a0513          	mv	a0,s4
   16a98:	01c12223          	sw	t3,4(sp)
   16a9c:	01d12423          	sw	t4,8(sp)
   16aa0:	dd4ff0ef          	jal	16074 <__sprint_r.part.0>
   16aa4:	00412e03          	lw	t3,4(sp)
   16aa8:	00812e83          	lw	t4,8(sp)
   16aac:	14051c63          	bnez	a0,16c04 <_vfiprintf_r+0xa90>
   16ab0:	04012583          	lw	a1,64(sp)
   16ab4:	04412783          	lw	a5,68(sp)
   16ab8:	000c0693          	mv	a3,s8
   16abc:	00158613          	addi	a2,a1,1
   16ac0:	a81ff06f          	j	16540 <_vfiprintf_r+0x3cc>
   16ac4:	04012603          	lw	a2,64(sp)
   16ac8:	04412783          	lw	a5,68(sp)
   16acc:	00160593          	addi	a1,a2,1
   16ad0:	03714703          	lbu	a4,55(sp)
   16ad4:	ae0704e3          	beqz	a4,165bc <_vfiprintf_r+0x448>
   16ad8:	00100713          	li	a4,1
   16adc:	03710613          	addi	a2,sp,55
   16ae0:	00e787b3          	add	a5,a5,a4
   16ae4:	00c6a023          	sw	a2,0(a3)
   16ae8:	00700613          	li	a2,7
   16aec:	00e6a223          	sw	a4,4(a3)
   16af0:	04f12223          	sw	a5,68(sp)
   16af4:	04b12023          	sw	a1,64(sp)
   16af8:	2ab65c63          	ble	a1,a2,16db0 <_vfiprintf_r+0xc3c>
   16afc:	40079063          	bnez	a5,16efc <_vfiprintf_r+0xd88>
   16b00:	2c039063          	bnez	t2,16dc0 <_vfiprintf_r+0xc4c>
   16b04:	00000613          	li	a2,0
   16b08:	00070593          	mv	a1,a4
   16b0c:	000c0693          	mv	a3,s8
   16b10:	08000713          	li	a4,128
   16b14:	aee304e3          	beq	t1,a4,165fc <_vfiprintf_r+0x488>
   16b18:	408d8db3          	sub	s11,s11,s0
   16b1c:	b9b054e3          	blez	s11,166a4 <_vfiprintf_r+0x530>
   16b20:	01000713          	li	a4,16
   16b24:	57b75a63          	ble	s11,a4,17098 <_vfiprintf_r+0xf24>
   16b28:	0001b837          	lui	a6,0x1b
   16b2c:	94c80313          	addi	t1,a6,-1716 # 1a94c <zeroes.3949>
   16b30:	00812e23          	sw	s0,28(sp)
   16b34:	00070493          	mv	s1,a4
   16b38:	00700393          	li	t2,7
   16b3c:	00030413          	mv	s0,t1
   16b40:	0180006f          	j	16b58 <_vfiprintf_r+0x9e4>
   16b44:	00260593          	addi	a1,a2,2
   16b48:	00868693          	addi	a3,a3,8
   16b4c:	00070613          	mv	a2,a4
   16b50:	ff0d8d93          	addi	s11,s11,-16
   16b54:	03b4dc63          	ble	s11,s1,16b8c <_vfiprintf_r+0xa18>
   16b58:	01078793          	addi	a5,a5,16
   16b5c:	00160713          	addi	a4,a2,1
   16b60:	0086a023          	sw	s0,0(a3)
   16b64:	0096a223          	sw	s1,4(a3)
   16b68:	04f12223          	sw	a5,68(sp)
   16b6c:	04e12023          	sw	a4,64(sp)
   16b70:	fce3dae3          	ble	a4,t2,16b44 <_vfiprintf_r+0x9d0>
   16b74:	04079463          	bnez	a5,16bbc <_vfiprintf_r+0xa48>
   16b78:	ff0d8d93          	addi	s11,s11,-16
   16b7c:	00000613          	li	a2,0
   16b80:	00100593          	li	a1,1
   16b84:	000c0693          	mv	a3,s8
   16b88:	fdb4c8e3          	blt	s1,s11,16b58 <_vfiprintf_r+0x9e4>
   16b8c:	00040313          	mv	t1,s0
   16b90:	01c12403          	lw	s0,28(sp)
   16b94:	01b787b3          	add	a5,a5,s11
   16b98:	00700713          	li	a4,7
   16b9c:	0066a023          	sw	t1,0(a3)
   16ba0:	01b6a223          	sw	s11,4(a3)
   16ba4:	04f12223          	sw	a5,68(sp)
   16ba8:	04b12023          	sw	a1,64(sp)
   16bac:	06b74663          	blt	a4,a1,16c18 <_vfiprintf_r+0xaa4>
   16bb0:	00868693          	addi	a3,a3,8
   16bb4:	00158593          	addi	a1,a1,1
   16bb8:	aedff06f          	j	166a4 <_vfiprintf_r+0x530>
   16bbc:	03c10613          	addi	a2,sp,60
   16bc0:	000c8593          	mv	a1,s9
   16bc4:	000a0513          	mv	a0,s4
   16bc8:	00712023          	sw	t2,0(sp)
   16bcc:	ca8ff0ef          	jal	16074 <__sprint_r.part.0>
   16bd0:	00012383          	lw	t2,0(sp)
   16bd4:	02051863          	bnez	a0,16c04 <_vfiprintf_r+0xa90>
   16bd8:	04012603          	lw	a2,64(sp)
   16bdc:	04412783          	lw	a5,68(sp)
   16be0:	000c0693          	mv	a3,s8
   16be4:	00160593          	addi	a1,a2,1
   16be8:	f69ff06f          	j	16b50 <_vfiprintf_r+0x9dc>
   16bec:	04412783          	lw	a5,68(sp)
   16bf0:	00078a63          	beqz	a5,16c04 <_vfiprintf_r+0xa90>
   16bf4:	03c10613          	addi	a2,sp,60
   16bf8:	000c8593          	mv	a1,s9
   16bfc:	000a0513          	mv	a0,s4
   16c00:	c74ff0ef          	jal	16074 <__sprint_r.part.0>
   16c04:	00ccd783          	lhu	a5,12(s9)
   16c08:	0407f793          	andi	a5,a5,64
   16c0c:	44079863          	bnez	a5,1705c <_vfiprintf_r+0xee8>
   16c10:	01812503          	lw	a0,24(sp)
   16c14:	fe0ff06f          	j	163f4 <_vfiprintf_r+0x280>
   16c18:	32079863          	bnez	a5,16f48 <_vfiprintf_r+0xdd4>
   16c1c:	00100793          	li	a5,1
   16c20:	04f12023          	sw	a5,64(sp)
   16c24:	0b312823          	sw	s3,176(sp)
   16c28:	0a812a23          	sw	s0,180(sp)
   16c2c:	04812223          	sw	s0,68(sp)
   16c30:	00040793          	mv	a5,s0
   16c34:	000c0693          	mv	a3,s8
   16c38:	00868693          	addi	a3,a3,8
   16c3c:	00497893          	andi	a7,s2,4
   16c40:	0e088263          	beqz	a7,16d24 <_vfiprintf_r+0xbb0>
   16c44:	41ab0433          	sub	s0,s6,s10
   16c48:	0c805e63          	blez	s0,16d24 <_vfiprintf_r+0xbb0>
   16c4c:	01000493          	li	s1,16
   16c50:	5084dc63          	ble	s0,s1,17168 <_vfiprintf_r+0xff4>
   16c54:	04012603          	lw	a2,64(sp)
   16c58:	01712e23          	sw	s7,28(sp)
   16c5c:	00700d93          	li	s11,7
   16c60:	0180006f          	j	16c78 <_vfiprintf_r+0xb04>
   16c64:	00260593          	addi	a1,a2,2
   16c68:	00868693          	addi	a3,a3,8
   16c6c:	00070613          	mv	a2,a4
   16c70:	ff040413          	addi	s0,s0,-16
   16c74:	0284dc63          	ble	s0,s1,16cac <_vfiprintf_r+0xb38>
   16c78:	01078793          	addi	a5,a5,16
   16c7c:	00160713          	addi	a4,a2,1
   16c80:	0176a023          	sw	s7,0(a3)
   16c84:	0096a223          	sw	s1,4(a3)
   16c88:	04f12223          	sw	a5,68(sp)
   16c8c:	04e12023          	sw	a4,64(sp)
   16c90:	fceddae3          	ble	a4,s11,16c64 <_vfiprintf_r+0xaf0>
   16c94:	04079863          	bnez	a5,16ce4 <_vfiprintf_r+0xb70>
   16c98:	ff040413          	addi	s0,s0,-16
   16c9c:	00000613          	li	a2,0
   16ca0:	00100593          	li	a1,1
   16ca4:	000c0693          	mv	a3,s8
   16ca8:	fc84c8e3          	blt	s1,s0,16c78 <_vfiprintf_r+0xb04>
   16cac:	01c12703          	lw	a4,28(sp)
   16cb0:	008787b3          	add	a5,a5,s0
   16cb4:	0086a223          	sw	s0,4(a3)
   16cb8:	00e6a023          	sw	a4,0(a3)
   16cbc:	00700713          	li	a4,7
   16cc0:	04f12223          	sw	a5,68(sp)
   16cc4:	04b12023          	sw	a1,64(sp)
   16cc8:	04b75e63          	ble	a1,a4,16d24 <_vfiprintf_r+0xbb0>
   16ccc:	04079063          	bnez	a5,16d0c <_vfiprintf_r+0xb98>
   16cd0:	39ab4a63          	blt	s6,s10,17064 <_vfiprintf_r+0xef0>
   16cd4:	01812783          	lw	a5,24(sp)
   16cd8:	016787b3          	add	a5,a5,s6
   16cdc:	00f12c23          	sw	a5,24(sp)
   16ce0:	a0dff06f          	j	166ec <_vfiprintf_r+0x578>
   16ce4:	03c10613          	addi	a2,sp,60
   16ce8:	000c8593          	mv	a1,s9
   16cec:	000a0513          	mv	a0,s4
   16cf0:	b84ff0ef          	jal	16074 <__sprint_r.part.0>
   16cf4:	f00518e3          	bnez	a0,16c04 <_vfiprintf_r+0xa90>
   16cf8:	04012603          	lw	a2,64(sp)
   16cfc:	04412783          	lw	a5,68(sp)
   16d00:	000c0693          	mv	a3,s8
   16d04:	00160593          	addi	a1,a2,1
   16d08:	f69ff06f          	j	16c70 <_vfiprintf_r+0xafc>
   16d0c:	03c10613          	addi	a2,sp,60
   16d10:	000c8593          	mv	a1,s9
   16d14:	000a0513          	mv	a0,s4
   16d18:	b5cff0ef          	jal	16074 <__sprint_r.part.0>
   16d1c:	ee0514e3          	bnez	a0,16c04 <_vfiprintf_r+0xa90>
   16d20:	04412783          	lw	a5,68(sp)
   16d24:	01ab5463          	ble	s10,s6,16d2c <_vfiprintf_r+0xbb8>
   16d28:	000d0b13          	mv	s6,s10
   16d2c:	01812803          	lw	a6,24(sp)
   16d30:	01680833          	add	a6,a6,s6
   16d34:	01012c23          	sw	a6,24(sp)
   16d38:	9a078ae3          	beqz	a5,166ec <_vfiprintf_r+0x578>
   16d3c:	03c10613          	addi	a2,sp,60
   16d40:	000c8593          	mv	a1,s9
   16d44:	000a0513          	mv	a0,s4
   16d48:	b2cff0ef          	jal	16074 <__sprint_r.part.0>
   16d4c:	9a0500e3          	beqz	a0,166ec <_vfiprintf_r+0x578>
   16d50:	eb5ff06f          	j	16c04 <_vfiprintf_r+0xa90>
   16d54:	03c10613          	addi	a2,sp,60
   16d58:	000c8593          	mv	a1,s9
   16d5c:	000a0513          	mv	a0,s4
   16d60:	00712023          	sw	t2,0(sp)
   16d64:	01c12223          	sw	t3,4(sp)
   16d68:	b0cff0ef          	jal	16074 <__sprint_r.part.0>
   16d6c:	00012383          	lw	t2,0(sp)
   16d70:	00412e03          	lw	t3,4(sp)
   16d74:	e80518e3          	bnez	a0,16c04 <_vfiprintf_r+0xa90>
   16d78:	04012603          	lw	a2,64(sp)
   16d7c:	04412783          	lw	a5,68(sp)
   16d80:	000c0693          	mv	a3,s8
   16d84:	00160513          	addi	a0,a2,1
   16d88:	8a9ff06f          	j	16630 <_vfiprintf_r+0x4bc>
   16d8c:	28079c63          	bnez	a5,17024 <_vfiprintf_r+0xeb0>
   16d90:	03714783          	lbu	a5,55(sp)
   16d94:	26078063          	beqz	a5,16ff4 <_vfiprintf_r+0xe80>
   16d98:	00100793          	li	a5,1
   16d9c:	03710713          	addi	a4,sp,55
   16da0:	00078593          	mv	a1,a5
   16da4:	0ae12823          	sw	a4,176(sp)
   16da8:	0af12a23          	sw	a5,180(sp)
   16dac:	000c0693          	mv	a3,s8
   16db0:	00058613          	mv	a2,a1
   16db4:	00868693          	addi	a3,a3,8
   16db8:	00158593          	addi	a1,a1,1
   16dbc:	801ff06f          	j	165bc <_vfiprintf_r+0x448>
   16dc0:	03810693          	addi	a3,sp,56
   16dc4:	00200793          	li	a5,2
   16dc8:	0ad12823          	sw	a3,176(sp)
   16dcc:	0af12a23          	sw	a5,180(sp)
   16dd0:	00070593          	mv	a1,a4
   16dd4:	000c0693          	mv	a3,s8
   16dd8:	00058613          	mv	a2,a1
   16ddc:	00868693          	addi	a3,a3,8
   16de0:	00158593          	addi	a1,a1,1
   16de4:	d2dff06f          	j	16b10 <_vfiprintf_r+0x99c>
   16de8:	01412783          	lw	a5,20(sp)
   16dec:	00478713          	addi	a4,a5,4
   16df0:	0007a783          	lw	a5,0(a5)
   16df4:	02010ba3          	sb	zero,55(sp)
   16df8:	a60ddee3          	bgez	s11,16874 <_vfiprintf_r+0x700>
   16dfc:	00e12a23          	sw	a4,20(sp)
   16e00:	00000593          	li	a1,0
   16e04:	a80790e3          	bnez	a5,16884 <_vfiprintf_r+0x710>
   16e08:	00100793          	li	a5,1
   16e0c:	00100713          	li	a4,1
   16e10:	30e78863          	beq	a5,a4,17120 <_vfiprintf_r+0xfac>
   16e14:	00200713          	li	a4,2
   16e18:	26e78863          	beq	a5,a4,17088 <_vfiprintf_r+0xf14>
   16e1c:	00000793          	li	a5,0
   16e20:	9b5ff06f          	j	167d4 <_vfiprintf_r+0x660>
   16e24:	01412783          	lw	a5,20(sp)
   16e28:	00478713          	addi	a4,a5,4
   16e2c:	0007a783          	lw	a5,0(a5)
   16e30:	02010ba3          	sb	zero,55(sp)
   16e34:	980dd4e3          	bgez	s11,167bc <_vfiprintf_r+0x648>
   16e38:	00e12a23          	sw	a4,20(sp)
   16e3c:	00000593          	li	a1,0
   16e40:	fc0786e3          	beqz	a5,16e0c <_vfiprintf_r+0xc98>
   16e44:	00000593          	li	a1,0
   16e48:	98dff06f          	j	167d4 <_vfiprintf_r+0x660>
   16e4c:	01412703          	lw	a4,20(sp)
   16e50:	00072783          	lw	a5,0(a4)
   16e54:	00470713          	addi	a4,a4,4
   16e58:	00e12a23          	sw	a4,20(sp)
   16e5c:	90dff06f          	j	16768 <_vfiprintf_r+0x5f4>
   16e60:	01ab5463          	ble	s10,s6,16e68 <_vfiprintf_r+0xcf4>
   16e64:	000d0b13          	mv	s6,s10
   16e68:	01812683          	lw	a3,24(sp)
   16e6c:	016686b3          	add	a3,a3,s6
   16e70:	00d12c23          	sw	a3,24(sp)
   16e74:	879ff06f          	j	166ec <_vfiprintf_r+0x578>
   16e78:	02010ba3          	sb	zero,55(sp)
   16e7c:	100dc463          	bltz	s11,16f84 <_vfiprintf_r+0xe10>
   16e80:	f7f97913          	andi	s2,s2,-129
   16e84:	e0078e63          	beqz	a5,164a0 <_vfiprintf_r+0x32c>
   16e88:	00000593          	li	a1,0
   16e8c:	e20ff06f          	j	164ac <_vfiprintf_r+0x338>
   16e90:	03c10613          	addi	a2,sp,60
   16e94:	000c8593          	mv	a1,s9
   16e98:	000a0513          	mv	a0,s4
   16e9c:	9d8ff0ef          	jal	16074 <__sprint_r.part.0>
   16ea0:	d60512e3          	bnez	a0,16c04 <_vfiprintf_r+0xa90>
   16ea4:	04412783          	lw	a5,68(sp)
   16ea8:	000c0693          	mv	a3,s8
   16eac:	d91ff06f          	j	16c3c <_vfiprintf_r+0xac8>
   16eb0:	03c10613          	addi	a2,sp,60
   16eb4:	000c8593          	mv	a1,s9
   16eb8:	000a0513          	mv	a0,s4
   16ebc:	9b8ff0ef          	jal	16074 <__sprint_r.part.0>
   16ec0:	d40512e3          	bnez	a0,16c04 <_vfiprintf_r+0xa90>
   16ec4:	000c0693          	mv	a3,s8
   16ec8:	bf4ff06f          	j	162bc <_vfiprintf_r+0x148>
   16ecc:	03c10613          	addi	a2,sp,60
   16ed0:	000c8593          	mv	a1,s9
   16ed4:	000a0513          	mv	a0,s4
   16ed8:	00612423          	sw	t1,8(sp)
   16edc:	998ff0ef          	jal	16074 <__sprint_r.part.0>
   16ee0:	00812303          	lw	t1,8(sp)
   16ee4:	d20510e3          	bnez	a0,16c04 <_vfiprintf_r+0xa90>
   16ee8:	04012603          	lw	a2,64(sp)
   16eec:	04412783          	lw	a5,68(sp)
   16ef0:	000c0693          	mv	a3,s8
   16ef4:	00160593          	addi	a1,a2,1
   16ef8:	c19ff06f          	j	16b10 <_vfiprintf_r+0x99c>
   16efc:	03c10613          	addi	a2,sp,60
   16f00:	000c8593          	mv	a1,s9
   16f04:	000a0513          	mv	a0,s4
   16f08:	00612423          	sw	t1,8(sp)
   16f0c:	00712023          	sw	t2,0(sp)
   16f10:	964ff0ef          	jal	16074 <__sprint_r.part.0>
   16f14:	00812303          	lw	t1,8(sp)
   16f18:	00012383          	lw	t2,0(sp)
   16f1c:	ce0514e3          	bnez	a0,16c04 <_vfiprintf_r+0xa90>
   16f20:	04012603          	lw	a2,64(sp)
   16f24:	04412783          	lw	a5,68(sp)
   16f28:	000c0693          	mv	a3,s8
   16f2c:	00160593          	addi	a1,a2,1
   16f30:	e8cff06f          	j	165bc <_vfiprintf_r+0x448>
   16f34:	18079a63          	bnez	a5,170c8 <_vfiprintf_r+0xf54>
   16f38:	00000613          	li	a2,0
   16f3c:	00100593          	li	a1,1
   16f40:	000c0693          	mv	a3,s8
   16f44:	bd5ff06f          	j	16b18 <_vfiprintf_r+0x9a4>
   16f48:	03c10613          	addi	a2,sp,60
   16f4c:	000c8593          	mv	a1,s9
   16f50:	000a0513          	mv	a0,s4
   16f54:	920ff0ef          	jal	16074 <__sprint_r.part.0>
   16f58:	ca0516e3          	bnez	a0,16c04 <_vfiprintf_r+0xa90>
   16f5c:	04012583          	lw	a1,64(sp)
   16f60:	04412783          	lw	a5,68(sp)
   16f64:	000c0693          	mv	a3,s8
   16f68:	00158593          	addi	a1,a1,1
   16f6c:	f38ff06f          	j	166a4 <_vfiprintf_r+0x530>
   16f70:	0001b9b7          	lui	s3,0x1b
   16f74:	ab098993          	addi	s3,s3,-1360 # 1aab0 <__clz_tab+0x128>
   16f78:	00e12a23          	sw	a4,20(sp)
   16f7c:	00058913          	mv	s2,a1
   16f80:	03312023          	sw	s3,32(sp)
   16f84:	f00792e3          	bnez	a5,16e88 <_vfiprintf_r+0xd14>
   16f88:	00000593          	li	a1,0
   16f8c:	00200793          	li	a5,2
   16f90:	e7dff06f          	j	16e0c <_vfiprintf_r+0xc98>
   16f94:	0001b9b7          	lui	s3,0x1b
   16f98:	ab098993          	addi	s3,s3,-1360 # 1aab0 <__clz_tab+0x128>
   16f9c:	00000593          	li	a1,0
   16fa0:	03312023          	sw	s3,32(sp)
   16fa4:	d08ff06f          	j	164ac <_vfiprintf_r+0x338>
   16fa8:	000a8493          	mv	s1,s5
   16fac:	b1cff06f          	j	162c8 <_vfiprintf_r+0x154>
   16fb0:	03000613          	li	a2,48
   16fb4:	02e10ca3          	sb	a4,57(sp)
   16fb8:	02c10c23          	sb	a2,56(sp)
   16fbc:	00296713          	ori	a4,s2,2
   16fc0:	02010ba3          	sb	zero,55(sp)
   16fc4:	120dce63          	bltz	s11,17100 <_vfiprintf_r+0xf8c>
   16fc8:	f7f97893          	andi	a7,s2,-129
   16fcc:	0028e913          	ori	s2,a7,2
   16fd0:	00000593          	li	a1,0
   16fd4:	cd8ff06f          	j	164ac <_vfiprintf_r+0x338>
   16fd8:	02d00713          	li	a4,45
   16fdc:	40f007b3          	neg	a5,a5
   16fe0:	02e10ba3          	sb	a4,55(sp)
   16fe4:	160dca63          	bltz	s11,17158 <_vfiprintf_r+0xfe4>
   16fe8:	f7f97913          	andi	s2,s2,-129
   16fec:	02d00593          	li	a1,45
   16ff0:	895ff06f          	j	16884 <_vfiprintf_r+0x710>
   16ff4:	08038063          	beqz	t2,17074 <_vfiprintf_r+0xf00>
   16ff8:	00200793          	li	a5,2
   16ffc:	03810713          	addi	a4,sp,56
   17000:	0ae12823          	sw	a4,176(sp)
   17004:	0af12a23          	sw	a5,180(sp)
   17008:	00100593          	li	a1,1
   1700c:	000c0693          	mv	a3,s8
   17010:	dc9ff06f          	j	16dd8 <_vfiprintf_r+0xc64>
   17014:	00082783          	lw	a5,0(a6)
   17018:	00480813          	addi	a6,a6,4
   1701c:	01012a23          	sw	a6,20(sp)
   17020:	91dff06f          	j	1693c <_vfiprintf_r+0x7c8>
   17024:	03c10613          	addi	a2,sp,60
   17028:	000c8593          	mv	a1,s9
   1702c:	000a0513          	mv	a0,s4
   17030:	00612423          	sw	t1,8(sp)
   17034:	00712023          	sw	t2,0(sp)
   17038:	83cff0ef          	jal	16074 <__sprint_r.part.0>
   1703c:	00812303          	lw	t1,8(sp)
   17040:	00012383          	lw	t2,0(sp)
   17044:	bc0510e3          	bnez	a0,16c04 <_vfiprintf_r+0xa90>
   17048:	04012603          	lw	a2,64(sp)
   1704c:	04412783          	lw	a5,68(sp)
   17050:	000c0693          	mv	a3,s8
   17054:	00160593          	addi	a1,a2,1
   17058:	a79ff06f          	j	16ad0 <_vfiprintf_r+0x95c>
   1705c:	fff00513          	li	a0,-1
   17060:	b94ff06f          	j	163f4 <_vfiprintf_r+0x280>
   17064:	000d0b13          	mv	s6,s10
   17068:	c6dff06f          	j	16cd4 <_vfiprintf_r+0xb60>
   1706c:	00050413          	mv	s0,a0
   17070:	955ff06f          	j	169c4 <_vfiprintf_r+0x850>
   17074:	00000613          	li	a2,0
   17078:	00060793          	mv	a5,a2
   1707c:	00100593          	li	a1,1
   17080:	000c0693          	mv	a3,s8
   17084:	a8dff06f          	j	16b10 <_vfiprintf_r+0x99c>
   17088:	00000793          	li	a5,0
   1708c:	c20ff06f          	j	164ac <_vfiprintf_r+0x338>
   17090:	000c0693          	mv	a3,s8
   17094:	bb9ff06f          	j	16c4c <_vfiprintf_r+0xad8>
   17098:	0001b737          	lui	a4,0x1b
   1709c:	94c70313          	addi	t1,a4,-1716 # 1a94c <zeroes.3949>
   170a0:	af5ff06f          	j	16b94 <_vfiprintf_r+0xa20>
   170a4:	00098513          	mv	a0,s3
   170a8:	00d12423          	sw	a3,8(sp)
   170ac:	f39fe0ef          	jal	15fe4 <strlen>
   170b0:	00050413          	mv	s0,a0
   170b4:	03714583          	lbu	a1,55(sp)
   170b8:	00912a23          	sw	s1,20(sp)
   170bc:	00000d93          	li	s11,0
   170c0:	00812683          	lw	a3,8(sp)
   170c4:	c14ff06f          	j	164d8 <_vfiprintf_r+0x364>
   170c8:	03c10613          	addi	a2,sp,60
   170cc:	000c8593          	mv	a1,s9
   170d0:	000a0513          	mv	a0,s4
   170d4:	fa1fe0ef          	jal	16074 <__sprint_r.part.0>
   170d8:	b20516e3          	bnez	a0,16c04 <_vfiprintf_r+0xa90>
   170dc:	04012603          	lw	a2,64(sp)
   170e0:	04412783          	lw	a5,68(sp)
   170e4:	000c0693          	mv	a3,s8
   170e8:	00160593          	addi	a1,a2,1
   170ec:	a2dff06f          	j	16b18 <_vfiprintf_r+0x9a4>
   170f0:	04012603          	lw	a2,64(sp)
   170f4:	01712e23          	sw	s7,28(sp)
   170f8:	00160613          	addi	a2,a2,1
   170fc:	c90ff06f          	j	1658c <_vfiprintf_r+0x418>
   17100:	00000593          	li	a1,0
   17104:	00200613          	li	a2,2
   17108:	00070913          	mv	s2,a4
   1710c:	00100713          	li	a4,1
   17110:	f6e60a63          	beq	a2,a4,16884 <_vfiprintf_r+0x710>
   17114:	00200713          	li	a4,2
   17118:	b8e60a63          	beq	a2,a4,164ac <_vfiprintf_r+0x338>
   1711c:	eb8ff06f          	j	167d4 <_vfiprintf_r+0x660>
   17120:	00000793          	li	a5,0
   17124:	07010613          	addi	a2,sp,112
   17128:	f84ff06f          	j	168ac <_vfiprintf_r+0x738>
   1712c:	00600793          	li	a5,6
   17130:	01b7f463          	bleu	s11,a5,17138 <_vfiprintf_r+0xfc4>
   17134:	00078d93          	mv	s11,a5
   17138:	000d8413          	mv	s0,s11
   1713c:	000d8d13          	mv	s10,s11
   17140:	040dce63          	bltz	s11,1719c <_vfiprintf_r+0x1028>
   17144:	0001b2b7          	lui	t0,0x1b
   17148:	00912a23          	sw	s1,20(sp)
   1714c:	ac428993          	addi	s3,t0,-1340 # 1aac4 <__clz_tab+0x13c>
   17150:	00000d93          	li	s11,0
   17154:	b98ff06f          	j	164ec <_vfiprintf_r+0x378>
   17158:	00090713          	mv	a4,s2
   1715c:	02d00593          	li	a1,45
   17160:	00100613          	li	a2,1
   17164:	fa5ff06f          	j	17108 <_vfiprintf_r+0xf94>
   17168:	04012583          	lw	a1,64(sp)
   1716c:	01712e23          	sw	s7,28(sp)
   17170:	00158593          	addi	a1,a1,1
   17174:	b39ff06f          	j	16cac <_vfiprintf_r+0xb38>
   17178:	0001b637          	lui	a2,0x1b
   1717c:	00058513          	mv	a0,a1
   17180:	94c60313          	addi	t1,a2,-1716 # 1a94c <zeroes.3949>
   17184:	cf0ff06f          	j	16674 <_vfiprintf_r+0x500>
   17188:	000d8413          	mv	s0,s11
   1718c:	03714583          	lbu	a1,55(sp)
   17190:	00912a23          	sw	s1,20(sp)
   17194:	00000d93          	li	s11,0
   17198:	b40ff06f          	j	164d8 <_vfiprintf_r+0x364>
   1719c:	00000d13          	li	s10,0
   171a0:	fa5ff06f          	j	17144 <_vfiprintf_r+0xfd0>
   171a4:	01412783          	lw	a5,20(sp)
   171a8:	0007ad83          	lw	s11,0(a5)
   171ac:	00478793          	addi	a5,a5,4
   171b0:	00f12a23          	sw	a5,20(sp)
   171b4:	980dd063          	bgez	s11,16334 <_vfiprintf_r+0x1c0>
   171b8:	fff00d93          	li	s11,-1
   171bc:	000a8493          	mv	s1,s5
   171c0:	938ff06f          	j	162f8 <_vfiprintf_r+0x184>
   171c4:	fff00a93          	li	s5,-1
   171c8:	a10ff06f          	j	163d8 <_vfiprintf_r+0x264>
   171cc:	02510ba3          	sb	t0,55(sp)
   171d0:	d74ff06f          	j	16744 <_vfiprintf_r+0x5d0>
   171d4:	02510ba3          	sb	t0,55(sp)
   171d8:	f40ff06f          	j	16918 <_vfiprintf_r+0x7a4>
   171dc:	02510ba3          	sb	t0,55(sp)
   171e0:	db4ff06f          	j	16794 <_vfiprintf_r+0x620>
   171e4:	02510ba3          	sb	t0,55(sp)
   171e8:	e64ff06f          	j	1684c <_vfiprintf_r+0x6d8>
   171ec:	02510ba3          	sb	t0,55(sp)
   171f0:	e2cff06f          	j	1681c <_vfiprintf_r+0x6a8>
   171f4:	00197793          	andi	a5,s2,1
   171f8:	000d8593          	mv	a1,s11
   171fc:	00078c63          	beqz	a5,17214 <_vfiprintf_r+0x10a0>
   17200:	03000793          	li	a5,48
   17204:	06f107a3          	sb	a5,111(sp)
   17208:	02c12403          	lw	s0,44(sp)
   1720c:	06f10993          	addi	s3,sp,111
   17210:	ac8ff06f          	j	164d8 <_vfiprintf_r+0x364>
   17214:	00000413          	li	s0,0
   17218:	07010993          	addi	s3,sp,112
   1721c:	abcff06f          	j	164d8 <_vfiprintf_r+0x364>
   17220:	02510ba3          	sb	t0,55(sp)
   17224:	82dff06f          	j	16a50 <_vfiprintf_r+0x8dc>
   17228:	02510ba3          	sb	t0,55(sp)
   1722c:	ff0ff06f          	j	16a1c <_vfiprintf_r+0x8a8>

00017230 <vfiprintf>:
   17230:	00060693          	mv	a3,a2
   17234:	00058613          	mv	a2,a1
   17238:	00050593          	mv	a1,a0
   1723c:	8081a503          	lw	a0,-2040(gp) # 1c598 <_impure_ptr>
   17240:	f35fe06f          	j	16174 <_vfiprintf_r>

00017244 <_calloc_r>:
   17244:	02c585b3          	mul	a1,a1,a2
   17248:	ff010113          	addi	sp,sp,-16
   1724c:	00112623          	sw	ra,12(sp)
   17250:	00812423          	sw	s0,8(sp)
   17254:	868fd0ef          	jal	142bc <_malloc_r>
   17258:	08050c63          	beqz	a0,172f0 <_calloc_r+0xac>
   1725c:	ffc52603          	lw	a2,-4(a0)
   17260:	02400713          	li	a4,36
   17264:	00050413          	mv	s0,a0
   17268:	ffc67613          	andi	a2,a2,-4
   1726c:	ffc60613          	addi	a2,a2,-4
   17270:	04c76e63          	bltu	a4,a2,172cc <_calloc_r+0x88>
   17274:	01300693          	li	a3,19
   17278:	00050793          	mv	a5,a0
   1727c:	02c6f863          	bleu	a2,a3,172ac <_calloc_r+0x68>
   17280:	01b00793          	li	a5,27
   17284:	00052023          	sw	zero,0(a0)
   17288:	00052223          	sw	zero,4(a0)
   1728c:	04c7fe63          	bleu	a2,a5,172e8 <_calloc_r+0xa4>
   17290:	00052423          	sw	zero,8(a0)
   17294:	00052623          	sw	zero,12(a0)
   17298:	01050793          	addi	a5,a0,16
   1729c:	00e61863          	bne	a2,a4,172ac <_calloc_r+0x68>
   172a0:	00052823          	sw	zero,16(a0)
   172a4:	01850793          	addi	a5,a0,24
   172a8:	00052a23          	sw	zero,20(a0)
   172ac:	0007a023          	sw	zero,0(a5)
   172b0:	0007a223          	sw	zero,4(a5)
   172b4:	0007a423          	sw	zero,8(a5)
   172b8:	00040513          	mv	a0,s0
   172bc:	00c12083          	lw	ra,12(sp)
   172c0:	00812403          	lw	s0,8(sp)
   172c4:	01010113          	addi	sp,sp,16
   172c8:	00008067          	ret
   172cc:	00000593          	li	a1,0
   172d0:	959fd0ef          	jal	14c28 <memset>
   172d4:	00c12083          	lw	ra,12(sp)
   172d8:	00040513          	mv	a0,s0
   172dc:	00812403          	lw	s0,8(sp)
   172e0:	01010113          	addi	sp,sp,16
   172e4:	00008067          	ret
   172e8:	00850793          	addi	a5,a0,8
   172ec:	fc1ff06f          	j	172ac <_calloc_r+0x68>
   172f0:	00000513          	li	a0,0
   172f4:	fc9ff06f          	j	172bc <_calloc_r+0x78>

000172f8 <_fclose_r>:
   172f8:	0c058663          	beqz	a1,173c4 <_fclose_r+0xcc>
   172fc:	ff010113          	addi	sp,sp,-16
   17300:	00912223          	sw	s1,4(sp)
   17304:	00050493          	mv	s1,a0
   17308:	00812423          	sw	s0,8(sp)
   1730c:	00112623          	sw	ra,12(sp)
   17310:	01212023          	sw	s2,0(sp)
   17314:	00058413          	mv	s0,a1
   17318:	ff0fc0ef          	jal	13b08 <__sfp_lock_acquire>
   1731c:	00048663          	beqz	s1,17328 <_fclose_r+0x30>
   17320:	0384a783          	lw	a5,56(s1)
   17324:	0a078463          	beqz	a5,173cc <_fclose_r+0xd4>
   17328:	00c41783          	lh	a5,12(s0)
   1732c:	08078663          	beqz	a5,173b8 <_fclose_r+0xc0>
   17330:	00040593          	mv	a1,s0
   17334:	00048513          	mv	a0,s1
   17338:	9d0fc0ef          	jal	13508 <_fflush_r>
   1733c:	02c42783          	lw	a5,44(s0)
   17340:	00050913          	mv	s2,a0
   17344:	00078a63          	beqz	a5,17358 <_fclose_r+0x60>
   17348:	01c42583          	lw	a1,28(s0)
   1734c:	00048513          	mv	a0,s1
   17350:	000780e7          	jalr	a5
   17354:	08054e63          	bltz	a0,173f0 <_fclose_r+0xf8>
   17358:	00c45783          	lhu	a5,12(s0)
   1735c:	0807f793          	andi	a5,a5,128
   17360:	08079063          	bnez	a5,173e0 <_fclose_r+0xe8>
   17364:	03042583          	lw	a1,48(s0)
   17368:	00058c63          	beqz	a1,17380 <_fclose_r+0x88>
   1736c:	04040793          	addi	a5,s0,64
   17370:	00f58663          	beq	a1,a5,1737c <_fclose_r+0x84>
   17374:	00048513          	mv	a0,s1
   17378:	8c1fc0ef          	jal	13c38 <_free_r>
   1737c:	02042823          	sw	zero,48(s0)
   17380:	04442583          	lw	a1,68(s0)
   17384:	00058863          	beqz	a1,17394 <_fclose_r+0x9c>
   17388:	00048513          	mv	a0,s1
   1738c:	8adfc0ef          	jal	13c38 <_free_r>
   17390:	04042223          	sw	zero,68(s0)
   17394:	00041623          	sh	zero,12(s0)
   17398:	f74fc0ef          	jal	13b0c <__sfp_lock_release>
   1739c:	00090513          	mv	a0,s2
   173a0:	00c12083          	lw	ra,12(sp)
   173a4:	00812403          	lw	s0,8(sp)
   173a8:	00412483          	lw	s1,4(sp)
   173ac:	00012903          	lw	s2,0(sp)
   173b0:	01010113          	addi	sp,sp,16
   173b4:	00008067          	ret
   173b8:	f54fc0ef          	jal	13b0c <__sfp_lock_release>
   173bc:	00000513          	li	a0,0
   173c0:	fe1ff06f          	j	173a0 <_fclose_r+0xa8>
   173c4:	00000513          	li	a0,0
   173c8:	00008067          	ret
   173cc:	00048513          	mv	a0,s1
   173d0:	f28fc0ef          	jal	13af8 <__sinit>
   173d4:	00c41783          	lh	a5,12(s0)
   173d8:	f4079ce3          	bnez	a5,17330 <_fclose_r+0x38>
   173dc:	fddff06f          	j	173b8 <_fclose_r+0xc0>
   173e0:	01042583          	lw	a1,16(s0)
   173e4:	00048513          	mv	a0,s1
   173e8:	851fc0ef          	jal	13c38 <_free_r>
   173ec:	f79ff06f          	j	17364 <_fclose_r+0x6c>
   173f0:	fff00913          	li	s2,-1
   173f4:	f65ff06f          	j	17358 <_fclose_r+0x60>

000173f8 <fclose>:
   173f8:	00050593          	mv	a1,a0
   173fc:	8081a503          	lw	a0,-2040(gp) # 1c598 <_impure_ptr>
   17400:	ef9ff06f          	j	172f8 <_fclose_r>

00017404 <__fputwc>:
   17404:	fd010113          	addi	sp,sp,-48
   17408:	01312e23          	sw	s3,28(sp)
   1740c:	80c1a983          	lw	s3,-2036(gp) # 1c59c <__mb_cur_max>
   17410:	00100793          	li	a5,1
   17414:	02812423          	sw	s0,40(sp)
   17418:	01412c23          	sw	s4,24(sp)
   1741c:	01512a23          	sw	s5,20(sp)
   17420:	02112623          	sw	ra,44(sp)
   17424:	02912223          	sw	s1,36(sp)
   17428:	03212023          	sw	s2,32(sp)
   1742c:	01612823          	sw	s6,16(sp)
   17430:	00050a93          	mv	s5,a0
   17434:	00058a13          	mv	s4,a1
   17438:	00060413          	mv	s0,a2
   1743c:	10f98063          	beq	s3,a5,1753c <__fputwc+0x138>
   17440:	00c10493          	addi	s1,sp,12
   17444:	05c40693          	addi	a3,s0,92
   17448:	000a0613          	mv	a2,s4
   1744c:	00048593          	mv	a1,s1
   17450:	000a8513          	mv	a0,s5
   17454:	64d000ef          	jal	182a0 <_wcrtomb_r>
   17458:	fff00793          	li	a5,-1
   1745c:	00050993          	mv	s3,a0
   17460:	08f50863          	beq	a0,a5,174f0 <__fputwc+0xec>
   17464:	0e050a63          	beqz	a0,17558 <__fputwc+0x154>
   17468:	00c14583          	lbu	a1,12(sp)
   1746c:	00000913          	li	s2,0
   17470:	00a00b13          	li	s6,10
   17474:	0280006f          	j	1749c <__fputwc+0x98>
   17478:	00042783          	lw	a5,0(s0)
   1747c:	00b78023          	sb	a1,0(a5)
   17480:	00042783          	lw	a5,0(s0)
   17484:	00178793          	addi	a5,a5,1
   17488:	00f42023          	sw	a5,0(s0)
   1748c:	00190913          	addi	s2,s2,1
   17490:	00148493          	addi	s1,s1,1
   17494:	0d397263          	bleu	s3,s2,17558 <__fputwc+0x154>
   17498:	0004c583          	lbu	a1,0(s1)
   1749c:	00842783          	lw	a5,8(s0)
   174a0:	fff78793          	addi	a5,a5,-1
   174a4:	00f42423          	sw	a5,8(s0)
   174a8:	fc07d8e3          	bgez	a5,17478 <__fputwc+0x74>
   174ac:	01842703          	lw	a4,24(s0)
   174b0:	06e7ca63          	blt	a5,a4,17524 <__fputwc+0x120>
   174b4:	00042783          	lw	a5,0(s0)
   174b8:	00b78023          	sb	a1,0(a5)
   174bc:	00042783          	lw	a5,0(s0)
   174c0:	0007c703          	lbu	a4,0(a5)
   174c4:	00178793          	addi	a5,a5,1
   174c8:	fd6710e3          	bne	a4,s6,17488 <__fputwc+0x84>
   174cc:	00040613          	mv	a2,s0
   174d0:	000b0593          	mv	a1,s6
   174d4:	000a8513          	mv	a0,s5
   174d8:	43d000ef          	jal	18114 <__swbuf_r>
   174dc:	00150513          	addi	a0,a0,1
   174e0:	00153513          	seqz	a0,a0
   174e4:	fa0504e3          	beqz	a0,1748c <__fputwc+0x88>
   174e8:	fff00513          	li	a0,-1
   174ec:	0100006f          	j	174fc <__fputwc+0xf8>
   174f0:	00c45783          	lhu	a5,12(s0)
   174f4:	0407e793          	ori	a5,a5,64
   174f8:	00f41623          	sh	a5,12(s0)
   174fc:	02c12083          	lw	ra,44(sp)
   17500:	02812403          	lw	s0,40(sp)
   17504:	02412483          	lw	s1,36(sp)
   17508:	02012903          	lw	s2,32(sp)
   1750c:	01c12983          	lw	s3,28(sp)
   17510:	01812a03          	lw	s4,24(sp)
   17514:	01412a83          	lw	s5,20(sp)
   17518:	01012b03          	lw	s6,16(sp)
   1751c:	03010113          	addi	sp,sp,48
   17520:	00008067          	ret
   17524:	00040613          	mv	a2,s0
   17528:	000a8513          	mv	a0,s5
   1752c:	3e9000ef          	jal	18114 <__swbuf_r>
   17530:	00150513          	addi	a0,a0,1
   17534:	00153513          	seqz	a0,a0
   17538:	fadff06f          	j	174e4 <__fputwc+0xe0>
   1753c:	fff58793          	addi	a5,a1,-1
   17540:	0fe00713          	li	a4,254
   17544:	eef76ee3          	bltu	a4,a5,17440 <__fputwc+0x3c>
   17548:	0ff5f593          	andi	a1,a1,255
   1754c:	00b10623          	sb	a1,12(sp)
   17550:	00c10493          	addi	s1,sp,12
   17554:	f19ff06f          	j	1746c <__fputwc+0x68>
   17558:	000a0513          	mv	a0,s4
   1755c:	fa1ff06f          	j	174fc <__fputwc+0xf8>

00017560 <_fputwc_r>:
   17560:	00c61783          	lh	a5,12(a2)
   17564:	00002737          	lui	a4,0x2
   17568:	01279693          	slli	a3,a5,0x12
   1756c:	0006cc63          	bltz	a3,17584 <_fputwc_r+0x24>
   17570:	06462683          	lw	a3,100(a2)
   17574:	00e7e7b3          	or	a5,a5,a4
   17578:	00f61623          	sh	a5,12(a2)
   1757c:	00e6e733          	or	a4,a3,a4
   17580:	06e62223          	sw	a4,100(a2)
   17584:	e81ff06f          	j	17404 <__fputwc>

00017588 <fputwc>:
   17588:	fe010113          	addi	sp,sp,-32
   1758c:	00812c23          	sw	s0,24(sp)
   17590:	8081a783          	lw	a5,-2040(gp) # 1c598 <_impure_ptr>
   17594:	00912a23          	sw	s1,20(sp)
   17598:	00112e23          	sw	ra,28(sp)
   1759c:	00050493          	mv	s1,a0
   175a0:	00058613          	mv	a2,a1
   175a4:	00078663          	beqz	a5,175b0 <fputwc+0x28>
   175a8:	0387a703          	lw	a4,56(a5)
   175ac:	04070263          	beqz	a4,175f0 <fputwc+0x68>
   175b0:	00c61703          	lh	a4,12(a2)
   175b4:	000026b7          	lui	a3,0x2
   175b8:	01271593          	slli	a1,a4,0x12
   175bc:	0005cc63          	bltz	a1,175d4 <fputwc+0x4c>
   175c0:	06462583          	lw	a1,100(a2)
   175c4:	00d76733          	or	a4,a4,a3
   175c8:	00e61623          	sh	a4,12(a2)
   175cc:	00d5e6b3          	or	a3,a1,a3
   175d0:	06d62223          	sw	a3,100(a2)
   175d4:	00048593          	mv	a1,s1
   175d8:	01c12083          	lw	ra,28(sp)
   175dc:	01812403          	lw	s0,24(sp)
   175e0:	01412483          	lw	s1,20(sp)
   175e4:	00078513          	mv	a0,a5
   175e8:	02010113          	addi	sp,sp,32
   175ec:	e19ff06f          	j	17404 <__fputwc>
   175f0:	00078513          	mv	a0,a5
   175f4:	00b12623          	sw	a1,12(sp)
   175f8:	d00fc0ef          	jal	13af8 <__sinit>
   175fc:	8081a783          	lw	a5,-2040(gp) # 1c598 <_impure_ptr>
   17600:	00c12603          	lw	a2,12(sp)
   17604:	fadff06f          	j	175b0 <fputwc+0x28>

00017608 <__sfvwrite_r>:
   17608:	00862783          	lw	a5,8(a2)
   1760c:	1a078863          	beqz	a5,177bc <__sfvwrite_r+0x1b4>
   17610:	00c5d703          	lhu	a4,12(a1)
   17614:	fd010113          	addi	sp,sp,-48
   17618:	02812423          	sw	s0,40(sp)
   1761c:	00877793          	andi	a5,a4,8
   17620:	01312e23          	sw	s3,28(sp)
   17624:	01612823          	sw	s6,16(sp)
   17628:	02112623          	sw	ra,44(sp)
   1762c:	02912223          	sw	s1,36(sp)
   17630:	03212023          	sw	s2,32(sp)
   17634:	01412c23          	sw	s4,24(sp)
   17638:	01512a23          	sw	s5,20(sp)
   1763c:	01712623          	sw	s7,12(sp)
   17640:	01812423          	sw	s8,8(sp)
   17644:	01912223          	sw	s9,4(sp)
   17648:	01a12023          	sw	s10,0(sp)
   1764c:	00058413          	mv	s0,a1
   17650:	00050b13          	mv	s6,a0
   17654:	00060993          	mv	s3,a2
   17658:	0a078063          	beqz	a5,176f8 <__sfvwrite_r+0xf0>
   1765c:	0105a783          	lw	a5,16(a1)
   17660:	08078c63          	beqz	a5,176f8 <__sfvwrite_r+0xf0>
   17664:	00277793          	andi	a5,a4,2
   17668:	0009a483          	lw	s1,0(s3)
   1766c:	0a078663          	beqz	a5,17718 <__sfvwrite_r+0x110>
   17670:	00000a13          	li	s4,0
   17674:	00000913          	li	s2,0
   17678:	40000a93          	li	s5,1024
   1767c:	000a0613          	mv	a2,s4
   17680:	000b0513          	mv	a0,s6
   17684:	12090463          	beqz	s2,177ac <__sfvwrite_r+0x1a4>
   17688:	00090693          	mv	a3,s2
   1768c:	012af463          	bleu	s2,s5,17694 <__sfvwrite_r+0x8c>
   17690:	40000693          	li	a3,1024
   17694:	02442783          	lw	a5,36(s0)
   17698:	01c42583          	lw	a1,28(s0)
   1769c:	000780e7          	jalr	a5
   176a0:	14a05463          	blez	a0,177e8 <__sfvwrite_r+0x1e0>
   176a4:	0089a783          	lw	a5,8(s3)
   176a8:	00aa0a33          	add	s4,s4,a0
   176ac:	40a90933          	sub	s2,s2,a0
   176b0:	40a78533          	sub	a0,a5,a0
   176b4:	00a9a423          	sw	a0,8(s3)
   176b8:	fc0512e3          	bnez	a0,1767c <__sfvwrite_r+0x74>
   176bc:	00000513          	li	a0,0
   176c0:	02c12083          	lw	ra,44(sp)
   176c4:	02812403          	lw	s0,40(sp)
   176c8:	02412483          	lw	s1,36(sp)
   176cc:	02012903          	lw	s2,32(sp)
   176d0:	01c12983          	lw	s3,28(sp)
   176d4:	01812a03          	lw	s4,24(sp)
   176d8:	01412a83          	lw	s5,20(sp)
   176dc:	01012b03          	lw	s6,16(sp)
   176e0:	00c12b83          	lw	s7,12(sp)
   176e4:	00812c03          	lw	s8,8(sp)
   176e8:	00412c83          	lw	s9,4(sp)
   176ec:	00012d03          	lw	s10,0(sp)
   176f0:	03010113          	addi	sp,sp,48
   176f4:	00008067          	ret
   176f8:	00040593          	mv	a1,s0
   176fc:	000b0513          	mv	a0,s6
   17700:	ffcfa0ef          	jal	11efc <__swsetup_r>
   17704:	38051263          	bnez	a0,17a88 <__sfvwrite_r+0x480>
   17708:	00c45703          	lhu	a4,12(s0)
   1770c:	0009a483          	lw	s1,0(s3)
   17710:	00277793          	andi	a5,a4,2
   17714:	f4079ee3          	bnez	a5,17670 <__sfvwrite_r+0x68>
   17718:	00177793          	andi	a5,a4,1
   1771c:	0e079063          	bnez	a5,177fc <__sfvwrite_r+0x1f4>
   17720:	00000a93          	li	s5,0
   17724:	00000913          	li	s2,0
   17728:	06090a63          	beqz	s2,1779c <__sfvwrite_r+0x194>
   1772c:	20077793          	andi	a5,a4,512
   17730:	00842a03          	lw	s4,8(s0)
   17734:	1a078863          	beqz	a5,178e4 <__sfvwrite_r+0x2dc>
   17738:	000a0b93          	mv	s7,s4
   1773c:	21496663          	bltu	s2,s4,17948 <__sfvwrite_r+0x340>
   17740:	48077793          	andi	a5,a4,1152
   17744:	26079663          	bnez	a5,179b0 <__sfvwrite_r+0x3a8>
   17748:	00042503          	lw	a0,0(s0)
   1774c:	000a0c13          	mv	s8,s4
   17750:	00090a13          	mv	s4,s2
   17754:	000b8613          	mv	a2,s7
   17758:	000a8593          	mv	a1,s5
   1775c:	348000ef          	jal	17aa4 <memmove>
   17760:	00842783          	lw	a5,8(s0)
   17764:	00042603          	lw	a2,0(s0)
   17768:	00090713          	mv	a4,s2
   1776c:	418787b3          	sub	a5,a5,s8
   17770:	01760633          	add	a2,a2,s7
   17774:	00f42423          	sw	a5,8(s0)
   17778:	00c42023          	sw	a2,0(s0)
   1777c:	0089a783          	lw	a5,8(s3)
   17780:	00ea8ab3          	add	s5,s5,a4
   17784:	40e90933          	sub	s2,s2,a4
   17788:	414787b3          	sub	a5,a5,s4
   1778c:	00f9a423          	sw	a5,8(s3)
   17790:	f20786e3          	beqz	a5,176bc <__sfvwrite_r+0xb4>
   17794:	00c45703          	lhu	a4,12(s0)
   17798:	f8091ae3          	bnez	s2,1772c <__sfvwrite_r+0x124>
   1779c:	0004aa83          	lw	s5,0(s1)
   177a0:	0044a903          	lw	s2,4(s1)
   177a4:	00848493          	addi	s1,s1,8
   177a8:	f81ff06f          	j	17728 <__sfvwrite_r+0x120>
   177ac:	0004aa03          	lw	s4,0(s1)
   177b0:	0044a903          	lw	s2,4(s1)
   177b4:	00848493          	addi	s1,s1,8
   177b8:	ec5ff06f          	j	1767c <__sfvwrite_r+0x74>
   177bc:	00000513          	li	a0,0
   177c0:	00008067          	ret
   177c4:	000b0513          	mv	a0,s6
   177c8:	3c4000ef          	jal	17b8c <_realloc_r>
   177cc:	00050c13          	mv	s8,a0
   177d0:	24051a63          	bnez	a0,17a24 <__sfvwrite_r+0x41c>
   177d4:	01042583          	lw	a1,16(s0)
   177d8:	000b0513          	mv	a0,s6
   177dc:	c5cfc0ef          	jal	13c38 <_free_r>
   177e0:	00c00793          	li	a5,12
   177e4:	00fb2023          	sw	a5,0(s6)
   177e8:	00c45783          	lhu	a5,12(s0)
   177ec:	fff00513          	li	a0,-1
   177f0:	0407e793          	ori	a5,a5,64
   177f4:	00f41623          	sh	a5,12(s0)
   177f8:	ec9ff06f          	j	176c0 <__sfvwrite_r+0xb8>
   177fc:	00000a13          	li	s4,0
   17800:	00000c13          	li	s8,0
   17804:	00000d13          	li	s10,0
   17808:	00000913          	li	s2,0
   1780c:	06090c63          	beqz	s2,17884 <__sfvwrite_r+0x27c>
   17810:	160c0e63          	beqz	s8,1798c <__sfvwrite_r+0x384>
   17814:	000a0b93          	mv	s7,s4
   17818:	01497463          	bleu	s4,s2,17820 <__sfvwrite_r+0x218>
   1781c:	00090b93          	mv	s7,s2
   17820:	00042503          	lw	a0,0(s0)
   17824:	01042783          	lw	a5,16(s0)
   17828:	000b8a93          	mv	s5,s7
   1782c:	01442683          	lw	a3,20(s0)
   17830:	00a7f863          	bleu	a0,a5,17840 <__sfvwrite_r+0x238>
   17834:	00842c83          	lw	s9,8(s0)
   17838:	01968cb3          	add	s9,a3,s9
   1783c:	057cce63          	blt	s9,s7,17898 <__sfvwrite_r+0x290>
   17840:	0edbc063          	blt	s7,a3,17920 <__sfvwrite_r+0x318>
   17844:	02442783          	lw	a5,36(s0)
   17848:	01c42583          	lw	a1,28(s0)
   1784c:	000d0613          	mv	a2,s10
   17850:	000b0513          	mv	a0,s6
   17854:	000780e7          	jalr	a5
   17858:	00050a93          	mv	s5,a0
   1785c:	f8a056e3          	blez	a0,177e8 <__sfvwrite_r+0x1e0>
   17860:	415a0a33          	sub	s4,s4,s5
   17864:	060a0463          	beqz	s4,178cc <__sfvwrite_r+0x2c4>
   17868:	0089a783          	lw	a5,8(s3)
   1786c:	015d0d33          	add	s10,s10,s5
   17870:	41590933          	sub	s2,s2,s5
   17874:	41578ab3          	sub	s5,a5,s5
   17878:	0159a423          	sw	s5,8(s3)
   1787c:	e40a80e3          	beqz	s5,176bc <__sfvwrite_r+0xb4>
   17880:	f80918e3          	bnez	s2,17810 <__sfvwrite_r+0x208>
   17884:	0004ad03          	lw	s10,0(s1)
   17888:	0044a903          	lw	s2,4(s1)
   1788c:	00000c13          	li	s8,0
   17890:	00848493          	addi	s1,s1,8
   17894:	f79ff06f          	j	1780c <__sfvwrite_r+0x204>
   17898:	000d0593          	mv	a1,s10
   1789c:	000c8613          	mv	a2,s9
   178a0:	204000ef          	jal	17aa4 <memmove>
   178a4:	00042783          	lw	a5,0(s0)
   178a8:	00040593          	mv	a1,s0
   178ac:	000b0513          	mv	a0,s6
   178b0:	019787b3          	add	a5,a5,s9
   178b4:	00f42023          	sw	a5,0(s0)
   178b8:	c51fb0ef          	jal	13508 <_fflush_r>
   178bc:	f20516e3          	bnez	a0,177e8 <__sfvwrite_r+0x1e0>
   178c0:	000c8a93          	mv	s5,s9
   178c4:	415a0a33          	sub	s4,s4,s5
   178c8:	fa0a10e3          	bnez	s4,17868 <__sfvwrite_r+0x260>
   178cc:	00040593          	mv	a1,s0
   178d0:	000b0513          	mv	a0,s6
   178d4:	c35fb0ef          	jal	13508 <_fflush_r>
   178d8:	f00518e3          	bnez	a0,177e8 <__sfvwrite_r+0x1e0>
   178dc:	00000c13          	li	s8,0
   178e0:	f89ff06f          	j	17868 <__sfvwrite_r+0x260>
   178e4:	00042503          	lw	a0,0(s0)
   178e8:	01042783          	lw	a5,16(s0)
   178ec:	00a7f463          	bleu	a0,a5,178f4 <__sfvwrite_r+0x2ec>
   178f0:	152a6e63          	bltu	s4,s2,17a4c <__sfvwrite_r+0x444>
   178f4:	01442683          	lw	a3,20(s0)
   178f8:	06d96263          	bltu	s2,a3,1795c <__sfvwrite_r+0x354>
   178fc:	02442783          	lw	a5,36(s0)
   17900:	01c42583          	lw	a1,28(s0)
   17904:	000a8613          	mv	a2,s5
   17908:	000b0513          	mv	a0,s6
   1790c:	000780e7          	jalr	a5
   17910:	00050a13          	mv	s4,a0
   17914:	eca05ae3          	blez	a0,177e8 <__sfvwrite_r+0x1e0>
   17918:	000a0713          	mv	a4,s4
   1791c:	e61ff06f          	j	1777c <__sfvwrite_r+0x174>
   17920:	000b8613          	mv	a2,s7
   17924:	000d0593          	mv	a1,s10
   17928:	17c000ef          	jal	17aa4 <memmove>
   1792c:	00842703          	lw	a4,8(s0)
   17930:	00042783          	lw	a5,0(s0)
   17934:	41770733          	sub	a4,a4,s7
   17938:	01778bb3          	add	s7,a5,s7
   1793c:	00e42423          	sw	a4,8(s0)
   17940:	01742023          	sw	s7,0(s0)
   17944:	f1dff06f          	j	17860 <__sfvwrite_r+0x258>
   17948:	00042503          	lw	a0,0(s0)
   1794c:	00090c13          	mv	s8,s2
   17950:	00090a13          	mv	s4,s2
   17954:	00090b93          	mv	s7,s2
   17958:	dfdff06f          	j	17754 <__sfvwrite_r+0x14c>
   1795c:	00090613          	mv	a2,s2
   17960:	000a8593          	mv	a1,s5
   17964:	140000ef          	jal	17aa4 <memmove>
   17968:	00842703          	lw	a4,8(s0)
   1796c:	00042783          	lw	a5,0(s0)
   17970:	00090a13          	mv	s4,s2
   17974:	41270733          	sub	a4,a4,s2
   17978:	012787b3          	add	a5,a5,s2
   1797c:	00e42423          	sw	a4,8(s0)
   17980:	00f42023          	sw	a5,0(s0)
   17984:	00090713          	mv	a4,s2
   17988:	df5ff06f          	j	1777c <__sfvwrite_r+0x174>
   1798c:	00090613          	mv	a2,s2
   17990:	00a00593          	li	a1,10
   17994:	000d0513          	mv	a0,s10
   17998:	89cfd0ef          	jal	14a34 <memchr>
   1799c:	0e050063          	beqz	a0,17a7c <__sfvwrite_r+0x474>
   179a0:	00150513          	addi	a0,a0,1
   179a4:	41a50a33          	sub	s4,a0,s10
   179a8:	00100c13          	li	s8,1
   179ac:	e69ff06f          	j	17814 <__sfvwrite_r+0x20c>
   179b0:	01442a03          	lw	s4,20(s0)
   179b4:	01042583          	lw	a1,16(s0)
   179b8:	00042b83          	lw	s7,0(s0)
   179bc:	001a1793          	slli	a5,s4,0x1
   179c0:	01478a33          	add	s4,a5,s4
   179c4:	01fa5793          	srli	a5,s4,0x1f
   179c8:	40bb8bb3          	sub	s7,s7,a1
   179cc:	01478a33          	add	s4,a5,s4
   179d0:	001b8793          	addi	a5,s7,1
   179d4:	401a5a13          	srai	s4,s4,0x1
   179d8:	012787b3          	add	a5,a5,s2
   179dc:	000a0613          	mv	a2,s4
   179e0:	00fa7663          	bleu	a5,s4,179ec <__sfvwrite_r+0x3e4>
   179e4:	00078a13          	mv	s4,a5
   179e8:	00078613          	mv	a2,a5
   179ec:	40077713          	andi	a4,a4,1024
   179f0:	dc070ae3          	beqz	a4,177c4 <__sfvwrite_r+0x1bc>
   179f4:	00060593          	mv	a1,a2
   179f8:	000b0513          	mv	a0,s6
   179fc:	8c1fc0ef          	jal	142bc <_malloc_r>
   17a00:	00050c13          	mv	s8,a0
   17a04:	dc050ee3          	beqz	a0,177e0 <__sfvwrite_r+0x1d8>
   17a08:	01042583          	lw	a1,16(s0)
   17a0c:	000b8613          	mv	a2,s7
   17a10:	8f8fd0ef          	jal	14b08 <memcpy>
   17a14:	00c45783          	lhu	a5,12(s0)
   17a18:	b7f7f793          	andi	a5,a5,-1153
   17a1c:	0807e793          	ori	a5,a5,128
   17a20:	00f41623          	sh	a5,12(s0)
   17a24:	017c0533          	add	a0,s8,s7
   17a28:	417a0bb3          	sub	s7,s4,s7
   17a2c:	01842823          	sw	s8,16(s0)
   17a30:	01442a23          	sw	s4,20(s0)
   17a34:	01742423          	sw	s7,8(s0)
   17a38:	00a42023          	sw	a0,0(s0)
   17a3c:	00090c13          	mv	s8,s2
   17a40:	00090a13          	mv	s4,s2
   17a44:	00090b93          	mv	s7,s2
   17a48:	d0dff06f          	j	17754 <__sfvwrite_r+0x14c>
   17a4c:	000a8593          	mv	a1,s5
   17a50:	000a0613          	mv	a2,s4
   17a54:	050000ef          	jal	17aa4 <memmove>
   17a58:	00042783          	lw	a5,0(s0)
   17a5c:	00040593          	mv	a1,s0
   17a60:	000b0513          	mv	a0,s6
   17a64:	014787b3          	add	a5,a5,s4
   17a68:	00f42023          	sw	a5,0(s0)
   17a6c:	a9dfb0ef          	jal	13508 <_fflush_r>
   17a70:	d6051ce3          	bnez	a0,177e8 <__sfvwrite_r+0x1e0>
   17a74:	000a0713          	mv	a4,s4
   17a78:	d05ff06f          	j	1777c <__sfvwrite_r+0x174>
   17a7c:	00190a13          	addi	s4,s2,1
   17a80:	00100c13          	li	s8,1
   17a84:	d91ff06f          	j	17814 <__sfvwrite_r+0x20c>
   17a88:	00c45783          	lhu	a5,12(s0)
   17a8c:	fff00513          	li	a0,-1
   17a90:	0407e793          	ori	a5,a5,64
   17a94:	00f41623          	sh	a5,12(s0)
   17a98:	00900793          	li	a5,9
   17a9c:	00fb2023          	sw	a5,0(s6)
   17aa0:	c21ff06f          	j	176c0 <__sfvwrite_r+0xb8>

00017aa4 <memmove>:
   17aa4:	00060693          	mv	a3,a2
   17aa8:	02a5f863          	bleu	a0,a1,17ad8 <memmove+0x34>
   17aac:	00c58733          	add	a4,a1,a2
   17ab0:	02e57463          	bleu	a4,a0,17ad8 <memmove+0x34>
   17ab4:	00c507b3          	add	a5,a0,a2
   17ab8:	40c785b3          	sub	a1,a5,a2
   17abc:	04060263          	beqz	a2,17b00 <memmove+0x5c>
   17ac0:	fff70713          	addi	a4,a4,-1 # 1fff <_ftext-0xe001>
   17ac4:	00074683          	lbu	a3,0(a4)
   17ac8:	fff78793          	addi	a5,a5,-1
   17acc:	00d78023          	sb	a3,0(a5)
   17ad0:	fef598e3          	bne	a1,a5,17ac0 <memmove+0x1c>
   17ad4:	00008067          	ret
   17ad8:	00f00893          	li	a7,15
   17adc:	00050793          	mv	a5,a0
   17ae0:	02c8e263          	bltu	a7,a2,17b04 <memmove+0x60>
   17ae4:	00068e63          	beqz	a3,17b00 <memmove+0x5c>
   17ae8:	00d786b3          	add	a3,a5,a3
   17aec:	00158593          	addi	a1,a1,1
   17af0:	fff5c703          	lbu	a4,-1(a1)
   17af4:	00178793          	addi	a5,a5,1
   17af8:	fee78fa3          	sb	a4,-1(a5)
   17afc:	fef698e3          	bne	a3,a5,17aec <memmove+0x48>
   17b00:	00008067          	ret
   17b04:	00a5e733          	or	a4,a1,a0
   17b08:	00377713          	andi	a4,a4,3
   17b0c:	fc071ce3          	bnez	a4,17ae4 <memmove+0x40>
   17b10:	00060693          	mv	a3,a2
   17b14:	00058713          	mv	a4,a1
   17b18:	00072803          	lw	a6,0(a4)
   17b1c:	01078793          	addi	a5,a5,16
   17b20:	01070713          	addi	a4,a4,16
   17b24:	ff07a823          	sw	a6,-16(a5)
   17b28:	ff472803          	lw	a6,-12(a4)
   17b2c:	ff068693          	addi	a3,a3,-16 # 1ff0 <_ftext-0xe010>
   17b30:	ff07aa23          	sw	a6,-12(a5)
   17b34:	ff872803          	lw	a6,-8(a4)
   17b38:	ff07ac23          	sw	a6,-8(a5)
   17b3c:	ffc72803          	lw	a6,-4(a4)
   17b40:	ff07ae23          	sw	a6,-4(a5)
   17b44:	fcd8eae3          	bltu	a7,a3,17b18 <memmove+0x74>
   17b48:	ff060713          	addi	a4,a2,-16
   17b4c:	ff077713          	andi	a4,a4,-16
   17b50:	01070713          	addi	a4,a4,16
   17b54:	00f67613          	andi	a2,a2,15
   17b58:	00300813          	li	a6,3
   17b5c:	00e507b3          	add	a5,a0,a4
   17b60:	00e585b3          	add	a1,a1,a4
   17b64:	00060693          	mv	a3,a2
   17b68:	f6c87ee3          	bleu	a2,a6,17ae4 <memmove+0x40>
   17b6c:	00458593          	addi	a1,a1,4
   17b70:	ffc5a703          	lw	a4,-4(a1)
   17b74:	00478793          	addi	a5,a5,4
   17b78:	ffc60613          	addi	a2,a2,-4
   17b7c:	fee7ae23          	sw	a4,-4(a5)
   17b80:	00060693          	mv	a3,a2
   17b84:	fec864e3          	bltu	a6,a2,17b6c <memmove+0xc8>
   17b88:	f5dff06f          	j	17ae4 <memmove+0x40>

00017b8c <_realloc_r>:
   17b8c:	fd010113          	addi	sp,sp,-48
   17b90:	01312e23          	sw	s3,28(sp)
   17b94:	02112623          	sw	ra,44(sp)
   17b98:	02812423          	sw	s0,40(sp)
   17b9c:	02912223          	sw	s1,36(sp)
   17ba0:	03212023          	sw	s2,32(sp)
   17ba4:	01412c23          	sw	s4,24(sp)
   17ba8:	01512a23          	sw	s5,20(sp)
   17bac:	01612823          	sw	s6,16(sp)
   17bb0:	01712623          	sw	s7,12(sp)
   17bb4:	01812423          	sw	s8,8(sp)
   17bb8:	01912223          	sw	s9,4(sp)
   17bbc:	00060993          	mv	s3,a2
   17bc0:	1c058863          	beqz	a1,17d90 <_realloc_r+0x204>
   17bc4:	00058a13          	mv	s4,a1
   17bc8:	00050493          	mv	s1,a0
   17bcc:	938fd0ef          	jal	14d04 <__malloc_lock>
   17bd0:	ffca2783          	lw	a5,-4(s4)
   17bd4:	00b98713          	addi	a4,s3,11
   17bd8:	01600693          	li	a3,22
   17bdc:	ff8a0b13          	addi	s6,s4,-8
   17be0:	ffc7fa93          	andi	s5,a5,-4
   17be4:	0ce6f263          	bleu	a4,a3,17ca8 <_realloc_r+0x11c>
   17be8:	ff877913          	andi	s2,a4,-8
   17bec:	00090713          	mv	a4,s2
   17bf0:	14094c63          	bltz	s2,17d48 <_realloc_r+0x1bc>
   17bf4:	15396a63          	bltu	s2,s3,17d48 <_realloc_r+0x1bc>
   17bf8:	0aeade63          	ble	a4,s5,17cb4 <_realloc_r+0x128>
   17bfc:	0001cc37          	lui	s8,0x1c
   17c00:	188c0c13          	addi	s8,s8,392 # 1c188 <__malloc_av_>
   17c04:	008c2683          	lw	a3,8(s8)
   17c08:	015b0533          	add	a0,s6,s5
   17c0c:	30d50263          	beq	a0,a3,17f10 <_realloc_r+0x384>
   17c10:	00452683          	lw	a3,4(a0)
   17c14:	ffe6f613          	andi	a2,a3,-2
   17c18:	00c50633          	add	a2,a0,a2
   17c1c:	00462603          	lw	a2,4(a2)
   17c20:	00167613          	andi	a2,a2,1
   17c24:	0e060e63          	beqz	a2,17d20 <_realloc_r+0x194>
   17c28:	0017f793          	andi	a5,a5,1
   17c2c:	26078463          	beqz	a5,17e94 <_realloc_r+0x308>
   17c30:	00098593          	mv	a1,s3
   17c34:	00048513          	mv	a0,s1
   17c38:	e84fc0ef          	jal	142bc <_malloc_r>
   17c3c:	00050413          	mv	s0,a0
   17c40:	4a050463          	beqz	a0,180e8 <_realloc_r+0x55c>
   17c44:	ffca2783          	lw	a5,-4(s4)
   17c48:	ff850693          	addi	a3,a0,-8
   17c4c:	ffe7f713          	andi	a4,a5,-2
   17c50:	00eb0733          	add	a4,s6,a4
   17c54:	42e68463          	beq	a3,a4,1807c <_realloc_r+0x4f0>
   17c58:	ffca8613          	addi	a2,s5,-4
   17c5c:	02400793          	li	a5,36
   17c60:	3cc7ea63          	bltu	a5,a2,18034 <_realloc_r+0x4a8>
   17c64:	01300713          	li	a4,19
   17c68:	36c76a63          	bltu	a4,a2,17fdc <_realloc_r+0x450>
   17c6c:	00050793          	mv	a5,a0
   17c70:	000a0713          	mv	a4,s4
   17c74:	00072683          	lw	a3,0(a4)
   17c78:	00d7a023          	sw	a3,0(a5)
   17c7c:	00472683          	lw	a3,4(a4)
   17c80:	00d7a223          	sw	a3,4(a5)
   17c84:	00872703          	lw	a4,8(a4)
   17c88:	00e7a423          	sw	a4,8(a5)
   17c8c:	000a0593          	mv	a1,s4
   17c90:	00048513          	mv	a0,s1
   17c94:	fa5fb0ef          	jal	13c38 <_free_r>
   17c98:	00048513          	mv	a0,s1
   17c9c:	86cfd0ef          	jal	14d08 <__malloc_unlock>
   17ca0:	00040513          	mv	a0,s0
   17ca4:	0480006f          	j	17cec <_realloc_r+0x160>
   17ca8:	01000713          	li	a4,16
   17cac:	00070913          	mv	s2,a4
   17cb0:	f45ff06f          	j	17bf4 <_realloc_r+0x68>
   17cb4:	000a0993          	mv	s3,s4
   17cb8:	412a86b3          	sub	a3,s5,s2
   17cbc:	00f00713          	li	a4,15
   17cc0:	08d76c63          	bltu	a4,a3,17d58 <_realloc_r+0x1cc>
   17cc4:	0017f793          	andi	a5,a5,1
   17cc8:	0157e7b3          	or	a5,a5,s5
   17ccc:	00fb2223          	sw	a5,4(s6)
   17cd0:	015b0633          	add	a2,s6,s5
   17cd4:	00462783          	lw	a5,4(a2)
   17cd8:	0017e793          	ori	a5,a5,1
   17cdc:	00f62223          	sw	a5,4(a2)
   17ce0:	00048513          	mv	a0,s1
   17ce4:	824fd0ef          	jal	14d08 <__malloc_unlock>
   17ce8:	00098513          	mv	a0,s3
   17cec:	02c12083          	lw	ra,44(sp)
   17cf0:	02812403          	lw	s0,40(sp)
   17cf4:	02412483          	lw	s1,36(sp)
   17cf8:	02012903          	lw	s2,32(sp)
   17cfc:	01c12983          	lw	s3,28(sp)
   17d00:	01812a03          	lw	s4,24(sp)
   17d04:	01412a83          	lw	s5,20(sp)
   17d08:	01012b03          	lw	s6,16(sp)
   17d0c:	00c12b83          	lw	s7,12(sp)
   17d10:	00812c03          	lw	s8,8(sp)
   17d14:	00412c83          	lw	s9,4(sp)
   17d18:	03010113          	addi	sp,sp,48
   17d1c:	00008067          	ret
   17d20:	ffc6f693          	andi	a3,a3,-4
   17d24:	015686b3          	add	a3,a3,s5
   17d28:	0ae6c063          	blt	a3,a4,17dc8 <_realloc_r+0x23c>
   17d2c:	00c52703          	lw	a4,12(a0)
   17d30:	00852603          	lw	a2,8(a0)
   17d34:	000a0993          	mv	s3,s4
   17d38:	00068a93          	mv	s5,a3
   17d3c:	00e62623          	sw	a4,12(a2)
   17d40:	00c72423          	sw	a2,8(a4)
   17d44:	f75ff06f          	j	17cb8 <_realloc_r+0x12c>
   17d48:	00c00793          	li	a5,12
   17d4c:	00f4a023          	sw	a5,0(s1)
   17d50:	00000513          	li	a0,0
   17d54:	f99ff06f          	j	17cec <_realloc_r+0x160>
   17d58:	0017f713          	andi	a4,a5,1
   17d5c:	012b05b3          	add	a1,s6,s2
   17d60:	0016e793          	ori	a5,a3,1
   17d64:	01276733          	or	a4,a4,s2
   17d68:	00eb2223          	sw	a4,4(s6)
   17d6c:	00d586b3          	add	a3,a1,a3
   17d70:	00f5a223          	sw	a5,4(a1)
   17d74:	0046a783          	lw	a5,4(a3)
   17d78:	00858593          	addi	a1,a1,8
   17d7c:	00048513          	mv	a0,s1
   17d80:	0017e793          	ori	a5,a5,1
   17d84:	00f6a223          	sw	a5,4(a3)
   17d88:	eb1fb0ef          	jal	13c38 <_free_r>
   17d8c:	f55ff06f          	j	17ce0 <_realloc_r+0x154>
   17d90:	02c12083          	lw	ra,44(sp)
   17d94:	02812403          	lw	s0,40(sp)
   17d98:	02412483          	lw	s1,36(sp)
   17d9c:	02012903          	lw	s2,32(sp)
   17da0:	01c12983          	lw	s3,28(sp)
   17da4:	01812a03          	lw	s4,24(sp)
   17da8:	01412a83          	lw	s5,20(sp)
   17dac:	01012b03          	lw	s6,16(sp)
   17db0:	00c12b83          	lw	s7,12(sp)
   17db4:	00812c03          	lw	s8,8(sp)
   17db8:	00412c83          	lw	s9,4(sp)
   17dbc:	00060593          	mv	a1,a2
   17dc0:	03010113          	addi	sp,sp,48
   17dc4:	cf8fc06f          	j	142bc <_malloc_r>
   17dc8:	0017f793          	andi	a5,a5,1
   17dcc:	e60792e3          	bnez	a5,17c30 <_realloc_r+0xa4>
   17dd0:	ff8a2b83          	lw	s7,-8(s4)
   17dd4:	417b0bb3          	sub	s7,s6,s7
   17dd8:	004ba783          	lw	a5,4(s7)
   17ddc:	ffc7f793          	andi	a5,a5,-4
   17de0:	00f68433          	add	s0,a3,a5
   17de4:	0ce44063          	blt	s0,a4,17ea4 <_realloc_r+0x318>
   17de8:	00c52783          	lw	a5,12(a0)
   17dec:	00852703          	lw	a4,8(a0)
   17df0:	ffca8613          	addi	a2,s5,-4
   17df4:	008b8993          	addi	s3,s7,8
   17df8:	00f72623          	sw	a5,12(a4)
   17dfc:	00e7a423          	sw	a4,8(a5)
   17e00:	008ba703          	lw	a4,8(s7)
   17e04:	00cba783          	lw	a5,12(s7)
   17e08:	00f72623          	sw	a5,12(a4)
   17e0c:	00e7a423          	sw	a4,8(a5)
   17e10:	02400793          	li	a5,36
   17e14:	22c7e663          	bltu	a5,a2,18040 <_realloc_r+0x4b4>
   17e18:	01300713          	li	a4,19
   17e1c:	00098793          	mv	a5,s3
   17e20:	04c77663          	bleu	a2,a4,17e6c <_realloc_r+0x2e0>
   17e24:	000a2783          	lw	a5,0(s4)
   17e28:	00fba423          	sw	a5,8(s7)
   17e2c:	004a2783          	lw	a5,4(s4)
   17e30:	00fba623          	sw	a5,12(s7)
   17e34:	01b00793          	li	a5,27
   17e38:	24c7fc63          	bleu	a2,a5,18090 <_realloc_r+0x504>
   17e3c:	008a2783          	lw	a5,8(s4)
   17e40:	00fba823          	sw	a5,16(s7)
   17e44:	00ca2783          	lw	a5,12(s4)
   17e48:	00fbaa23          	sw	a5,20(s7)
   17e4c:	02400793          	li	a5,36
   17e50:	0af61a63          	bne	a2,a5,17f04 <_realloc_r+0x378>
   17e54:	010a2703          	lw	a4,16(s4)
   17e58:	020b8793          	addi	a5,s7,32
   17e5c:	018a0a13          	addi	s4,s4,24
   17e60:	00ebac23          	sw	a4,24(s7)
   17e64:	ffca2703          	lw	a4,-4(s4)
   17e68:	00ebae23          	sw	a4,28(s7)
   17e6c:	000a2703          	lw	a4,0(s4)
   17e70:	00040a93          	mv	s5,s0
   17e74:	000b8b13          	mv	s6,s7
   17e78:	00e7a023          	sw	a4,0(a5)
   17e7c:	004a2703          	lw	a4,4(s4)
   17e80:	00e7a223          	sw	a4,4(a5)
   17e84:	008a2703          	lw	a4,8(s4)
   17e88:	00e7a423          	sw	a4,8(a5)
   17e8c:	004ba783          	lw	a5,4(s7)
   17e90:	e29ff06f          	j	17cb8 <_realloc_r+0x12c>
   17e94:	ff8a2b83          	lw	s7,-8(s4)
   17e98:	417b0bb3          	sub	s7,s6,s7
   17e9c:	004ba783          	lw	a5,4(s7)
   17ea0:	ffc7f793          	andi	a5,a5,-4
   17ea4:	00fa8433          	add	s0,s5,a5
   17ea8:	d8e444e3          	blt	s0,a4,17c30 <_realloc_r+0xa4>
   17eac:	00cba783          	lw	a5,12(s7)
   17eb0:	008ba703          	lw	a4,8(s7)
   17eb4:	ffca8613          	addi	a2,s5,-4
   17eb8:	02400693          	li	a3,36
   17ebc:	00f72623          	sw	a5,12(a4)
   17ec0:	008b8993          	addi	s3,s7,8
   17ec4:	00e7a423          	sw	a4,8(a5)
   17ec8:	16c6ec63          	bltu	a3,a2,18040 <_realloc_r+0x4b4>
   17ecc:	01300713          	li	a4,19
   17ed0:	00098793          	mv	a5,s3
   17ed4:	f8c77ce3          	bleu	a2,a4,17e6c <_realloc_r+0x2e0>
   17ed8:	000a2783          	lw	a5,0(s4)
   17edc:	00fba423          	sw	a5,8(s7)
   17ee0:	004a2783          	lw	a5,4(s4)
   17ee4:	00fba623          	sw	a5,12(s7)
   17ee8:	01b00793          	li	a5,27
   17eec:	1ac7f263          	bleu	a2,a5,18090 <_realloc_r+0x504>
   17ef0:	008a2783          	lw	a5,8(s4)
   17ef4:	00fba823          	sw	a5,16(s7)
   17ef8:	00ca2783          	lw	a5,12(s4)
   17efc:	00fbaa23          	sw	a5,20(s7)
   17f00:	f4d60ae3          	beq	a2,a3,17e54 <_realloc_r+0x2c8>
   17f04:	018b8793          	addi	a5,s7,24
   17f08:	010a0a13          	addi	s4,s4,16
   17f0c:	f61ff06f          	j	17e6c <_realloc_r+0x2e0>
   17f10:	00452683          	lw	a3,4(a0)
   17f14:	01090613          	addi	a2,s2,16
   17f18:	ffc6f693          	andi	a3,a3,-4
   17f1c:	015686b3          	add	a3,a3,s5
   17f20:	0ec6d063          	ble	a2,a3,18000 <_realloc_r+0x474>
   17f24:	0017f793          	andi	a5,a5,1
   17f28:	d00794e3          	bnez	a5,17c30 <_realloc_r+0xa4>
   17f2c:	ff8a2b83          	lw	s7,-8(s4)
   17f30:	417b0bb3          	sub	s7,s6,s7
   17f34:	004ba783          	lw	a5,4(s7)
   17f38:	ffc7f793          	andi	a5,a5,-4
   17f3c:	00d78cb3          	add	s9,a5,a3
   17f40:	f6ccc2e3          	blt	s9,a2,17ea4 <_realloc_r+0x318>
   17f44:	00cba783          	lw	a5,12(s7)
   17f48:	008ba703          	lw	a4,8(s7)
   17f4c:	ffca8613          	addi	a2,s5,-4
   17f50:	02400693          	li	a3,36
   17f54:	00f72623          	sw	a5,12(a4)
   17f58:	008b8413          	addi	s0,s7,8
   17f5c:	00e7a423          	sw	a4,8(a5)
   17f60:	14c6ec63          	bltu	a3,a2,180b8 <_realloc_r+0x52c>
   17f64:	01300713          	li	a4,19
   17f68:	00040793          	mv	a5,s0
   17f6c:	02c77263          	bleu	a2,a4,17f90 <_realloc_r+0x404>
   17f70:	000a2783          	lw	a5,0(s4)
   17f74:	00fba423          	sw	a5,8(s7)
   17f78:	004a2783          	lw	a5,4(s4)
   17f7c:	00fba623          	sw	a5,12(s7)
   17f80:	01b00793          	li	a5,27
   17f84:	14c7e263          	bltu	a5,a2,180c8 <_realloc_r+0x53c>
   17f88:	010b8793          	addi	a5,s7,16
   17f8c:	008a0a13          	addi	s4,s4,8
   17f90:	000a2703          	lw	a4,0(s4)
   17f94:	00e7a023          	sw	a4,0(a5)
   17f98:	004a2703          	lw	a4,4(s4)
   17f9c:	00e7a223          	sw	a4,4(a5)
   17fa0:	008a2703          	lw	a4,8(s4)
   17fa4:	00e7a423          	sw	a4,8(a5)
   17fa8:	412c86b3          	sub	a3,s9,s2
   17fac:	012b87b3          	add	a5,s7,s2
   17fb0:	0016e693          	ori	a3,a3,1
   17fb4:	00fc2423          	sw	a5,8(s8)
   17fb8:	00d7a223          	sw	a3,4(a5)
   17fbc:	004ba703          	lw	a4,4(s7)
   17fc0:	00048513          	mv	a0,s1
   17fc4:	00177713          	andi	a4,a4,1
   17fc8:	01276733          	or	a4,a4,s2
   17fcc:	00eba223          	sw	a4,4(s7)
   17fd0:	d39fc0ef          	jal	14d08 <__malloc_unlock>
   17fd4:	00040513          	mv	a0,s0
   17fd8:	d15ff06f          	j	17cec <_realloc_r+0x160>
   17fdc:	000a2703          	lw	a4,0(s4)
   17fe0:	00e52023          	sw	a4,0(a0)
   17fe4:	004a2703          	lw	a4,4(s4)
   17fe8:	00e52223          	sw	a4,4(a0)
   17fec:	01b00713          	li	a4,27
   17ff0:	06c76663          	bltu	a4,a2,1805c <_realloc_r+0x4d0>
   17ff4:	00850793          	addi	a5,a0,8
   17ff8:	008a0713          	addi	a4,s4,8
   17ffc:	c79ff06f          	j	17c74 <_realloc_r+0xe8>
   18000:	412686b3          	sub	a3,a3,s2
   18004:	012b0b33          	add	s6,s6,s2
   18008:	0016e693          	ori	a3,a3,1
   1800c:	016c2423          	sw	s6,8(s8)
   18010:	00db2223          	sw	a3,4(s6)
   18014:	ffca2703          	lw	a4,-4(s4)
   18018:	00048513          	mv	a0,s1
   1801c:	00177713          	andi	a4,a4,1
   18020:	01276733          	or	a4,a4,s2
   18024:	feea2e23          	sw	a4,-4(s4)
   18028:	ce1fc0ef          	jal	14d08 <__malloc_unlock>
   1802c:	000a0513          	mv	a0,s4
   18030:	cbdff06f          	j	17cec <_realloc_r+0x160>
   18034:	000a0593          	mv	a1,s4
   18038:	a6dff0ef          	jal	17aa4 <memmove>
   1803c:	c51ff06f          	j	17c8c <_realloc_r+0x100>
   18040:	000a0593          	mv	a1,s4
   18044:	00098513          	mv	a0,s3
   18048:	a5dff0ef          	jal	17aa4 <memmove>
   1804c:	00040a93          	mv	s5,s0
   18050:	004ba783          	lw	a5,4(s7)
   18054:	000b8b13          	mv	s6,s7
   18058:	c61ff06f          	j	17cb8 <_realloc_r+0x12c>
   1805c:	008a2703          	lw	a4,8(s4)
   18060:	00e52423          	sw	a4,8(a0)
   18064:	00ca2703          	lw	a4,12(s4)
   18068:	00e52623          	sw	a4,12(a0)
   1806c:	02f60863          	beq	a2,a5,1809c <_realloc_r+0x510>
   18070:	01050793          	addi	a5,a0,16
   18074:	010a0713          	addi	a4,s4,16
   18078:	bfdff06f          	j	17c74 <_realloc_r+0xe8>
   1807c:	ffc52703          	lw	a4,-4(a0)
   18080:	000a0993          	mv	s3,s4
   18084:	ffc77713          	andi	a4,a4,-4
   18088:	00ea8ab3          	add	s5,s5,a4
   1808c:	c2dff06f          	j	17cb8 <_realloc_r+0x12c>
   18090:	010b8793          	addi	a5,s7,16
   18094:	008a0a13          	addi	s4,s4,8
   18098:	dd5ff06f          	j	17e6c <_realloc_r+0x2e0>
   1809c:	010a2683          	lw	a3,16(s4)
   180a0:	01850793          	addi	a5,a0,24
   180a4:	018a0713          	addi	a4,s4,24
   180a8:	00d52823          	sw	a3,16(a0)
   180ac:	014a2683          	lw	a3,20(s4)
   180b0:	00d52a23          	sw	a3,20(a0)
   180b4:	bc1ff06f          	j	17c74 <_realloc_r+0xe8>
   180b8:	000a0593          	mv	a1,s4
   180bc:	00040513          	mv	a0,s0
   180c0:	9e5ff0ef          	jal	17aa4 <memmove>
   180c4:	ee5ff06f          	j	17fa8 <_realloc_r+0x41c>
   180c8:	008a2783          	lw	a5,8(s4)
   180cc:	00fba823          	sw	a5,16(s7)
   180d0:	00ca2783          	lw	a5,12(s4)
   180d4:	00fbaa23          	sw	a5,20(s7)
   180d8:	02d60063          	beq	a2,a3,180f8 <_realloc_r+0x56c>
   180dc:	018b8793          	addi	a5,s7,24
   180e0:	010a0a13          	addi	s4,s4,16
   180e4:	eadff06f          	j	17f90 <_realloc_r+0x404>
   180e8:	00048513          	mv	a0,s1
   180ec:	c1dfc0ef          	jal	14d08 <__malloc_unlock>
   180f0:	00000513          	li	a0,0
   180f4:	bf9ff06f          	j	17cec <_realloc_r+0x160>
   180f8:	010a2703          	lw	a4,16(s4)
   180fc:	020b8793          	addi	a5,s7,32
   18100:	018a0a13          	addi	s4,s4,24
   18104:	00ebac23          	sw	a4,24(s7)
   18108:	ffca2703          	lw	a4,-4(s4)
   1810c:	00ebae23          	sw	a4,28(s7)
   18110:	e81ff06f          	j	17f90 <_realloc_r+0x404>

00018114 <__swbuf_r>:
   18114:	fe010113          	addi	sp,sp,-32
   18118:	00812c23          	sw	s0,24(sp)
   1811c:	00912a23          	sw	s1,20(sp)
   18120:	01312623          	sw	s3,12(sp)
   18124:	00112e23          	sw	ra,28(sp)
   18128:	01212823          	sw	s2,16(sp)
   1812c:	00050493          	mv	s1,a0
   18130:	00058993          	mv	s3,a1
   18134:	00060413          	mv	s0,a2
   18138:	00050663          	beqz	a0,18144 <__swbuf_r+0x30>
   1813c:	03852783          	lw	a5,56(a0)
   18140:	12078263          	beqz	a5,18264 <__swbuf_r+0x150>
   18144:	00c41683          	lh	a3,12(s0)
   18148:	01842603          	lw	a2,24(s0)
   1814c:	01069713          	slli	a4,a3,0x10
   18150:	01075713          	srli	a4,a4,0x10
   18154:	00877793          	andi	a5,a4,8
   18158:	00c42423          	sw	a2,8(s0)
   1815c:	0e078263          	beqz	a5,18240 <__swbuf_r+0x12c>
   18160:	01042783          	lw	a5,16(s0)
   18164:	0c078e63          	beqz	a5,18240 <__swbuf_r+0x12c>
   18168:	01271613          	slli	a2,a4,0x12
   1816c:	0ff9f913          	andi	s2,s3,255
   18170:	06065663          	bgez	a2,181dc <__swbuf_r+0xc8>
   18174:	00042703          	lw	a4,0(s0)
   18178:	01442683          	lw	a3,20(s0)
   1817c:	40f707b3          	sub	a5,a4,a5
   18180:	08d7d663          	ble	a3,a5,1820c <__swbuf_r+0xf8>
   18184:	00178793          	addi	a5,a5,1
   18188:	00842683          	lw	a3,8(s0)
   1818c:	00170613          	addi	a2,a4,1
   18190:	00c42023          	sw	a2,0(s0)
   18194:	fff68693          	addi	a3,a3,-1
   18198:	00d42423          	sw	a3,8(s0)
   1819c:	01370023          	sb	s3,0(a4)
   181a0:	01442703          	lw	a4,20(s0)
   181a4:	08f70263          	beq	a4,a5,18228 <__swbuf_r+0x114>
   181a8:	00c45783          	lhu	a5,12(s0)
   181ac:	00090513          	mv	a0,s2
   181b0:	0017f793          	andi	a5,a5,1
   181b4:	00078663          	beqz	a5,181c0 <__swbuf_r+0xac>
   181b8:	00a00793          	li	a5,10
   181bc:	06f90663          	beq	s2,a5,18228 <__swbuf_r+0x114>
   181c0:	01c12083          	lw	ra,28(sp)
   181c4:	01812403          	lw	s0,24(sp)
   181c8:	01412483          	lw	s1,20(sp)
   181cc:	01012903          	lw	s2,16(sp)
   181d0:	00c12983          	lw	s3,12(sp)
   181d4:	02010113          	addi	sp,sp,32
   181d8:	00008067          	ret
   181dc:	06442583          	lw	a1,100(s0)
   181e0:	ffffe737          	lui	a4,0xffffe
   181e4:	fff70713          	addi	a4,a4,-1 # ffffdfff <_gp+0xfffe126f>
   181e8:	00e5f733          	and	a4,a1,a4
   181ec:	00002637          	lui	a2,0x2
   181f0:	00c6e6b3          	or	a3,a3,a2
   181f4:	06e42223          	sw	a4,100(s0)
   181f8:	00042703          	lw	a4,0(s0)
   181fc:	00d41623          	sh	a3,12(s0)
   18200:	01442683          	lw	a3,20(s0)
   18204:	40f707b3          	sub	a5,a4,a5
   18208:	f6d7cee3          	blt	a5,a3,18184 <__swbuf_r+0x70>
   1820c:	00040593          	mv	a1,s0
   18210:	00048513          	mv	a0,s1
   18214:	af4fb0ef          	jal	13508 <_fflush_r>
   18218:	04051a63          	bnez	a0,1826c <__swbuf_r+0x158>
   1821c:	00042703          	lw	a4,0(s0)
   18220:	00100793          	li	a5,1
   18224:	f65ff06f          	j	18188 <__swbuf_r+0x74>
   18228:	00040593          	mv	a1,s0
   1822c:	00048513          	mv	a0,s1
   18230:	ad8fb0ef          	jal	13508 <_fflush_r>
   18234:	02051c63          	bnez	a0,1826c <__swbuf_r+0x158>
   18238:	00090513          	mv	a0,s2
   1823c:	f85ff06f          	j	181c0 <__swbuf_r+0xac>
   18240:	00040593          	mv	a1,s0
   18244:	00048513          	mv	a0,s1
   18248:	cb5f90ef          	jal	11efc <__swsetup_r>
   1824c:	02051463          	bnez	a0,18274 <__swbuf_r+0x160>
   18250:	00c41683          	lh	a3,12(s0)
   18254:	01042783          	lw	a5,16(s0)
   18258:	01069713          	slli	a4,a3,0x10
   1825c:	01075713          	srli	a4,a4,0x10
   18260:	f09ff06f          	j	18168 <__swbuf_r+0x54>
   18264:	895fb0ef          	jal	13af8 <__sinit>
   18268:	eddff06f          	j	18144 <__swbuf_r+0x30>
   1826c:	fff00513          	li	a0,-1
   18270:	f51ff06f          	j	181c0 <__swbuf_r+0xac>
   18274:	00c45783          	lhu	a5,12(s0)
   18278:	fff00513          	li	a0,-1
   1827c:	0407e793          	ori	a5,a5,64
   18280:	00f41623          	sh	a5,12(s0)
   18284:	00900793          	li	a5,9
   18288:	00f4a023          	sw	a5,0(s1)
   1828c:	f35ff06f          	j	181c0 <__swbuf_r+0xac>

00018290 <__swbuf>:
   18290:	00058613          	mv	a2,a1
   18294:	00050593          	mv	a1,a0
   18298:	8081a503          	lw	a0,-2040(gp) # 1c598 <_impure_ptr>
   1829c:	e79ff06f          	j	18114 <__swbuf_r>

000182a0 <_wcrtomb_r>:
   182a0:	fd010113          	addi	sp,sp,-48
   182a4:	02812423          	sw	s0,40(sp)
   182a8:	02912223          	sw	s1,36(sp)
   182ac:	03212023          	sw	s2,32(sp)
   182b0:	02112623          	sw	ra,44(sp)
   182b4:	00050413          	mv	s0,a0
   182b8:	00068493          	mv	s1,a3
   182bc:	8181a903          	lw	s2,-2024(gp) # 1c5a8 <__wctomb>
   182c0:	04058a63          	beqz	a1,18314 <_wcrtomb_r+0x74>
   182c4:	00b12623          	sw	a1,12(sp)
   182c8:	00c12423          	sw	a2,8(sp)
   182cc:	e19fb0ef          	jal	140e4 <__locale_charset>
   182d0:	00812603          	lw	a2,8(sp)
   182d4:	00c12583          	lw	a1,12(sp)
   182d8:	00050693          	mv	a3,a0
   182dc:	00048713          	mv	a4,s1
   182e0:	00040513          	mv	a0,s0
   182e4:	000900e7          	jalr	s2
   182e8:	fff00793          	li	a5,-1
   182ec:	00f51863          	bne	a0,a5,182fc <_wcrtomb_r+0x5c>
   182f0:	08a00793          	li	a5,138
   182f4:	0004a023          	sw	zero,0(s1)
   182f8:	00f42023          	sw	a5,0(s0)
   182fc:	02c12083          	lw	ra,44(sp)
   18300:	02812403          	lw	s0,40(sp)
   18304:	02412483          	lw	s1,36(sp)
   18308:	02012903          	lw	s2,32(sp)
   1830c:	03010113          	addi	sp,sp,48
   18310:	00008067          	ret
   18314:	dd1fb0ef          	jal	140e4 <__locale_charset>
   18318:	00050693          	mv	a3,a0
   1831c:	00048713          	mv	a4,s1
   18320:	00000613          	li	a2,0
   18324:	01410593          	addi	a1,sp,20
   18328:	00040513          	mv	a0,s0
   1832c:	000900e7          	jalr	s2
   18330:	fb9ff06f          	j	182e8 <_wcrtomb_r+0x48>

00018334 <wcrtomb>:
   18334:	fd010113          	addi	sp,sp,-48
   18338:	02912223          	sw	s1,36(sp)
   1833c:	02112623          	sw	ra,44(sp)
   18340:	02812423          	sw	s0,40(sp)
   18344:	03212023          	sw	s2,32(sp)
   18348:	01312e23          	sw	s3,28(sp)
   1834c:	01412c23          	sw	s4,24(sp)
   18350:	01512a23          	sw	s5,20(sp)
   18354:	00060493          	mv	s1,a2
   18358:	06050663          	beqz	a0,183c4 <wcrtomb+0x90>
   1835c:	8081aa83          	lw	s5,-2040(gp) # 1c598 <_impure_ptr>
   18360:	8181aa03          	lw	s4,-2024(gp) # 1c5a8 <__wctomb>
   18364:	00058993          	mv	s3,a1
   18368:	00050413          	mv	s0,a0
   1836c:	d79fb0ef          	jal	140e4 <__locale_charset>
   18370:	00050693          	mv	a3,a0
   18374:	00048713          	mv	a4,s1
   18378:	00098613          	mv	a2,s3
   1837c:	00040593          	mv	a1,s0
   18380:	000a8513          	mv	a0,s5
   18384:	000a00e7          	jalr	s4
   18388:	fff00793          	li	a5,-1
   1838c:	00f51a63          	bne	a0,a5,183a0 <wcrtomb+0x6c>
   18390:	8081a783          	lw	a5,-2040(gp) # 1c598 <_impure_ptr>
   18394:	08a00713          	li	a4,138
   18398:	0004a023          	sw	zero,0(s1)
   1839c:	00e7a023          	sw	a4,0(a5)
   183a0:	02c12083          	lw	ra,44(sp)
   183a4:	02812403          	lw	s0,40(sp)
   183a8:	02412483          	lw	s1,36(sp)
   183ac:	02012903          	lw	s2,32(sp)
   183b0:	01c12983          	lw	s3,28(sp)
   183b4:	01812a03          	lw	s4,24(sp)
   183b8:	01412a83          	lw	s5,20(sp)
   183bc:	03010113          	addi	sp,sp,48
   183c0:	00008067          	ret
   183c4:	8081a983          	lw	s3,-2040(gp) # 1c598 <_impure_ptr>
   183c8:	8181a403          	lw	s0,-2024(gp) # 1c5a8 <__wctomb>
   183cc:	d19fb0ef          	jal	140e4 <__locale_charset>
   183d0:	00050693          	mv	a3,a0
   183d4:	00048713          	mv	a4,s1
   183d8:	00000613          	li	a2,0
   183dc:	00410593          	addi	a1,sp,4
   183e0:	00098513          	mv	a0,s3
   183e4:	000400e7          	jalr	s0
   183e8:	fa1ff06f          	j	18388 <wcrtomb+0x54>

000183ec <__ascii_wctomb>:
   183ec:	00058c63          	beqz	a1,18404 <__ascii_wctomb+0x18>
   183f0:	0ff00793          	li	a5,255
   183f4:	00c7ec63          	bltu	a5,a2,1840c <__ascii_wctomb+0x20>
   183f8:	00c58023          	sb	a2,0(a1)
   183fc:	00100513          	li	a0,1
   18400:	00008067          	ret
   18404:	00000513          	li	a0,0
   18408:	00008067          	ret
   1840c:	08a00793          	li	a5,138
   18410:	00f52023          	sw	a5,0(a0)
   18414:	fff00513          	li	a0,-1
   18418:	00008067          	ret

0001841c <_wctomb_r>:
   1841c:	fe010113          	addi	sp,sp,-32
   18420:	00812c23          	sw	s0,24(sp)
   18424:	8181a403          	lw	s0,-2024(gp) # 1c5a8 <__wctomb>
   18428:	00112e23          	sw	ra,28(sp)
   1842c:	00912a23          	sw	s1,20(sp)
   18430:	01212823          	sw	s2,16(sp)
   18434:	00050493          	mv	s1,a0
   18438:	00068913          	mv	s2,a3
   1843c:	00b12623          	sw	a1,12(sp)
   18440:	00c12423          	sw	a2,8(sp)
   18444:	ca1fb0ef          	jal	140e4 <__locale_charset>
   18448:	00050693          	mv	a3,a0
   1844c:	00090713          	mv	a4,s2
   18450:	00812603          	lw	a2,8(sp)
   18454:	00c12583          	lw	a1,12(sp)
   18458:	00048513          	mv	a0,s1
   1845c:	00040313          	mv	t1,s0
   18460:	01c12083          	lw	ra,28(sp)
   18464:	01812403          	lw	s0,24(sp)
   18468:	01412483          	lw	s1,20(sp)
   1846c:	01012903          	lw	s2,16(sp)
   18470:	02010113          	addi	sp,sp,32
   18474:	00030067          	jr	t1

00018478 <__syscall_error>:
   18478:	ff010113          	addi	sp,sp,-16
   1847c:	00112623          	sw	ra,12(sp)
   18480:	00812423          	sw	s0,8(sp)
   18484:	00050413          	mv	s0,a0
   18488:	04c020ef          	jal	1a4d4 <__errno>
   1848c:	00c12083          	lw	ra,12(sp)
   18490:	408007b3          	neg	a5,s0
   18494:	00f52023          	sw	a5,0(a0)
   18498:	00812403          	lw	s0,8(sp)
   1849c:	fff00513          	li	a0,-1
   184a0:	01010113          	addi	sp,sp,16
   184a4:	00008067          	ret

000184a8 <open>:
   184a8:	00000693          	li	a3,0
   184ac:	40000893          	li	a7,1024
   184b0:	00000073          	ecall
   184b4:	fc0542e3          	bltz	a0,18478 <__syscall_error>
   184b8:	00008067          	ret

000184bc <openat>:
   184bc:	03800893          	li	a7,56
   184c0:	00000073          	ecall
   184c4:	fa054ae3          	bltz	a0,18478 <__syscall_error>
   184c8:	00008067          	ret

000184cc <lseek>:
   184cc:	00060593          	mv	a1,a2
   184d0:	00000693          	li	a3,0
   184d4:	00070613          	mv	a2,a4
   184d8:	03e00893          	li	a7,62
   184dc:	00000073          	ecall
   184e0:	f8054ce3          	bltz	a0,18478 <__syscall_error>
   184e4:	41f55593          	srai	a1,a0,0x1f
   184e8:	00008067          	ret

000184ec <read>:
   184ec:	00000693          	li	a3,0
   184f0:	03f00893          	li	a7,63
   184f4:	00000073          	ecall
   184f8:	f80540e3          	bltz	a0,18478 <__syscall_error>
   184fc:	00008067          	ret

00018500 <write>:
   18500:	00000693          	li	a3,0
   18504:	04000893          	li	a7,64
   18508:	00000073          	ecall
   1850c:	f60546e3          	bltz	a0,18478 <__syscall_error>
   18510:	00008067          	ret

00018514 <fstat>:
   18514:	00000613          	li	a2,0
   18518:	00000693          	li	a3,0
   1851c:	05000893          	li	a7,80
   18520:	00000073          	ecall
   18524:	f4054ae3          	bltz	a0,18478 <__syscall_error>
   18528:	00008067          	ret

0001852c <stat>:
   1852c:	00000613          	li	a2,0
   18530:	00000693          	li	a3,0
   18534:	40e00893          	li	a7,1038
   18538:	00000073          	ecall
   1853c:	f2054ee3          	bltz	a0,18478 <__syscall_error>
   18540:	00008067          	ret

00018544 <lstat>:
   18544:	00000613          	li	a2,0
   18548:	00000693          	li	a3,0
   1854c:	40f00893          	li	a7,1039
   18550:	00000073          	ecall
   18554:	f20542e3          	bltz	a0,18478 <__syscall_error>
   18558:	00008067          	ret

0001855c <fstatat>:
   1855c:	04f00893          	li	a7,79
   18560:	00000073          	ecall
   18564:	f0054ae3          	bltz	a0,18478 <__syscall_error>
   18568:	00008067          	ret

0001856c <access>:
   1856c:	00000613          	li	a2,0
   18570:	00000693          	li	a3,0
   18574:	40900893          	li	a7,1033
   18578:	00000073          	ecall
   1857c:	ee054ee3          	bltz	a0,18478 <__syscall_error>
   18580:	00008067          	ret

00018584 <faccessat>:
   18584:	03000893          	li	a7,48
   18588:	00000073          	ecall
   1858c:	ee0546e3          	bltz	a0,18478 <__syscall_error>
   18590:	00008067          	ret

00018594 <close>:
   18594:	00000593          	li	a1,0
   18598:	00000613          	li	a2,0
   1859c:	00000693          	li	a3,0
   185a0:	03900893          	li	a7,57
   185a4:	00000073          	ecall
   185a8:	ec0548e3          	bltz	a0,18478 <__syscall_error>
   185ac:	00008067          	ret

000185b0 <link>:
   185b0:	00000613          	li	a2,0
   185b4:	00000693          	li	a3,0
   185b8:	40100893          	li	a7,1025
   185bc:	00000073          	ecall
   185c0:	ea054ce3          	bltz	a0,18478 <__syscall_error>
   185c4:	00008067          	ret

000185c8 <unlink>:
   185c8:	00000593          	li	a1,0
   185cc:	00000613          	li	a2,0
   185d0:	00000693          	li	a3,0
   185d4:	40200893          	li	a7,1026
   185d8:	00000073          	ecall
   185dc:	e8054ee3          	bltz	a0,18478 <__syscall_error>
   185e0:	00008067          	ret

000185e4 <execve>:
   185e4:	ff010113          	addi	sp,sp,-16
   185e8:	00112623          	sw	ra,12(sp)
   185ec:	6e9010ef          	jal	1a4d4 <__errno>
   185f0:	00c12083          	lw	ra,12(sp)
   185f4:	00c00793          	li	a5,12
   185f8:	00f52023          	sw	a5,0(a0)
   185fc:	01010113          	addi	sp,sp,16
   18600:	fff00513          	li	a0,-1
   18604:	00008067          	ret

00018608 <fork>:
   18608:	ff010113          	addi	sp,sp,-16
   1860c:	00112623          	sw	ra,12(sp)
   18610:	6c5010ef          	jal	1a4d4 <__errno>
   18614:	00c12083          	lw	ra,12(sp)
   18618:	00b00793          	li	a5,11
   1861c:	00f52023          	sw	a5,0(a0)
   18620:	01010113          	addi	sp,sp,16
   18624:	fff00513          	li	a0,-1
   18628:	00008067          	ret

0001862c <getpid>:
   1862c:	00100513          	li	a0,1
   18630:	00008067          	ret

00018634 <kill>:
   18634:	ff010113          	addi	sp,sp,-16
   18638:	00112623          	sw	ra,12(sp)
   1863c:	699010ef          	jal	1a4d4 <__errno>
   18640:	00c12083          	lw	ra,12(sp)
   18644:	01600793          	li	a5,22
   18648:	00f52023          	sw	a5,0(a0)
   1864c:	01010113          	addi	sp,sp,16
   18650:	fff00513          	li	a0,-1
   18654:	00008067          	ret

00018658 <wait>:
   18658:	ff010113          	addi	sp,sp,-16
   1865c:	00112623          	sw	ra,12(sp)
   18660:	675010ef          	jal	1a4d4 <__errno>
   18664:	00c12083          	lw	ra,12(sp)
   18668:	00a00793          	li	a5,10
   1866c:	00f52023          	sw	a5,0(a0)
   18670:	01010113          	addi	sp,sp,16
   18674:	fff00513          	li	a0,-1
   18678:	00008067          	ret

0001867c <isatty>:
   1867c:	f8010113          	addi	sp,sp,-128
   18680:	00010593          	mv	a1,sp
   18684:	00000613          	li	a2,0
   18688:	00000693          	li	a3,0
   1868c:	05000893          	li	a7,80
   18690:	00000073          	ecall
   18694:	de0542e3          	bltz	a0,18478 <__syscall_error>
   18698:	fff00793          	li	a5,-1
   1869c:	00f50863          	beq	a0,a5,186ac <isatty+0x30>
   186a0:	01012503          	lw	a0,16(sp)
   186a4:	00d55513          	srli	a0,a0,0xd
   186a8:	00157513          	andi	a0,a0,1
   186ac:	08010113          	addi	sp,sp,128
   186b0:	00008067          	ret

000186b4 <times>:
   186b4:	8e018293          	addi	t0,gp,-1824 # 1c670 <t0.2270>
   186b8:	0002a783          	lw	a5,0(t0)
   186bc:	0042a683          	lw	a3,4(t0)
   186c0:	ff010113          	addi	sp,sp,-16
   186c4:	00050813          	mv	a6,a0
   186c8:	00d7e7b3          	or	a5,a5,a3
   186cc:	02079063          	bnez	a5,186ec <times+0x38>
   186d0:	8e018513          	addi	a0,gp,-1824 # 1c670 <t0.2270>
   186d4:	00000593          	li	a1,0
   186d8:	00000613          	li	a2,0
   186dc:	00000693          	li	a3,0
   186e0:	0a900893          	li	a7,169
   186e4:	00000073          	ecall
   186e8:	d80548e3          	bltz	a0,18478 <__syscall_error>
   186ec:	00010513          	mv	a0,sp
   186f0:	00000593          	li	a1,0
   186f4:	00000613          	li	a2,0
   186f8:	00000693          	li	a3,0
   186fc:	0a900893          	li	a7,169
   18700:	00000073          	ecall
   18704:	d6054ae3          	bltz	a0,18478 <__syscall_error>
   18708:	0002a703          	lw	a4,0(t0)
   1870c:	00012783          	lw	a5,0(sp)
   18710:	fff00513          	li	a0,-1
   18714:	00082623          	sw	zero,12(a6)
   18718:	40e786b3          	sub	a3,a5,a4
   1871c:	000f47b7          	lui	a5,0xf4
   18720:	24078793          	addi	a5,a5,576 # f4240 <_gp+0xd74b0>
   18724:	02f68733          	mul	a4,a3,a5
   18728:	0082a683          	lw	a3,8(t0)
   1872c:	00812783          	lw	a5,8(sp)
   18730:	00082423          	sw	zero,8(a6)
   18734:	00082223          	sw	zero,4(a6)
   18738:	40d787b3          	sub	a5,a5,a3
   1873c:	01010113          	addi	sp,sp,16
   18740:	00f707b3          	add	a5,a4,a5
   18744:	00f82023          	sw	a5,0(a6)
   18748:	00008067          	ret

0001874c <gettimeofday>:
   1874c:	00000593          	li	a1,0
   18750:	00000613          	li	a2,0
   18754:	00000693          	li	a3,0
   18758:	0a900893          	li	a7,169
   1875c:	00000073          	ecall
   18760:	d0054ce3          	bltz	a0,18478 <__syscall_error>
   18764:	00008067          	ret

00018768 <ftime>:
   18768:	00000713          	li	a4,0
   1876c:	00000793          	li	a5,0
   18770:	00051423          	sh	zero,8(a0)
   18774:	00e52023          	sw	a4,0(a0)
   18778:	00f52223          	sw	a5,4(a0)
   1877c:	00000513          	li	a0,0
   18780:	00008067          	ret

00018784 <utime>:
   18784:	fff00513          	li	a0,-1
   18788:	00008067          	ret

0001878c <chown>:
   1878c:	fff00513          	li	a0,-1
   18790:	00008067          	ret

00018794 <chmod>:
   18794:	fff00513          	li	a0,-1
   18798:	00008067          	ret

0001879c <chdir>:
   1879c:	fff00513          	li	a0,-1
   187a0:	00008067          	ret

000187a4 <getcwd>:
   187a4:	00000513          	li	a0,0
   187a8:	00008067          	ret

000187ac <sysconf>:
   187ac:	00200793          	li	a5,2
   187b0:	00f51863          	bne	a0,a5,187c0 <sysconf+0x14>
   187b4:	000f4537          	lui	a0,0xf4
   187b8:	24050513          	addi	a0,a0,576 # f4240 <_gp+0xd74b0>
   187bc:	00008067          	ret
   187c0:	fff00513          	li	a0,-1
   187c4:	00008067          	ret

000187c8 <sbrk>:
   187c8:	8901a703          	lw	a4,-1904(gp) # 1c620 <heap_end.2308>
   187cc:	00050793          	mv	a5,a0
   187d0:	00071663          	bnez	a4,187dc <sbrk+0x14>
   187d4:	8f018713          	addi	a4,gp,-1808 # 1c680 <_end>
   187d8:	88e1a823          	sw	a4,-1904(gp) # 1c620 <heap_end.2308>
   187dc:	00e78533          	add	a0,a5,a4
   187e0:	00000593          	li	a1,0
   187e4:	00000613          	li	a2,0
   187e8:	00000693          	li	a3,0
   187ec:	0d600893          	li	a7,214
   187f0:	00000073          	ecall
   187f4:	c80542e3          	bltz	a0,18478 <__syscall_error>
   187f8:	8901a683          	lw	a3,-1904(gp) # 1c620 <heap_end.2308>
   187fc:	fff00713          	li	a4,-1
   18800:	00d787b3          	add	a5,a5,a3
   18804:	00f51663          	bne	a0,a5,18810 <sbrk+0x48>
   18808:	88a1a823          	sw	a0,-1904(gp) # 1c620 <heap_end.2308>
   1880c:	00068713          	mv	a4,a3
   18810:	00070513          	mv	a0,a4
   18814:	00008067          	ret

00018818 <_exit>:
   18818:	00000593          	li	a1,0
   1881c:	00000613          	li	a2,0
   18820:	00000693          	li	a3,0
   18824:	05d00893          	li	a7,93
   18828:	00000073          	ecall
   1882c:	c40546e3          	bltz	a0,18478 <__syscall_error>
   18830:	0000006f          	j	18830 <_exit+0x18>

00018834 <_fpadd_parts>:
   18834:	00052783          	lw	a5,0(a0)
   18838:	00100693          	li	a3,1
   1883c:	12f6f263          	bleu	a5,a3,18960 <_fpadd_parts+0x12c>
   18840:	0005a703          	lw	a4,0(a1)
   18844:	10e6fc63          	bleu	a4,a3,1895c <_fpadd_parts+0x128>
   18848:	00400693          	li	a3,4
   1884c:	24d78063          	beq	a5,a3,18a8c <_fpadd_parts+0x258>
   18850:	10d70663          	beq	a4,a3,1895c <_fpadd_parts+0x128>
   18854:	00200693          	li	a3,2
   18858:	1cd70263          	beq	a4,a3,18a1c <_fpadd_parts+0x1e8>
   1885c:	10d78063          	beq	a5,a3,1895c <_fpadd_parts+0x128>
   18860:	00852303          	lw	t1,8(a0)
   18864:	0085a683          	lw	a3,8(a1)
   18868:	01052883          	lw	a7,16(a0)
   1886c:	01452e03          	lw	t3,20(a0)
   18870:	40d30833          	sub	a6,t1,a3
   18874:	41f85793          	srai	a5,a6,0x1f
   18878:	0107c733          	xor	a4,a5,a6
   1887c:	40f70733          	sub	a4,a4,a5
   18880:	03f00793          	li	a5,63
   18884:	0105a283          	lw	t0,16(a1)
   18888:	0145a383          	lw	t2,20(a1)
   1888c:	0ce7dc63          	ble	a4,a5,18964 <_fpadd_parts+0x130>
   18890:	1e66c863          	blt	a3,t1,18a80 <_fpadd_parts+0x24c>
   18894:	00068313          	mv	t1,a3
   18898:	00000893          	li	a7,0
   1889c:	00000e13          	li	t3,0
   188a0:	00452503          	lw	a0,4(a0)
   188a4:	0045a783          	lw	a5,4(a1)
   188a8:	10f50863          	beq	a0,a5,189b8 <_fpadd_parts+0x184>
   188ac:	1c050063          	beqz	a0,18a6c <_fpadd_parts+0x238>
   188b0:	411287b3          	sub	a5,t0,a7
   188b4:	00f2b6b3          	sltu	a3,t0,a5
   188b8:	41c38733          	sub	a4,t2,t3
   188bc:	40d706b3          	sub	a3,a4,a3
   188c0:	1e06c463          	bltz	a3,18aa8 <_fpadd_parts+0x274>
   188c4:	00062223          	sw	zero,4(a2) # 2004 <_ftext-0xdffc>
   188c8:	00662423          	sw	t1,8(a2)
   188cc:	00f62823          	sw	a5,16(a2)
   188d0:	00d62a23          	sw	a3,20(a2)
   188d4:	fff78513          	addi	a0,a5,-1
   188d8:	fff68593          	addi	a1,a3,-1
   188dc:	00f53733          	sltu	a4,a0,a5
   188e0:	00b70733          	add	a4,a4,a1
   188e4:	100005b7          	lui	a1,0x10000
   188e8:	0eb77863          	bleu	a1,a4,189d8 <_fpadd_parts+0x1a4>
   188ec:	fff58593          	addi	a1,a1,-1 # fffffff <_gp+0xffe326f>
   188f0:	24b70e63          	beq	a4,a1,18b4c <_fpadd_parts+0x318>
   188f4:	00862503          	lw	a0,8(a2)
   188f8:	100002b7          	lui	t0,0x10000
   188fc:	fff28313          	addi	t1,t0,-1 # fffffff <_gp+0xffe326f>
   18900:	fff50513          	addi	a0,a0,-1
   18904:	ffe00393          	li	t2,-2
   18908:	0080006f          	j	18910 <_fpadd_parts+0xdc>
   1890c:	14670c63          	beq	a4,t1,18a64 <_fpadd_parts+0x230>
   18910:	01f7d713          	srli	a4,a5,0x1f
   18914:	00169593          	slli	a1,a3,0x1
   18918:	00179793          	slli	a5,a5,0x1
   1891c:	00b765b3          	or	a1,a4,a1
   18920:	fff78813          	addi	a6,a5,-1
   18924:	fff58893          	addi	a7,a1,-1
   18928:	00f83733          	sltu	a4,a6,a5
   1892c:	01170733          	add	a4,a4,a7
   18930:	00058693          	mv	a3,a1
   18934:	00050893          	mv	a7,a0
   18938:	fff50513          	addi	a0,a0,-1
   1893c:	fc5768e3          	bltu	a4,t0,1890c <_fpadd_parts+0xd8>
   18940:	00f62823          	sw	a5,16(a2)
   18944:	00300793          	li	a5,3
   18948:	00b62a23          	sw	a1,20(a2)
   1894c:	01162423          	sw	a7,8(a2)
   18950:	00f62023          	sw	a5,0(a2)
   18954:	00060513          	mv	a0,a2
   18958:	00008067          	ret
   1895c:	00058513          	mv	a0,a1
   18960:	00008067          	ret
   18964:	19005a63          	blez	a6,18af8 <_fpadd_parts+0x2c4>
   18968:	02077793          	andi	a5,a4,32
   1896c:	16078263          	beqz	a5,18ad0 <_fpadd_parts+0x29c>
   18970:	00100793          	li	a5,1
   18974:	00e3deb3          	srl	t4,t2,a4
   18978:	00e797b3          	sll	a5,a5,a4
   1897c:	00000f13          	li	t5,0
   18980:	00000713          	li	a4,0
   18984:	fff70693          	addi	a3,a4,-1
   18988:	fff78793          	addi	a5,a5,-1
   1898c:	00e6b733          	sltu	a4,a3,a4
   18990:	00f70733          	add	a4,a4,a5
   18994:	00777733          	and	a4,a4,t2
   18998:	0056f7b3          	and	a5,a3,t0
   1899c:	00e7e7b3          	or	a5,a5,a4
   189a0:	00f037b3          	snez	a5,a5
   189a4:	00fee2b3          	or	t0,t4,a5
   189a8:	00452503          	lw	a0,4(a0)
   189ac:	0045a783          	lw	a5,4(a1)
   189b0:	000f0393          	mv	t2,t5
   189b4:	eef51ce3          	bne	a0,a5,188ac <_fpadd_parts+0x78>
   189b8:	005887b3          	add	a5,a7,t0
   189bc:	0117b8b3          	sltu	a7,a5,a7
   189c0:	007e0733          	add	a4,t3,t2
   189c4:	00e886b3          	add	a3,a7,a4
   189c8:	00a62223          	sw	a0,4(a2)
   189cc:	00662423          	sw	t1,8(a2)
   189d0:	00f62823          	sw	a5,16(a2)
   189d4:	00d62a23          	sw	a3,20(a2)
   189d8:	00300713          	li	a4,3
   189dc:	00e62023          	sw	a4,0(a2)
   189e0:	20000737          	lui	a4,0x20000
   189e4:	02e6e863          	bltu	a3,a4,18a14 <_fpadd_parts+0x1e0>
   189e8:	00862703          	lw	a4,8(a2)
   189ec:	01f69513          	slli	a0,a3,0x1f
   189f0:	0017d593          	srli	a1,a5,0x1
   189f4:	00b565b3          	or	a1,a0,a1
   189f8:	0017f793          	andi	a5,a5,1
   189fc:	0016d693          	srli	a3,a3,0x1
   18a00:	00f5e7b3          	or	a5,a1,a5
   18a04:	00170713          	addi	a4,a4,1 # 20000001 <_gp+0x1ffe3271>
   18a08:	00f62823          	sw	a5,16(a2)
   18a0c:	00d62a23          	sw	a3,20(a2)
   18a10:	00e62423          	sw	a4,8(a2)
   18a14:	00060513          	mv	a0,a2
   18a18:	00008067          	ret
   18a1c:	f4e792e3          	bne	a5,a4,18960 <_fpadd_parts+0x12c>
   18a20:	00f62023          	sw	a5,0(a2)
   18a24:	00452783          	lw	a5,4(a0)
   18a28:	00f62223          	sw	a5,4(a2)
   18a2c:	00852703          	lw	a4,8(a0)
   18a30:	00452683          	lw	a3,4(a0)
   18a34:	0045a783          	lw	a5,4(a1)
   18a38:	00e62423          	sw	a4,8(a2)
   18a3c:	00c52703          	lw	a4,12(a0)
   18a40:	00f6f7b3          	and	a5,a3,a5
   18a44:	00e62623          	sw	a4,12(a2)
   18a48:	01052703          	lw	a4,16(a0)
   18a4c:	00e62823          	sw	a4,16(a2)
   18a50:	01452703          	lw	a4,20(a0)
   18a54:	00f62223          	sw	a5,4(a2)
   18a58:	00060513          	mv	a0,a2
   18a5c:	00e62a23          	sw	a4,20(a2)
   18a60:	00008067          	ret
   18a64:	eb03f6e3          	bleu	a6,t2,18910 <_fpadd_parts+0xdc>
   18a68:	ed9ff06f          	j	18940 <_fpadd_parts+0x10c>
   18a6c:	405887b3          	sub	a5,a7,t0
   18a70:	00f8b6b3          	sltu	a3,a7,a5
   18a74:	407e0733          	sub	a4,t3,t2
   18a78:	40d706b3          	sub	a3,a4,a3
   18a7c:	e45ff06f          	j	188c0 <_fpadd_parts+0x8c>
   18a80:	00000293          	li	t0,0
   18a84:	00000393          	li	t2,0
   18a88:	e19ff06f          	j	188a0 <_fpadd_parts+0x6c>
   18a8c:	ecf71ae3          	bne	a4,a5,18960 <_fpadd_parts+0x12c>
   18a90:	00452703          	lw	a4,4(a0)
   18a94:	0045a783          	lw	a5,4(a1)
   18a98:	ecf704e3          	beq	a4,a5,18960 <_fpadd_parts+0x12c>
   18a9c:	0001b537          	lui	a0,0x1b
   18aa0:	96050513          	addi	a0,a0,-1696 # 1a960 <__thenan_df>
   18aa4:	00008067          	ret
   18aa8:	40f007b3          	neg	a5,a5
   18aac:	00f03733          	snez	a4,a5
   18ab0:	40d006b3          	neg	a3,a3
   18ab4:	40e686b3          	sub	a3,a3,a4
   18ab8:	00100713          	li	a4,1
   18abc:	00e62223          	sw	a4,4(a2)
   18ac0:	00662423          	sw	t1,8(a2)
   18ac4:	00f62823          	sw	a5,16(a2)
   18ac8:	00d62a23          	sw	a3,20(a2)
   18acc:	e09ff06f          	j	188d4 <_fpadd_parts+0xa0>
   18ad0:	fff74693          	not	a3,a4
   18ad4:	00139793          	slli	a5,t2,0x1
   18ad8:	00d797b3          	sll	a5,a5,a3
   18adc:	00e2deb3          	srl	t4,t0,a4
   18ae0:	00100813          	li	a6,1
   18ae4:	01d7eeb3          	or	t4,a5,t4
   18ae8:	00e3df33          	srl	t5,t2,a4
   18aec:	00000793          	li	a5,0
   18af0:	00e81733          	sll	a4,a6,a4
   18af4:	e91ff06f          	j	18984 <_fpadd_parts+0x150>
   18af8:	da0804e3          	beqz	a6,188a0 <_fpadd_parts+0x6c>
   18afc:	02077793          	andi	a5,a4,32
   18b00:	00e30333          	add	t1,t1,a4
   18b04:	06078263          	beqz	a5,18b68 <_fpadd_parts+0x334>
   18b08:	00ee5833          	srl	a6,t3,a4
   18b0c:	00000e93          	li	t4,0
   18b10:	04079463          	bnez	a5,18b58 <_fpadd_parts+0x324>
   18b14:	00100793          	li	a5,1
   18b18:	00000693          	li	a3,0
   18b1c:	00e79733          	sll	a4,a5,a4
   18b20:	fff70793          	addi	a5,a4,-1
   18b24:	00e7b733          	sltu	a4,a5,a4
   18b28:	fff68693          	addi	a3,a3,-1
   18b2c:	00d70733          	add	a4,a4,a3
   18b30:	0117f7b3          	and	a5,a5,a7
   18b34:	01c77733          	and	a4,a4,t3
   18b38:	00e7e7b3          	or	a5,a5,a4
   18b3c:	00f037b3          	snez	a5,a5
   18b40:	00f868b3          	or	a7,a6,a5
   18b44:	000e8e13          	mv	t3,t4
   18b48:	d59ff06f          	j	188a0 <_fpadd_parts+0x6c>
   18b4c:	ffe00713          	li	a4,-2
   18b50:	daa772e3          	bleu	a0,a4,188f4 <_fpadd_parts+0xc0>
   18b54:	e85ff06f          	j	189d8 <_fpadd_parts+0x1a4>
   18b58:	00100693          	li	a3,1
   18b5c:	00e696b3          	sll	a3,a3,a4
   18b60:	00000713          	li	a4,0
   18b64:	fbdff06f          	j	18b20 <_fpadd_parts+0x2ec>
   18b68:	001e1793          	slli	a5,t3,0x1
   18b6c:	fff74693          	not	a3,a4
   18b70:	00d797b3          	sll	a5,a5,a3
   18b74:	00e8d833          	srl	a6,a7,a4
   18b78:	0107e833          	or	a6,a5,a6
   18b7c:	00ee5eb3          	srl	t4,t3,a4
   18b80:	f95ff06f          	j	18b14 <_fpadd_parts+0x2e0>

00018b84 <__pack_d>:
   18b84:	00052783          	lw	a5,0(a0)
   18b88:	00100613          	li	a2,1
   18b8c:	ff010113          	addi	sp,sp,-16
   18b90:	01052683          	lw	a3,16(a0)
   18b94:	01452583          	lw	a1,20(a0)
   18b98:	00452803          	lw	a6,4(a0)
   18b9c:	10f67263          	bleu	a5,a2,18ca0 <__pack_d+0x11c>
   18ba0:	00400893          	li	a7,4
   18ba4:	0f178663          	beq	a5,a7,18c90 <__pack_d+0x10c>
   18ba8:	00200893          	li	a7,2
   18bac:	07178263          	beq	a5,a7,18c10 <__pack_d+0x8c>
   18bb0:	00b6e7b3          	or	a5,a3,a1
   18bb4:	04078e63          	beqz	a5,18c10 <__pack_d+0x8c>
   18bb8:	00852783          	lw	a5,8(a0)
   18bbc:	c0200513          	li	a0,-1022
   18bc0:	12a7c863          	blt	a5,a0,18cf0 <__pack_d+0x16c>
   18bc4:	3ff00613          	li	a2,1023
   18bc8:	0cf64463          	blt	a2,a5,18c90 <__pack_d+0x10c>
   18bcc:	0ff6f613          	andi	a2,a3,255
   18bd0:	08000513          	li	a0,128
   18bd4:	10a60063          	beq	a2,a0,18cd4 <__pack_d+0x150>
   18bd8:	07f68613          	addi	a2,a3,127
   18bdc:	00d636b3          	sltu	a3,a2,a3
   18be0:	00b685b3          	add	a1,a3,a1
   18be4:	00060693          	mv	a3,a2
   18be8:	20000637          	lui	a2,0x20000
   18bec:	08c5f663          	bleu	a2,a1,18c78 <__pack_d+0xf4>
   18bf0:	3ff78793          	addi	a5,a5,1023
   18bf4:	01859613          	slli	a2,a1,0x18
   18bf8:	0086d713          	srli	a4,a3,0x8
   18bfc:	00459593          	slli	a1,a1,0x4
   18c00:	00e66733          	or	a4,a2,a4
   18c04:	00c5d593          	srli	a1,a1,0xc
   18c08:	7ff7f793          	andi	a5,a5,2047
   18c0c:	0100006f          	j	18c1c <__pack_d+0x98>
   18c10:	00000793          	li	a5,0
   18c14:	00000713          	li	a4,0
   18c18:	00000593          	li	a1,0
   18c1c:	00070613          	mv	a2,a4
   18c20:	00100737          	lui	a4,0x100
   18c24:	00000693          	li	a3,0
   18c28:	fff70713          	addi	a4,a4,-1 # fffff <_gp+0xe326f>
   18c2c:	fff00537          	lui	a0,0xfff00
   18c30:	00d57533          	and	a0,a0,a3
   18c34:	00e5f5b3          	and	a1,a1,a4
   18c38:	01479713          	slli	a4,a5,0x14
   18c3c:	801007b7          	lui	a5,0x80100
   18c40:	00b565b3          	or	a1,a0,a1
   18c44:	fff78793          	addi	a5,a5,-1 # 800fffff <_gp+0x800e326f>
   18c48:	00f5f7b3          	and	a5,a1,a5
   18c4c:	00e7e7b3          	or	a5,a5,a4
   18c50:	80000737          	lui	a4,0x80000
   18c54:	fff74713          	not	a4,a4
   18c58:	01f81813          	slli	a6,a6,0x1f
   18c5c:	00e7f7b3          	and	a5,a5,a4
   18c60:	0107e6b3          	or	a3,a5,a6
   18c64:	00c12423          	sw	a2,8(sp)
   18c68:	00d12623          	sw	a3,12(sp)
   18c6c:	00813507          	fld	fa0,8(sp)
   18c70:	01010113          	addi	sp,sp,16
   18c74:	00008067          	ret
   18c78:	01f59713          	slli	a4,a1,0x1f
   18c7c:	0016d693          	srli	a3,a3,0x1
   18c80:	00d766b3          	or	a3,a4,a3
   18c84:	0015d593          	srli	a1,a1,0x1
   18c88:	40078793          	addi	a5,a5,1024
   18c8c:	f69ff06f          	j	18bf4 <__pack_d+0x70>
   18c90:	7ff00793          	li	a5,2047
   18c94:	00000713          	li	a4,0
   18c98:	00000593          	li	a1,0
   18c9c:	f81ff06f          	j	18c1c <__pack_d+0x98>
   18ca0:	00080637          	lui	a2,0x80
   18ca4:	0085d713          	srli	a4,a1,0x8
   18ca8:	fff60793          	addi	a5,a2,-1 # 7ffff <_gp+0x6326f>
   18cac:	00f777b3          	and	a5,a4,a5
   18cb0:	01859713          	slli	a4,a1,0x18
   18cb4:	00c7e5b3          	or	a1,a5,a2
   18cb8:	001007b7          	lui	a5,0x100
   18cbc:	fff78793          	addi	a5,a5,-1 # fffff <_gp+0xe326f>
   18cc0:	0086d693          	srli	a3,a3,0x8
   18cc4:	00f5f5b3          	and	a1,a1,a5
   18cc8:	00d76733          	or	a4,a4,a3
   18ccc:	7ff00793          	li	a5,2047
   18cd0:	f4dff06f          	j	18c1c <__pack_d+0x98>
   18cd4:	1006f713          	andi	a4,a3,256
   18cd8:	f00708e3          	beqz	a4,18be8 <__pack_d+0x64>
   18cdc:	00a68733          	add	a4,a3,a0
   18ce0:	00d736b3          	sltu	a3,a4,a3
   18ce4:	00b685b3          	add	a1,a3,a1
   18ce8:	00070693          	mv	a3,a4
   18cec:	efdff06f          	j	18be8 <__pack_d+0x64>
   18cf0:	40f507b3          	sub	a5,a0,a5
   18cf4:	03800713          	li	a4,56
   18cf8:	f0f74ce3          	blt	a4,a5,18c10 <__pack_d+0x8c>
   18cfc:	0207f713          	andi	a4,a5,32
   18d00:	0a070663          	beqz	a4,18dac <__pack_d+0x228>
   18d04:	00f5d733          	srl	a4,a1,a5
   18d08:	00f61633          	sll	a2,a2,a5
   18d0c:	00000893          	li	a7,0
   18d10:	00000793          	li	a5,0
   18d14:	fff78513          	addi	a0,a5,-1
   18d18:	00f537b3          	sltu	a5,a0,a5
   18d1c:	fff60613          	addi	a2,a2,-1
   18d20:	00c78633          	add	a2,a5,a2
   18d24:	00b675b3          	and	a1,a2,a1
   18d28:	00d577b3          	and	a5,a0,a3
   18d2c:	00b7e7b3          	or	a5,a5,a1
   18d30:	00f037b3          	snez	a5,a5
   18d34:	00f766b3          	or	a3,a4,a5
   18d38:	0ff6f713          	andi	a4,a3,255
   18d3c:	08000793          	li	a5,128
   18d40:	02f71a63          	bne	a4,a5,18d74 <__pack_d+0x1f0>
   18d44:	1006f793          	andi	a5,a3,256
   18d48:	08079663          	bnez	a5,18dd4 <__pack_d+0x250>
   18d4c:	01889793          	slli	a5,a7,0x18
   18d50:	0086d713          	srli	a4,a3,0x8
   18d54:	00489593          	slli	a1,a7,0x4
   18d58:	100006b7          	lui	a3,0x10000
   18d5c:	00e7e733          	or	a4,a5,a4
   18d60:	00c5d593          	srli	a1,a1,0xc
   18d64:	00100793          	li	a5,1
   18d68:	02d8ec63          	bltu	a7,a3,18da0 <__pack_d+0x21c>
   18d6c:	0017f793          	andi	a5,a5,1
   18d70:	eadff06f          	j	18c1c <__pack_d+0x98>
   18d74:	07f68793          	addi	a5,a3,127 # 1000007f <_gp+0xffe32ef>
   18d78:	00d7b733          	sltu	a4,a5,a3
   18d7c:	011706b3          	add	a3,a4,a7
   18d80:	01869613          	slli	a2,a3,0x18
   18d84:	0087d713          	srli	a4,a5,0x8
   18d88:	00469593          	slli	a1,a3,0x4
   18d8c:	00e66733          	or	a4,a2,a4
   18d90:	10000637          	lui	a2,0x10000
   18d94:	00c5d593          	srli	a1,a1,0xc
   18d98:	00100793          	li	a5,1
   18d9c:	fcc6f8e3          	bleu	a2,a3,18d6c <__pack_d+0x1e8>
   18da0:	00000793          	li	a5,0
   18da4:	0017f793          	andi	a5,a5,1
   18da8:	e75ff06f          	j	18c1c <__pack_d+0x98>
   18dac:	fff7c713          	not	a4,a5
   18db0:	00159613          	slli	a2,a1,0x1
   18db4:	00e61633          	sll	a2,a2,a4
   18db8:	00100513          	li	a0,1
   18dbc:	00f6d733          	srl	a4,a3,a5
   18dc0:	00e66733          	or	a4,a2,a4
   18dc4:	00f5d8b3          	srl	a7,a1,a5
   18dc8:	00000613          	li	a2,0
   18dcc:	00f517b3          	sll	a5,a0,a5
   18dd0:	f45ff06f          	j	18d14 <__pack_d+0x190>
   18dd4:	08068793          	addi	a5,a3,128
   18dd8:	fa1ff06f          	j	18d78 <__pack_d+0x1f4>

00018ddc <__unpack_d>:
   18ddc:	00655683          	lhu	a3,6(a0) # fff00006 <_gp+0xffee3276>
   18de0:	00754703          	lbu	a4,7(a0)
   18de4:	00452803          	lw	a6,4(a0)
   18de8:	0046d693          	srli	a3,a3,0x4
   18dec:	001007b7          	lui	a5,0x100
   18df0:	00775613          	srli	a2,a4,0x7
   18df4:	fff78793          	addi	a5,a5,-1 # fffff <_gp+0xe326f>
   18df8:	7ff6f693          	andi	a3,a3,2047
   18dfc:	00052703          	lw	a4,0(a0)
   18e00:	00f877b3          	and	a5,a6,a5
   18e04:	00c5a223          	sw	a2,4(a1)
   18e08:	04069c63          	bnez	a3,18e60 <__unpack_d+0x84>
   18e0c:	00f766b3          	or	a3,a4,a5
   18e10:	08068663          	beqz	a3,18e9c <__unpack_d+0xc0>
   18e14:	01875693          	srli	a3,a4,0x18
   18e18:	00879793          	slli	a5,a5,0x8
   18e1c:	00f6e7b3          	or	a5,a3,a5
   18e20:	00300693          	li	a3,3
   18e24:	00d5a023          	sw	a3,0(a1)
   18e28:	00871713          	slli	a4,a4,0x8
   18e2c:	c0100693          	li	a3,-1023
   18e30:	10000537          	lui	a0,0x10000
   18e34:	01f75613          	srli	a2,a4,0x1f
   18e38:	00179793          	slli	a5,a5,0x1
   18e3c:	00f667b3          	or	a5,a2,a5
   18e40:	00171713          	slli	a4,a4,0x1
   18e44:	00068613          	mv	a2,a3
   18e48:	fff68693          	addi	a3,a3,-1
   18e4c:	fea7e4e3          	bltu	a5,a0,18e34 <__unpack_d+0x58>
   18e50:	00c5a423          	sw	a2,8(a1)
   18e54:	00e5a823          	sw	a4,16(a1)
   18e58:	00f5aa23          	sw	a5,20(a1)
   18e5c:	00008067          	ret
   18e60:	7ff00613          	li	a2,2047
   18e64:	04c68263          	beq	a3,a2,18ea8 <__unpack_d+0xcc>
   18e68:	01875613          	srli	a2,a4,0x18
   18e6c:	00879793          	slli	a5,a5,0x8
   18e70:	00f667b3          	or	a5,a2,a5
   18e74:	c0168693          	addi	a3,a3,-1023
   18e78:	10000637          	lui	a2,0x10000
   18e7c:	00871713          	slli	a4,a4,0x8
   18e80:	00c7e7b3          	or	a5,a5,a2
   18e84:	00d5a423          	sw	a3,8(a1)
   18e88:	00300693          	li	a3,3
   18e8c:	00d5a023          	sw	a3,0(a1)
   18e90:	00e5a823          	sw	a4,16(a1)
   18e94:	00f5aa23          	sw	a5,20(a1)
   18e98:	00008067          	ret
   18e9c:	00200793          	li	a5,2
   18ea0:	00f5a023          	sw	a5,0(a1)
   18ea4:	00008067          	ret
   18ea8:	00f766b3          	or	a3,a4,a5
   18eac:	02068e63          	beqz	a3,18ee8 <__unpack_d+0x10c>
   18eb0:	00c79693          	slli	a3,a5,0xc
   18eb4:	0406d063          	bgez	a3,18ef4 <__unpack_d+0x118>
   18eb8:	00100693          	li	a3,1
   18ebc:	00d5a023          	sw	a3,0(a1)
   18ec0:	fff806b7          	lui	a3,0xfff80
   18ec4:	fff68693          	addi	a3,a3,-1 # fff7ffff <_gp+0xfff6326f>
   18ec8:	00d7f7b3          	and	a5,a5,a3
   18ecc:	00879793          	slli	a5,a5,0x8
   18ed0:	01875693          	srli	a3,a4,0x18
   18ed4:	00d7e7b3          	or	a5,a5,a3
   18ed8:	00871713          	slli	a4,a4,0x8
   18edc:	00f5aa23          	sw	a5,20(a1)
   18ee0:	00e5a823          	sw	a4,16(a1)
   18ee4:	00008067          	ret
   18ee8:	00400793          	li	a5,4
   18eec:	00f5a023          	sw	a5,0(a1)
   18ef0:	00008067          	ret
   18ef4:	0005a023          	sw	zero,0(a1)
   18ef8:	fc9ff06f          	j	18ec0 <__unpack_d+0xe4>

00018efc <__adddf3>:
   18efc:	f9010113          	addi	sp,sp,-112
   18f00:	01810593          	addi	a1,sp,24
   18f04:	00810513          	addi	a0,sp,8
   18f08:	06112623          	sw	ra,108(sp)
   18f0c:	00a13427          	fsd	fa0,8(sp)
   18f10:	00c13827          	fsd	fa2,16(sp)
   18f14:	ec9ff0ef          	jal	18ddc <__unpack_d>
   18f18:	03010593          	addi	a1,sp,48
   18f1c:	01010513          	addi	a0,sp,16
   18f20:	ebdff0ef          	jal	18ddc <__unpack_d>
   18f24:	04810613          	addi	a2,sp,72
   18f28:	03010593          	addi	a1,sp,48
   18f2c:	01810513          	addi	a0,sp,24
   18f30:	905ff0ef          	jal	18834 <_fpadd_parts>
   18f34:	c51ff0ef          	jal	18b84 <__pack_d>
   18f38:	06c12083          	lw	ra,108(sp)
   18f3c:	07010113          	addi	sp,sp,112
   18f40:	00008067          	ret

00018f44 <__subdf3>:
   18f44:	f9010113          	addi	sp,sp,-112
   18f48:	01810593          	addi	a1,sp,24
   18f4c:	00810513          	addi	a0,sp,8
   18f50:	06112623          	sw	ra,108(sp)
   18f54:	00a13427          	fsd	fa0,8(sp)
   18f58:	00c13827          	fsd	fa2,16(sp)
   18f5c:	e81ff0ef          	jal	18ddc <__unpack_d>
   18f60:	03010593          	addi	a1,sp,48
   18f64:	01010513          	addi	a0,sp,16
   18f68:	e75ff0ef          	jal	18ddc <__unpack_d>
   18f6c:	03412783          	lw	a5,52(sp)
   18f70:	04810613          	addi	a2,sp,72
   18f74:	03010593          	addi	a1,sp,48
   18f78:	0017c793          	xori	a5,a5,1
   18f7c:	01810513          	addi	a0,sp,24
   18f80:	02f12a23          	sw	a5,52(sp)
   18f84:	8b1ff0ef          	jal	18834 <_fpadd_parts>
   18f88:	bfdff0ef          	jal	18b84 <__pack_d>
   18f8c:	06c12083          	lw	ra,108(sp)
   18f90:	07010113          	addi	sp,sp,112
   18f94:	00008067          	ret

00018f98 <__muldf3>:
   18f98:	f9010113          	addi	sp,sp,-112
   18f9c:	01810593          	addi	a1,sp,24
   18fa0:	00810513          	addi	a0,sp,8
   18fa4:	06112623          	sw	ra,108(sp)
   18fa8:	00a13427          	fsd	fa0,8(sp)
   18fac:	00c13827          	fsd	fa2,16(sp)
   18fb0:	e2dff0ef          	jal	18ddc <__unpack_d>
   18fb4:	03010593          	addi	a1,sp,48
   18fb8:	01010513          	addi	a0,sp,16
   18fbc:	e21ff0ef          	jal	18ddc <__unpack_d>
   18fc0:	01812783          	lw	a5,24(sp)
   18fc4:	00100693          	li	a3,1
   18fc8:	16f6fc63          	bleu	a5,a3,19140 <__muldf3+0x1a8>
   18fcc:	03012703          	lw	a4,48(sp)
   18fd0:	14e6f063          	bleu	a4,a3,19110 <__muldf3+0x178>
   18fd4:	00400693          	li	a3,4
   18fd8:	16d78063          	beq	a5,a3,19138 <__muldf3+0x1a0>
   18fdc:	12d70663          	beq	a4,a3,19108 <__muldf3+0x170>
   18fe0:	00200693          	li	a3,2
   18fe4:	14d78e63          	beq	a5,a3,19140 <__muldf3+0x1a8>
   18fe8:	12d70463          	beq	a4,a3,19110 <__muldf3+0x178>
   18fec:	02812503          	lw	a0,40(sp)
   18ff0:	02c12703          	lw	a4,44(sp)
   18ff4:	04012783          	lw	a5,64(sp)
   18ff8:	04412803          	lw	a6,68(sp)
   18ffc:	02f70633          	mul	a2,a4,a5
   19000:	02a803b3          	mul	t2,a6,a0
   19004:	02a832b3          	mulhu	t0,a6,a0
   19008:	00760333          	add	t1,a2,t2
   1900c:	00c33633          	sltu	a2,t1,a2
   19010:	02f735b3          	mulhu	a1,a4,a5
   19014:	005585b3          	add	a1,a1,t0
   19018:	00b60633          	add	a2,a2,a1
   1901c:	030708b3          	mul	a7,a4,a6
   19020:	02a785b3          	mul	a1,a5,a0
   19024:	03073833          	mulhu	a6,a4,a6
   19028:	02a7b533          	mulhu	a0,a5,a0
   1902c:	14566063          	bltu	a2,t0,1916c <__muldf3+0x1d4>
   19030:	12c28c63          	beq	t0,a2,19168 <__muldf3+0x1d0>
   19034:	00000793          	li	a5,0
   19038:	00000713          	li	a4,0
   1903c:	00a306b3          	add	a3,t1,a0
   19040:	00a6f463          	bleu	a0,a3,19048 <__muldf3+0xb0>
   19044:	00100793          	li	a5,1
   19048:	011608b3          	add	a7,a2,a7
   1904c:	00c8b533          	sltu	a0,a7,a2
   19050:	01050833          	add	a6,a0,a6
   19054:	02012603          	lw	a2,32(sp)
   19058:	03812503          	lw	a0,56(sp)
   1905c:	00f887b3          	add	a5,a7,a5
   19060:	0117b8b3          	sltu	a7,a5,a7
   19064:	00a60533          	add	a0,a2,a0
   19068:	00e80633          	add	a2,a6,a4
   1906c:	01c12703          	lw	a4,28(sp)
   19070:	03412803          	lw	a6,52(sp)
   19074:	00450293          	addi	t0,a0,4 # 10000004 <_gp+0xffe3274>
   19078:	200003b7          	lui	t2,0x20000
   1907c:	41070833          	sub	a6,a4,a6
   19080:	01003833          	snez	a6,a6
   19084:	00c88733          	add	a4,a7,a2
   19088:	04512823          	sw	t0,80(sp)
   1908c:	05012623          	sw	a6,76(sp)
   19090:	00550613          	addi	a2,a0,5
   19094:	80000eb7          	lui	t4,0x80000
   19098:	10776863          	bltu	a4,t2,191a8 <__muldf3+0x210>
   1909c:	0017f813          	andi	a6,a5,1
   190a0:	01f71513          	slli	a0,a4,0x1f
   190a4:	0017d793          	srli	a5,a5,0x1
   190a8:	00175713          	srli	a4,a4,0x1
   190ac:	01f69313          	slli	t1,a3,0x1f
   190b0:	0015d293          	srli	t0,a1,0x1
   190b4:	0016d893          	srli	a7,a3,0x1
   190b8:	00060e13          	mv	t3,a2
   190bc:	00080663          	beqz	a6,190c8 <__muldf3+0x130>
   190c0:	005365b3          	or	a1,t1,t0
   190c4:	01d8e6b3          	or	a3,a7,t4
   190c8:	00f567b3          	or	a5,a0,a5
   190cc:	00160613          	addi	a2,a2,1 # 10000001 <_gp+0xffe3271>
   190d0:	fc7776e3          	bleu	t2,a4,1909c <__muldf3+0x104>
   190d4:	05c12823          	sw	t3,80(sp)
   190d8:	0ff7f613          	andi	a2,a5,255
   190dc:	08000513          	li	a0,128
   190e0:	08a60c63          	beq	a2,a0,19178 <__muldf3+0x1e0>
   190e4:	04f12c23          	sw	a5,88(sp)
   190e8:	00300793          	li	a5,3
   190ec:	04e12e23          	sw	a4,92(sp)
   190f0:	04f12423          	sw	a5,72(sp)
   190f4:	04810513          	addi	a0,sp,72
   190f8:	a8dff0ef          	jal	18b84 <__pack_d>
   190fc:	06c12083          	lw	ra,108(sp)
   19100:	07010113          	addi	sp,sp,112
   19104:	00008067          	ret
   19108:	00200713          	li	a4,2
   1910c:	08e78863          	beq	a5,a4,1919c <__muldf3+0x204>
   19110:	03412703          	lw	a4,52(sp)
   19114:	01c12783          	lw	a5,28(sp)
   19118:	03010513          	addi	a0,sp,48
   1911c:	40e787b3          	sub	a5,a5,a4
   19120:	00f037b3          	snez	a5,a5
   19124:	02f12a23          	sw	a5,52(sp)
   19128:	a5dff0ef          	jal	18b84 <__pack_d>
   1912c:	06c12083          	lw	ra,108(sp)
   19130:	07010113          	addi	sp,sp,112
   19134:	00008067          	ret
   19138:	00200793          	li	a5,2
   1913c:	06f70063          	beq	a4,a5,1919c <__muldf3+0x204>
   19140:	03412703          	lw	a4,52(sp)
   19144:	01c12783          	lw	a5,28(sp)
   19148:	01810513          	addi	a0,sp,24
   1914c:	40e787b3          	sub	a5,a5,a4
   19150:	00f037b3          	snez	a5,a5
   19154:	00f12e23          	sw	a5,28(sp)
   19158:	a2dff0ef          	jal	18b84 <__pack_d>
   1915c:	06c12083          	lw	ra,108(sp)
   19160:	07010113          	addi	sp,sp,112
   19164:	00008067          	ret
   19168:	ec7376e3          	bleu	t2,t1,19034 <__muldf3+0x9c>
   1916c:	00000793          	li	a5,0
   19170:	00100713          	li	a4,1
   19174:	ec9ff06f          	j	1903c <__muldf3+0xa4>
   19178:	1007f613          	andi	a2,a5,256
   1917c:	f60614e3          	bnez	a2,190e4 <__muldf3+0x14c>
   19180:	00d5e6b3          	or	a3,a1,a3
   19184:	f60680e3          	beqz	a3,190e4 <__muldf3+0x14c>
   19188:	00a786b3          	add	a3,a5,a0
   1918c:	00f6b7b3          	sltu	a5,a3,a5
   19190:	00e78733          	add	a4,a5,a4
   19194:	f006f793          	andi	a5,a3,-256
   19198:	f4dff06f          	j	190e4 <__muldf3+0x14c>
   1919c:	0001b537          	lui	a0,0x1b
   191a0:	96050513          	addi	a0,a0,-1696 # 1a960 <__thenan_df>
   191a4:	f55ff06f          	j	190f8 <__muldf3+0x160>
   191a8:	10000337          	lui	t1,0x10000
   191ac:	00350513          	addi	a0,a0,3
   191b0:	f26774e3          	bleu	t1,a4,190d8 <__muldf3+0x140>
   191b4:	01f7d813          	srli	a6,a5,0x1f
   191b8:	00171613          	slli	a2,a4,0x1
   191bc:	00c86633          	or	a2,a6,a2
   191c0:	01f5d893          	srli	a7,a1,0x1f
   191c4:	00169813          	slli	a6,a3,0x1
   191c8:	00050293          	mv	t0,a0
   191cc:	00179793          	slli	a5,a5,0x1
   191d0:	00060713          	mv	a4,a2
   191d4:	0006d463          	bgez	a3,191dc <__muldf3+0x244>
   191d8:	0017e793          	ori	a5,a5,1
   191dc:	00159593          	slli	a1,a1,0x1
   191e0:	0108e6b3          	or	a3,a7,a6
   191e4:	fff50513          	addi	a0,a0,-1
   191e8:	fc6666e3          	bltu	a2,t1,191b4 <__muldf3+0x21c>
   191ec:	04512823          	sw	t0,80(sp)
   191f0:	ee9ff06f          	j	190d8 <__muldf3+0x140>

000191f4 <__divdf3>:
   191f4:	fb010113          	addi	sp,sp,-80
   191f8:	01010593          	addi	a1,sp,16
   191fc:	00010513          	mv	a0,sp
   19200:	04112623          	sw	ra,76(sp)
   19204:	00a13027          	fsd	fa0,0(sp)
   19208:	00c13427          	fsd	fa2,8(sp)
   1920c:	bd1ff0ef          	jal	18ddc <__unpack_d>
   19210:	02810593          	addi	a1,sp,40
   19214:	00810513          	addi	a0,sp,8
   19218:	bc5ff0ef          	jal	18ddc <__unpack_d>
   1921c:	01012603          	lw	a2,16(sp)
   19220:	00100793          	li	a5,1
   19224:	0ec7fa63          	bleu	a2,a5,19318 <__divdf3+0x124>
   19228:	02812683          	lw	a3,40(sp)
   1922c:	14d7fe63          	bleu	a3,a5,19388 <__divdf3+0x194>
   19230:	01412583          	lw	a1,20(sp)
   19234:	02c12703          	lw	a4,44(sp)
   19238:	ffe60793          	addi	a5,a2,-2
   1923c:	ffd7f793          	andi	a5,a5,-3
   19240:	00e5c733          	xor	a4,a1,a4
   19244:	00e12a23          	sw	a4,20(sp)
   19248:	0e078263          	beqz	a5,1932c <__divdf3+0x138>
   1924c:	00400793          	li	a5,4
   19250:	0ef68663          	beq	a3,a5,1933c <__divdf3+0x148>
   19254:	00200713          	li	a4,2
   19258:	12e68263          	beq	a3,a4,1937c <__divdf3+0x188>
   1925c:	01812703          	lw	a4,24(sp)
   19260:	03012603          	lw	a2,48(sp)
   19264:	02412783          	lw	a5,36(sp)
   19268:	03c12883          	lw	a7,60(sp)
   1926c:	40c70633          	sub	a2,a4,a2
   19270:	00c12c23          	sw	a2,24(sp)
   19274:	02012683          	lw	a3,32(sp)
   19278:	03812f03          	lw	t5,56(sp)
   1927c:	0117e663          	bltu	a5,a7,19288 <__divdf3+0x94>
   19280:	02f89063          	bne	a7,a5,192a0 <__divdf3+0xac>
   19284:	01e6fe63          	bleu	t5,a3,192a0 <__divdf3+0xac>
   19288:	01f6d593          	srli	a1,a3,0x1f
   1928c:	00179713          	slli	a4,a5,0x1
   19290:	fff60613          	addi	a2,a2,-1
   19294:	00e5e7b3          	or	a5,a1,a4
   19298:	00169693          	slli	a3,a3,0x1
   1929c:	00c12c23          	sw	a2,24(sp)
   192a0:	03d00513          	li	a0,61
   192a4:	00000393          	li	t2,0
   192a8:	00000e13          	li	t3,0
   192ac:	00000813          	li	a6,0
   192b0:	100005b7          	lui	a1,0x10000
   192b4:	01f59313          	slli	t1,a1,0x1f
   192b8:	00185293          	srli	t0,a6,0x1
   192bc:	fff50513          	addi	a0,a0,-1
   192c0:	0317e463          	bltu	a5,a7,192e8 <__divdf3+0xf4>
   192c4:	41e68733          	sub	a4,a3,t5
   192c8:	00e6b633          	sltu	a2,a3,a4
   192cc:	41178eb3          	sub	t4,a5,a7
   192d0:	00f89463          	bne	a7,a5,192d8 <__divdf3+0xe4>
   192d4:	01e6ea63          	bltu	a3,t5,192e8 <__divdf3+0xf4>
   192d8:	00070693          	mv	a3,a4
   192dc:	40ce87b3          	sub	a5,t4,a2
   192e0:	0103e3b3          	or	t2,t2,a6
   192e4:	00be6e33          	or	t3,t3,a1
   192e8:	01f6d613          	srli	a2,a3,0x1f
   192ec:	00179713          	slli	a4,a5,0x1
   192f0:	00536833          	or	a6,t1,t0
   192f4:	0015d593          	srli	a1,a1,0x1
   192f8:	00e667b3          	or	a5,a2,a4
   192fc:	00169693          	slli	a3,a3,0x1
   19300:	fa051ae3          	bnez	a0,192b4 <__divdf3+0xc0>
   19304:	0ff3f713          	andi	a4,t2,255
   19308:	08000613          	li	a2,128
   1930c:	04c70663          	beq	a4,a2,19358 <__divdf3+0x164>
   19310:	02712023          	sw	t2,32(sp)
   19314:	03c12223          	sw	t3,36(sp)
   19318:	01010513          	addi	a0,sp,16
   1931c:	869ff0ef          	jal	18b84 <__pack_d>
   19320:	04c12083          	lw	ra,76(sp)
   19324:	05010113          	addi	sp,sp,80
   19328:	00008067          	ret
   1932c:	fed616e3          	bne	a2,a3,19318 <__divdf3+0x124>
   19330:	0001b537          	lui	a0,0x1b
   19334:	96050513          	addi	a0,a0,-1696 # 1a960 <__thenan_df>
   19338:	fe5ff06f          	j	1931c <__divdf3+0x128>
   1933c:	00000713          	li	a4,0
   19340:	00000793          	li	a5,0
   19344:	02e12023          	sw	a4,32(sp)
   19348:	02f12223          	sw	a5,36(sp)
   1934c:	00012c23          	sw	zero,24(sp)
   19350:	01010513          	addi	a0,sp,16
   19354:	fc9ff06f          	j	1931c <__divdf3+0x128>
   19358:	1003f713          	andi	a4,t2,256
   1935c:	fa071ae3          	bnez	a4,19310 <__divdf3+0x11c>
   19360:	00f6e7b3          	or	a5,a3,a5
   19364:	fa0786e3          	beqz	a5,19310 <__divdf3+0x11c>
   19368:	00c387b3          	add	a5,t2,a2
   1936c:	0077b3b3          	sltu	t2,a5,t2
   19370:	01c38e33          	add	t3,t2,t3
   19374:	f007f393          	andi	t2,a5,-256
   19378:	f99ff06f          	j	19310 <__divdf3+0x11c>
   1937c:	00f12823          	sw	a5,16(sp)
   19380:	01010513          	addi	a0,sp,16
   19384:	f99ff06f          	j	1931c <__divdf3+0x128>
   19388:	02810513          	addi	a0,sp,40
   1938c:	f91ff06f          	j	1931c <__divdf3+0x128>

00019390 <__fpcmp_parts_d>:
   19390:	00052703          	lw	a4,0(a0)
   19394:	00100793          	li	a5,1
   19398:	00050613          	mv	a2,a0
   1939c:	08e7f263          	bleu	a4,a5,19420 <__fpcmp_parts_d+0x90>
   193a0:	0005a683          	lw	a3,0(a1) # 10000000 <_gp+0xffe3270>
   193a4:	00078513          	mv	a0,a5
   193a8:	04d7f263          	bleu	a3,a5,193ec <__fpcmp_parts_d+0x5c>
   193ac:	00400793          	li	a5,4
   193b0:	04f70c63          	beq	a4,a5,19408 <__fpcmp_parts_d+0x78>
   193b4:	04f68063          	beq	a3,a5,193f4 <__fpcmp_parts_d+0x64>
   193b8:	00200793          	li	a5,2
   193bc:	02f70a63          	beq	a4,a5,193f0 <__fpcmp_parts_d+0x60>
   193c0:	04f68663          	beq	a3,a5,1940c <__fpcmp_parts_d+0x7c>
   193c4:	00462783          	lw	a5,4(a2)
   193c8:	0045a703          	lw	a4,4(a1)
   193cc:	04e78e63          	beq	a5,a4,19428 <__fpcmp_parts_d+0x98>
   193d0:	00f03533          	snez	a0,a5
   193d4:	40a00533          	neg	a0,a0
   193d8:	00156513          	ori	a0,a0,1
   193dc:	00008067          	ret
   193e0:	00e69463          	bne	a3,a4,193e8 <__fpcmp_parts_d+0x58>
   193e4:	06b66a63          	bltu	a2,a1,19458 <__fpcmp_parts_d+0xc8>
   193e8:	00000513          	li	a0,0
   193ec:	00008067          	ret
   193f0:	fee68ce3          	beq	a3,a4,193e8 <__fpcmp_parts_d+0x58>
   193f4:	0045a503          	lw	a0,4(a1)
   193f8:	00153513          	seqz	a0,a0
   193fc:	40a00533          	neg	a0,a0
   19400:	00156513          	ori	a0,a0,1
   19404:	00008067          	ret
   19408:	06e68063          	beq	a3,a4,19468 <__fpcmp_parts_d+0xd8>
   1940c:	00462503          	lw	a0,4(a2)
   19410:	00a03533          	snez	a0,a0
   19414:	40a00533          	neg	a0,a0
   19418:	00156513          	ori	a0,a0,1
   1941c:	00008067          	ret
   19420:	00078513          	mv	a0,a5
   19424:	00008067          	ret
   19428:	00862683          	lw	a3,8(a2)
   1942c:	0085a703          	lw	a4,8(a1)
   19430:	fad740e3          	blt	a4,a3,193d0 <__fpcmp_parts_d+0x40>
   19434:	02e6c263          	blt	a3,a4,19458 <__fpcmp_parts_d+0xc8>
   19438:	01462703          	lw	a4,20(a2)
   1943c:	0145a683          	lw	a3,20(a1)
   19440:	01062603          	lw	a2,16(a2)
   19444:	0105a583          	lw	a1,16(a1)
   19448:	f8e6e4e3          	bltu	a3,a4,193d0 <__fpcmp_parts_d+0x40>
   1944c:	00d71463          	bne	a4,a3,19454 <__fpcmp_parts_d+0xc4>
   19450:	f8c5e0e3          	bltu	a1,a2,193d0 <__fpcmp_parts_d+0x40>
   19454:	f8d776e3          	bleu	a3,a4,193e0 <__fpcmp_parts_d+0x50>
   19458:	0017b513          	seqz	a0,a5
   1945c:	40a00533          	neg	a0,a0
   19460:	00156513          	ori	a0,a0,1
   19464:	00008067          	ret
   19468:	0045a783          	lw	a5,4(a1)
   1946c:	00462503          	lw	a0,4(a2)
   19470:	40a78533          	sub	a0,a5,a0
   19474:	00008067          	ret

00019478 <__cmpdf2>:
   19478:	fb010113          	addi	sp,sp,-80
   1947c:	01010593          	addi	a1,sp,16
   19480:	00010513          	mv	a0,sp
   19484:	04112623          	sw	ra,76(sp)
   19488:	00a13027          	fsd	fa0,0(sp)
   1948c:	00c13427          	fsd	fa2,8(sp)
   19490:	94dff0ef          	jal	18ddc <__unpack_d>
   19494:	02810593          	addi	a1,sp,40
   19498:	00810513          	addi	a0,sp,8
   1949c:	941ff0ef          	jal	18ddc <__unpack_d>
   194a0:	02810593          	addi	a1,sp,40
   194a4:	01010513          	addi	a0,sp,16
   194a8:	ee9ff0ef          	jal	19390 <__fpcmp_parts_d>
   194ac:	04c12083          	lw	ra,76(sp)
   194b0:	05010113          	addi	sp,sp,80
   194b4:	00008067          	ret

000194b8 <__gedf2>:
   194b8:	fb010113          	addi	sp,sp,-80
   194bc:	01010593          	addi	a1,sp,16
   194c0:	00010513          	mv	a0,sp
   194c4:	04112623          	sw	ra,76(sp)
   194c8:	00a13027          	fsd	fa0,0(sp)
   194cc:	00c13427          	fsd	fa2,8(sp)
   194d0:	90dff0ef          	jal	18ddc <__unpack_d>
   194d4:	00810513          	addi	a0,sp,8
   194d8:	02810593          	addi	a1,sp,40
   194dc:	901ff0ef          	jal	18ddc <__unpack_d>
   194e0:	01012703          	lw	a4,16(sp)
   194e4:	00100793          	li	a5,1
   194e8:	fff00513          	li	a0,-1
   194ec:	00e7fc63          	bleu	a4,a5,19504 <__gedf2+0x4c>
   194f0:	02812703          	lw	a4,40(sp)
   194f4:	00e7f863          	bleu	a4,a5,19504 <__gedf2+0x4c>
   194f8:	02810593          	addi	a1,sp,40
   194fc:	01010513          	addi	a0,sp,16
   19500:	e91ff0ef          	jal	19390 <__fpcmp_parts_d>
   19504:	04c12083          	lw	ra,76(sp)
   19508:	05010113          	addi	sp,sp,80
   1950c:	00008067          	ret

00019510 <__gtdf2>:
   19510:	fa9ff06f          	j	194b8 <__gedf2>

00019514 <__ledf2>:
   19514:	fb010113          	addi	sp,sp,-80
   19518:	01010593          	addi	a1,sp,16
   1951c:	00010513          	mv	a0,sp
   19520:	04112623          	sw	ra,76(sp)
   19524:	00a13027          	fsd	fa0,0(sp)
   19528:	00c13427          	fsd	fa2,8(sp)
   1952c:	8b1ff0ef          	jal	18ddc <__unpack_d>
   19530:	00810513          	addi	a0,sp,8
   19534:	02810593          	addi	a1,sp,40
   19538:	8a5ff0ef          	jal	18ddc <__unpack_d>
   1953c:	01012783          	lw	a5,16(sp)
   19540:	00100513          	li	a0,1
   19544:	00f57c63          	bleu	a5,a0,1955c <__ledf2+0x48>
   19548:	02812783          	lw	a5,40(sp)
   1954c:	00f57863          	bleu	a5,a0,1955c <__ledf2+0x48>
   19550:	02810593          	addi	a1,sp,40
   19554:	01010513          	addi	a0,sp,16
   19558:	e39ff0ef          	jal	19390 <__fpcmp_parts_d>
   1955c:	04c12083          	lw	ra,76(sp)
   19560:	05010113          	addi	sp,sp,80
   19564:	00008067          	ret

00019568 <__ltdf2>:
   19568:	fadff06f          	j	19514 <__ledf2>

0001956c <__nedf2>:
   1956c:	fa9ff06f          	j	19514 <__ledf2>

00019570 <__eqdf2>:
   19570:	fa5ff06f          	j	19514 <__ledf2>

00019574 <__unorddf2>:
   19574:	fb010113          	addi	sp,sp,-80
   19578:	01010593          	addi	a1,sp,16
   1957c:	00010513          	mv	a0,sp
   19580:	04112623          	sw	ra,76(sp)
   19584:	00a13027          	fsd	fa0,0(sp)
   19588:	00c13427          	fsd	fa2,8(sp)
   1958c:	851ff0ef          	jal	18ddc <__unpack_d>
   19590:	00810513          	addi	a0,sp,8
   19594:	02810593          	addi	a1,sp,40
   19598:	845ff0ef          	jal	18ddc <__unpack_d>
   1959c:	01012783          	lw	a5,16(sp)
   195a0:	00100513          	li	a0,1
   195a4:	00f57663          	bleu	a5,a0,195b0 <__unorddf2+0x3c>
   195a8:	02812503          	lw	a0,40(sp)
   195ac:	00253513          	sltiu	a0,a0,2
   195b0:	04c12083          	lw	ra,76(sp)
   195b4:	05010113          	addi	sp,sp,80
   195b8:	00008067          	ret

000195bc <__floatsidf>:
   195bc:	fd010113          	addi	sp,sp,-48
   195c0:	01f55793          	srli	a5,a0,0x1f
   195c4:	00300713          	li	a4,3
   195c8:	02112623          	sw	ra,44(sp)
   195cc:	02812423          	sw	s0,40(sp)
   195d0:	00e12423          	sw	a4,8(sp)
   195d4:	00f12623          	sw	a5,12(sp)
   195d8:	02051263          	bnez	a0,195fc <__floatsidf+0x40>
   195dc:	00200793          	li	a5,2
   195e0:	00f12423          	sw	a5,8(sp)
   195e4:	00810513          	addi	a0,sp,8
   195e8:	d9cff0ef          	jal	18b84 <__pack_d>
   195ec:	02c12083          	lw	ra,44(sp)
   195f0:	02812403          	lw	s0,40(sp)
   195f4:	03010113          	addi	sp,sp,48
   195f8:	00008067          	ret
   195fc:	02054c63          	bltz	a0,19634 <__floatsidf+0x78>
   19600:	00050413          	mv	s0,a0
   19604:	00040513          	mv	a0,s0
   19608:	26c000ef          	jal	19874 <__clzsi2>
   1960c:	01d50513          	addi	a0,a0,29
   19610:	02057793          	andi	a5,a0,32
   19614:	04078063          	beqz	a5,19654 <__floatsidf+0x98>
   19618:	00a41433          	sll	s0,s0,a0
   1961c:	00812e23          	sw	s0,28(sp)
   19620:	00012c23          	sw	zero,24(sp)
   19624:	03c00793          	li	a5,60
   19628:	40a78533          	sub	a0,a5,a0
   1962c:	00a12823          	sw	a0,16(sp)
   19630:	fb5ff06f          	j	195e4 <__floatsidf+0x28>
   19634:	800007b7          	lui	a5,0x80000
   19638:	02f50c63          	beq	a0,a5,19670 <__floatsidf+0xb4>
   1963c:	40a00433          	neg	s0,a0
   19640:	00040513          	mv	a0,s0
   19644:	230000ef          	jal	19874 <__clzsi2>
   19648:	01d50513          	addi	a0,a0,29
   1964c:	02057793          	andi	a5,a0,32
   19650:	fc0794e3          	bnez	a5,19618 <__floatsidf+0x5c>
   19654:	00145793          	srli	a5,s0,0x1
   19658:	fff54713          	not	a4,a0
   1965c:	00e7d7b3          	srl	a5,a5,a4
   19660:	00a41433          	sll	s0,s0,a0
   19664:	00f12e23          	sw	a5,28(sp)
   19668:	00812c23          	sw	s0,24(sp)
   1966c:	fb9ff06f          	j	19624 <__floatsidf+0x68>
   19670:	8681b507          	fld	fa0,-1944(gp) # 1c5f8 <__wctomb+0x50>
   19674:	f79ff06f          	j	195ec <__floatsidf+0x30>

00019678 <__floatunsidf>:
   19678:	fd010113          	addi	sp,sp,-48
   1967c:	02112623          	sw	ra,44(sp)
   19680:	02812423          	sw	s0,40(sp)
   19684:	00012623          	sw	zero,12(sp)
   19688:	06050663          	beqz	a0,196f4 <__floatunsidf+0x7c>
   1968c:	00300793          	li	a5,3
   19690:	00f12423          	sw	a5,8(sp)
   19694:	00050413          	mv	s0,a0
   19698:	1dc000ef          	jal	19874 <__clzsi2>
   1969c:	01d50513          	addi	a0,a0,29
   196a0:	02057793          	andi	a5,a0,32
   196a4:	02078a63          	beqz	a5,196d8 <__floatunsidf+0x60>
   196a8:	00a41433          	sll	s0,s0,a0
   196ac:	00812e23          	sw	s0,28(sp)
   196b0:	00012c23          	sw	zero,24(sp)
   196b4:	03c00793          	li	a5,60
   196b8:	40a78533          	sub	a0,a5,a0
   196bc:	00a12823          	sw	a0,16(sp)
   196c0:	00810513          	addi	a0,sp,8
   196c4:	cc0ff0ef          	jal	18b84 <__pack_d>
   196c8:	02c12083          	lw	ra,44(sp)
   196cc:	02812403          	lw	s0,40(sp)
   196d0:	03010113          	addi	sp,sp,48
   196d4:	00008067          	ret
   196d8:	00145793          	srli	a5,s0,0x1
   196dc:	fff54713          	not	a4,a0
   196e0:	00e7d7b3          	srl	a5,a5,a4
   196e4:	00a41433          	sll	s0,s0,a0
   196e8:	00f12e23          	sw	a5,28(sp)
   196ec:	00812c23          	sw	s0,24(sp)
   196f0:	fc5ff06f          	j	196b4 <__floatunsidf+0x3c>
   196f4:	00200793          	li	a5,2
   196f8:	00f12423          	sw	a5,8(sp)
   196fc:	fc5ff06f          	j	196c0 <__floatunsidf+0x48>

00019700 <__fixdfsi>:
   19700:	fd010113          	addi	sp,sp,-48
   19704:	00810593          	addi	a1,sp,8
   19708:	00010513          	mv	a0,sp
   1970c:	02112623          	sw	ra,44(sp)
   19710:	00a13027          	fsd	fa0,0(sp)
   19714:	ec8ff0ef          	jal	18ddc <__unpack_d>
   19718:	00812783          	lw	a5,8(sp)
   1971c:	00200713          	li	a4,2
   19720:	06f77463          	bleu	a5,a4,19788 <__fixdfsi+0x88>
   19724:	00400713          	li	a4,4
   19728:	00e78a63          	beq	a5,a4,1973c <__fixdfsi+0x3c>
   1972c:	01012503          	lw	a0,16(sp)
   19730:	04054c63          	bltz	a0,19788 <__fixdfsi+0x88>
   19734:	01e00793          	li	a5,30
   19738:	02a7d063          	ble	a0,a5,19758 <__fixdfsi+0x58>
   1973c:	00c12783          	lw	a5,12(sp)
   19740:	80000537          	lui	a0,0x80000
   19744:	00079463          	bnez	a5,1974c <__fixdfsi+0x4c>
   19748:	fff54513          	not	a0,a0
   1974c:	02c12083          	lw	ra,44(sp)
   19750:	03010113          	addi	sp,sp,48
   19754:	00008067          	ret
   19758:	03c00793          	li	a5,60
   1975c:	40a78533          	sub	a0,a5,a0
   19760:	02057793          	andi	a5,a0,32
   19764:	02078a63          	beqz	a5,19798 <__fixdfsi+0x98>
   19768:	01c12783          	lw	a5,28(sp)
   1976c:	00a7d533          	srl	a0,a5,a0
   19770:	00c12783          	lw	a5,12(sp)
   19774:	fc078ce3          	beqz	a5,1974c <__fixdfsi+0x4c>
   19778:	02c12083          	lw	ra,44(sp)
   1977c:	40a00533          	neg	a0,a0
   19780:	03010113          	addi	sp,sp,48
   19784:	00008067          	ret
   19788:	02c12083          	lw	ra,44(sp)
   1978c:	00000513          	li	a0,0
   19790:	03010113          	addi	sp,sp,48
   19794:	00008067          	ret
   19798:	01c12783          	lw	a5,28(sp)
   1979c:	fff54713          	not	a4,a0
   197a0:	00179793          	slli	a5,a5,0x1
   197a4:	00e797b3          	sll	a5,a5,a4
   197a8:	01812703          	lw	a4,24(sp)
   197ac:	00a75533          	srl	a0,a4,a0
   197b0:	00a7e533          	or	a0,a5,a0
   197b4:	fbdff06f          	j	19770 <__fixdfsi+0x70>

000197b8 <__negdf2>:
   197b8:	fd010113          	addi	sp,sp,-48
   197bc:	00010513          	mv	a0,sp
   197c0:	00810593          	addi	a1,sp,8
   197c4:	02112623          	sw	ra,44(sp)
   197c8:	00a13027          	fsd	fa0,0(sp)
   197cc:	e10ff0ef          	jal	18ddc <__unpack_d>
   197d0:	00c12783          	lw	a5,12(sp)
   197d4:	00810513          	addi	a0,sp,8
   197d8:	0017b793          	seqz	a5,a5
   197dc:	00f12623          	sw	a5,12(sp)
   197e0:	ba4ff0ef          	jal	18b84 <__pack_d>
   197e4:	02c12083          	lw	ra,44(sp)
   197e8:	03010113          	addi	sp,sp,48
   197ec:	00008067          	ret

000197f0 <__make_dp>:
   197f0:	fd010113          	addi	sp,sp,-48
   197f4:	00a12423          	sw	a0,8(sp)
   197f8:	00810513          	addi	a0,sp,8
   197fc:	02112623          	sw	ra,44(sp)
   19800:	00b12623          	sw	a1,12(sp)
   19804:	00c12823          	sw	a2,16(sp)
   19808:	00e12c23          	sw	a4,24(sp)
   1980c:	00f12e23          	sw	a5,28(sp)
   19810:	b74ff0ef          	jal	18b84 <__pack_d>
   19814:	02c12083          	lw	ra,44(sp)
   19818:	03010113          	addi	sp,sp,48
   1981c:	00008067          	ret

00019820 <__truncdfsf2>:
   19820:	fd010113          	addi	sp,sp,-48
   19824:	00810593          	addi	a1,sp,8
   19828:	00010513          	mv	a0,sp
   1982c:	02112623          	sw	ra,44(sp)
   19830:	00a13027          	fsd	fa0,0(sp)
   19834:	da8ff0ef          	jal	18ddc <__unpack_d>
   19838:	01812703          	lw	a4,24(sp)
   1983c:	01c12683          	lw	a3,28(sp)
   19840:	01e75793          	srli	a5,a4,0x1e
   19844:	00269693          	slli	a3,a3,0x2
   19848:	00f6e6b3          	or	a3,a3,a5
   1984c:	00271793          	slli	a5,a4,0x2
   19850:	00078463          	beqz	a5,19858 <__truncdfsf2+0x38>
   19854:	0016e693          	ori	a3,a3,1
   19858:	01012603          	lw	a2,16(sp)
   1985c:	00c12583          	lw	a1,12(sp)
   19860:	00812503          	lw	a0,8(sp)
   19864:	405000ef          	jal	1a468 <__make_fp>
   19868:	02c12083          	lw	ra,44(sp)
   1986c:	03010113          	addi	sp,sp,48
   19870:	00008067          	ret

00019874 <__clzsi2>:
   19874:	000107b7          	lui	a5,0x10
   19878:	02f57c63          	bleu	a5,a0,198b0 <__clzsi2+0x3c>
   1987c:	0ff00693          	li	a3,255
   19880:	01800713          	li	a4,24
   19884:	00800793          	li	a5,8
   19888:	00a6e663          	bltu	a3,a0,19894 <__clzsi2+0x20>
   1988c:	02000713          	li	a4,32
   19890:	00000793          	li	a5,0
   19894:	00f55533          	srl	a0,a0,a5
   19898:	0001b7b7          	lui	a5,0x1b
   1989c:	98878793          	addi	a5,a5,-1656 # 1a988 <__clz_tab>
   198a0:	00f507b3          	add	a5,a0,a5
   198a4:	0007c503          	lbu	a0,0(a5)
   198a8:	40a70533          	sub	a0,a4,a0
   198ac:	00008067          	ret
   198b0:	010006b7          	lui	a3,0x1000
   198b4:	00800713          	li	a4,8
   198b8:	01800793          	li	a5,24
   198bc:	fcd57ce3          	bleu	a3,a0,19894 <__clzsi2+0x20>
   198c0:	01000713          	li	a4,16
   198c4:	00070793          	mv	a5,a4
   198c8:	00f55533          	srl	a0,a0,a5
   198cc:	0001b7b7          	lui	a5,0x1b
   198d0:	98878793          	addi	a5,a5,-1656 # 1a988 <__clz_tab>
   198d4:	00f507b3          	add	a5,a0,a5
   198d8:	0007c503          	lbu	a0,0(a5)
   198dc:	40a70533          	sub	a0,a4,a0
   198e0:	00008067          	ret

000198e4 <_fpadd_parts>:
   198e4:	00052783          	lw	a5,0(a0) # 80000000 <_gp+0x7ffe3270>
   198e8:	00100713          	li	a4,1
   198ec:	0ef77463          	bleu	a5,a4,199d4 <_fpadd_parts+0xf0>
   198f0:	0005a683          	lw	a3,0(a1)
   198f4:	0cd77e63          	bleu	a3,a4,199d0 <_fpadd_parts+0xec>
   198f8:	00400813          	li	a6,4
   198fc:	15078c63          	beq	a5,a6,19a54 <_fpadd_parts+0x170>
   19900:	0d068863          	beq	a3,a6,199d0 <_fpadd_parts+0xec>
   19904:	00200813          	li	a6,2
   19908:	11068663          	beq	a3,a6,19a14 <_fpadd_parts+0x130>
   1990c:	0d078263          	beq	a5,a6,199d0 <_fpadd_parts+0xec>
   19910:	00852303          	lw	t1,8(a0)
   19914:	0085a783          	lw	a5,8(a1)
   19918:	01f00693          	li	a3,31
   1991c:	00c52383          	lw	t2,12(a0)
   19920:	40f30833          	sub	a6,t1,a5
   19924:	41f85293          	srai	t0,a6,0x1f
   19928:	0102c8b3          	xor	a7,t0,a6
   1992c:	405888b3          	sub	a7,a7,t0
   19930:	00c5a283          	lw	t0,12(a1)
   19934:	0b16d263          	ble	a7,a3,199d8 <_fpadd_parts+0xf4>
   19938:	1067ca63          	blt	a5,t1,19a4c <_fpadd_parts+0x168>
   1993c:	00078313          	mv	t1,a5
   19940:	00000393          	li	t2,0
   19944:	00452703          	lw	a4,4(a0)
   19948:	0045a783          	lw	a5,4(a1)
   1994c:	0af70a63          	beq	a4,a5,19a00 <_fpadd_parts+0x11c>
   19950:	405387b3          	sub	a5,t2,t0
   19954:	00070463          	beqz	a4,1995c <_fpadd_parts+0x78>
   19958:	407287b3          	sub	a5,t0,t2
   1995c:	1007ca63          	bltz	a5,19a70 <_fpadd_parts+0x18c>
   19960:	00062223          	sw	zero,4(a2)
   19964:	00662423          	sw	t1,8(a2)
   19968:	00f62623          	sw	a5,12(a2)
   1996c:	400005b7          	lui	a1,0x40000
   19970:	fff78713          	addi	a4,a5,-1
   19974:	ffe58593          	addi	a1,a1,-2 # 3ffffffe <_gp+0x3ffe326e>
   19978:	02e5e463          	bltu	a1,a4,199a0 <_fpadd_parts+0xbc>
   1997c:	00862703          	lw	a4,8(a2)
   19980:	fff70713          	addi	a4,a4,-1 # 7fffffff <_gp+0x7ffe326f>
   19984:	00179793          	slli	a5,a5,0x1
   19988:	fff78693          	addi	a3,a5,-1
   1998c:	00070513          	mv	a0,a4
   19990:	fff70713          	addi	a4,a4,-1
   19994:	fed5f8e3          	bleu	a3,a1,19984 <_fpadd_parts+0xa0>
   19998:	00f62623          	sw	a5,12(a2)
   1999c:	00a62423          	sw	a0,8(a2)
   199a0:	00300713          	li	a4,3
   199a4:	00e62023          	sw	a4,0(a2)
   199a8:	00060513          	mv	a0,a2
   199ac:	0207d463          	bgez	a5,199d4 <_fpadd_parts+0xf0>
   199b0:	00862703          	lw	a4,8(a2)
   199b4:	0017d693          	srli	a3,a5,0x1
   199b8:	0017f793          	andi	a5,a5,1
   199bc:	00f6e7b3          	or	a5,a3,a5
   199c0:	00170713          	addi	a4,a4,1
   199c4:	00f62623          	sw	a5,12(a2)
   199c8:	00e62423          	sw	a4,8(a2)
   199cc:	00008067          	ret
   199d0:	00058513          	mv	a0,a1
   199d4:	00008067          	ret
   199d8:	0b005863          	blez	a6,19a88 <_fpadd_parts+0x1a4>
   199dc:	011716b3          	sll	a3,a4,a7
   199e0:	fff68693          	addi	a3,a3,-1 # ffffff <_gp+0xfe326f>
   199e4:	0056f6b3          	and	a3,a3,t0
   199e8:	00d03733          	snez	a4,a3
   199ec:	0112d2b3          	srl	t0,t0,a7
   199f0:	00e2e2b3          	or	t0,t0,a4
   199f4:	0045a783          	lw	a5,4(a1)
   199f8:	00452703          	lw	a4,4(a0)
   199fc:	f4f71ae3          	bne	a4,a5,19950 <_fpadd_parts+0x6c>
   19a00:	005387b3          	add	a5,t2,t0
   19a04:	00e62223          	sw	a4,4(a2)
   19a08:	00662423          	sw	t1,8(a2)
   19a0c:	00f62623          	sw	a5,12(a2)
   19a10:	f91ff06f          	j	199a0 <_fpadd_parts+0xbc>
   19a14:	fcd790e3          	bne	a5,a3,199d4 <_fpadd_parts+0xf0>
   19a18:	00f62023          	sw	a5,0(a2)
   19a1c:	00452783          	lw	a5,4(a0)
   19a20:	00f62223          	sw	a5,4(a2)
   19a24:	00852703          	lw	a4,8(a0)
   19a28:	00452683          	lw	a3,4(a0)
   19a2c:	0045a783          	lw	a5,4(a1)
   19a30:	00e62423          	sw	a4,8(a2)
   19a34:	00c52703          	lw	a4,12(a0)
   19a38:	00f6f7b3          	and	a5,a3,a5
   19a3c:	00f62223          	sw	a5,4(a2)
   19a40:	00e62623          	sw	a4,12(a2)
   19a44:	00060513          	mv	a0,a2
   19a48:	00008067          	ret
   19a4c:	00000293          	li	t0,0
   19a50:	ef5ff06f          	j	19944 <_fpadd_parts+0x60>
   19a54:	f8f690e3          	bne	a3,a5,199d4 <_fpadd_parts+0xf0>
   19a58:	00452703          	lw	a4,4(a0)
   19a5c:	0045a783          	lw	a5,4(a1)
   19a60:	f6f70ae3          	beq	a4,a5,199d4 <_fpadd_parts+0xf0>
   19a64:	0001b537          	lui	a0,0x1b
   19a68:	97850513          	addi	a0,a0,-1672 # 1a978 <__thenan_sf>
   19a6c:	00008067          	ret
   19a70:	40f007b3          	neg	a5,a5
   19a74:	00100713          	li	a4,1
   19a78:	00e62223          	sw	a4,4(a2)
   19a7c:	00662423          	sw	t1,8(a2)
   19a80:	00f62623          	sw	a5,12(a2)
   19a84:	ee9ff06f          	j	1996c <_fpadd_parts+0x88>
   19a88:	ea080ee3          	beqz	a6,19944 <_fpadd_parts+0x60>
   19a8c:	01171833          	sll	a6,a4,a7
   19a90:	fff80813          	addi	a6,a6,-1
   19a94:	00787833          	and	a6,a6,t2
   19a98:	0113d7b3          	srl	a5,t2,a7
   19a9c:	010036b3          	snez	a3,a6
   19aa0:	01130333          	add	t1,t1,a7
   19aa4:	00d7e3b3          	or	t2,a5,a3
   19aa8:	e9dff06f          	j	19944 <_fpadd_parts+0x60>

00019aac <__pack_f>:
   19aac:	00052703          	lw	a4,0(a0)
   19ab0:	00100613          	li	a2,1
   19ab4:	00c52683          	lw	a3,12(a0)
   19ab8:	00452783          	lw	a5,4(a0)
   19abc:	08e67c63          	bleu	a4,a2,19b54 <__pack_f+0xa8>
   19ac0:	00400593          	li	a1,4
   19ac4:	08b70263          	beq	a4,a1,19b48 <__pack_f+0x9c>
   19ac8:	00200593          	li	a1,2
   19acc:	04b70263          	beq	a4,a1,19b10 <__pack_f+0x64>
   19ad0:	04068063          	beqz	a3,19b10 <__pack_f+0x64>
   19ad4:	00852703          	lw	a4,8(a0)
   19ad8:	f8200593          	li	a1,-126
   19adc:	0ab74e63          	blt	a4,a1,19b98 <__pack_f+0xec>
   19ae0:	07f00613          	li	a2,127
   19ae4:	06e64263          	blt	a2,a4,19b48 <__pack_f+0x9c>
   19ae8:	00c6f633          	and	a2,a3,a2
   19aec:	04000593          	li	a1,64
   19af0:	08b60663          	beq	a2,a1,19b7c <__pack_f+0xd0>
   19af4:	03f68693          	addi	a3,a3,63
   19af8:	0806ca63          	bltz	a3,19b8c <__pack_f+0xe0>
   19afc:	07f70713          	addi	a4,a4,127
   19b00:	00269693          	slli	a3,a3,0x2
   19b04:	0096d693          	srli	a3,a3,0x9
   19b08:	0ff77713          	andi	a4,a4,255
   19b0c:	00c0006f          	j	19b18 <__pack_f+0x6c>
   19b10:	00000713          	li	a4,0
   19b14:	00000693          	li	a3,0
   19b18:	00800637          	lui	a2,0x800
   19b1c:	fff60613          	addi	a2,a2,-1 # 7fffff <_gp+0x7e326f>
   19b20:	00c6f6b3          	and	a3,a3,a2
   19b24:	80800637          	lui	a2,0x80800
   19b28:	fff60613          	addi	a2,a2,-1 # 807fffff <_gp+0x807e326f>
   19b2c:	00c6f6b3          	and	a3,a3,a2
   19b30:	01771713          	slli	a4,a4,0x17
   19b34:	01f79613          	slli	a2,a5,0x1f
   19b38:	00e6e7b3          	or	a5,a3,a4
   19b3c:	00c7e7b3          	or	a5,a5,a2
   19b40:	f0078553          	fmv.s.x	fa0,a5
   19b44:	00008067          	ret
   19b48:	0ff00713          	li	a4,255
   19b4c:	00000693          	li	a3,0
   19b50:	fc9ff06f          	j	19b18 <__pack_f+0x6c>
   19b54:	00400637          	lui	a2,0x400
   19b58:	0076d713          	srli	a4,a3,0x7
   19b5c:	fff60693          	addi	a3,a2,-1 # 3fffff <_gp+0x3e326f>
   19b60:	00d776b3          	and	a3,a4,a3
   19b64:	00800737          	lui	a4,0x800
   19b68:	fff70713          	addi	a4,a4,-1 # 7fffff <_gp+0x7e326f>
   19b6c:	00c6e6b3          	or	a3,a3,a2
   19b70:	00e6f6b3          	and	a3,a3,a4
   19b74:	0ff00713          	li	a4,255
   19b78:	fa1ff06f          	j	19b18 <__pack_f+0x6c>
   19b7c:	0806f613          	andi	a2,a3,128
   19b80:	f6060ce3          	beqz	a2,19af8 <__pack_f+0x4c>
   19b84:	00b686b3          	add	a3,a3,a1
   19b88:	f71ff06f          	j	19af8 <__pack_f+0x4c>
   19b8c:	0016d693          	srli	a3,a3,0x1
   19b90:	08070713          	addi	a4,a4,128
   19b94:	f6dff06f          	j	19b00 <__pack_f+0x54>
   19b98:	40e58733          	sub	a4,a1,a4
   19b9c:	01900593          	li	a1,25
   19ba0:	f6e5c8e3          	blt	a1,a4,19b10 <__pack_f+0x64>
   19ba4:	00e61633          	sll	a2,a2,a4
   19ba8:	fff60613          	addi	a2,a2,-1
   19bac:	00d67633          	and	a2,a2,a3
   19bb0:	00e6d6b3          	srl	a3,a3,a4
   19bb4:	00c03733          	snez	a4,a2
   19bb8:	00e6e6b3          	or	a3,a3,a4
   19bbc:	07f6f613          	andi	a2,a3,127
   19bc0:	04000713          	li	a4,64
   19bc4:	02e61263          	bne	a2,a4,19be8 <__pack_f+0x13c>
   19bc8:	0806f713          	andi	a4,a3,128
   19bcc:	02071c63          	bnez	a4,19c04 <__pack_f+0x158>
   19bd0:	40000737          	lui	a4,0x40000
   19bd4:	00e6b733          	sltu	a4,a3,a4
   19bd8:	00269613          	slli	a2,a3,0x2
   19bdc:	00965693          	srli	a3,a2,0x9
   19be0:	00174713          	xori	a4,a4,1
   19be4:	f35ff06f          	j	19b18 <__pack_f+0x6c>
   19be8:	03f68713          	addi	a4,a3,63
   19bec:	40000637          	lui	a2,0x40000
   19bf0:	00271693          	slli	a3,a4,0x2
   19bf4:	00c73733          	sltu	a4,a4,a2
   19bf8:	0096d693          	srli	a3,a3,0x9
   19bfc:	00174713          	xori	a4,a4,1
   19c00:	f19ff06f          	j	19b18 <__pack_f+0x6c>
   19c04:	04068713          	addi	a4,a3,64
   19c08:	fe5ff06f          	j	19bec <__pack_f+0x140>

00019c0c <__unpack_f>:
   19c0c:	00255703          	lhu	a4,2(a0)
   19c10:	00354683          	lbu	a3,3(a0)
   19c14:	00052603          	lw	a2,0(a0)
   19c18:	00775713          	srli	a4,a4,0x7
   19c1c:	008007b7          	lui	a5,0x800
   19c20:	0076d693          	srli	a3,a3,0x7
   19c24:	fff78793          	addi	a5,a5,-1 # 7fffff <_gp+0x7e326f>
   19c28:	0ff77713          	andi	a4,a4,255
   19c2c:	00f677b3          	and	a5,a2,a5
   19c30:	00d5a223          	sw	a3,4(a1)
   19c34:	02071c63          	bnez	a4,19c6c <__unpack_f+0x60>
   19c38:	06078063          	beqz	a5,19c98 <__unpack_f+0x8c>
   19c3c:	00300713          	li	a4,3
   19c40:	00e5a023          	sw	a4,0(a1)
   19c44:	00779793          	slli	a5,a5,0x7
   19c48:	f8100713          	li	a4,-127
   19c4c:	40000637          	lui	a2,0x40000
   19c50:	00179793          	slli	a5,a5,0x1
   19c54:	00070693          	mv	a3,a4
   19c58:	fff70713          	addi	a4,a4,-1 # 3fffffff <_gp+0x3ffe326f>
   19c5c:	fec7eae3          	bltu	a5,a2,19c50 <__unpack_f+0x44>
   19c60:	00d5a423          	sw	a3,8(a1)
   19c64:	00f5a623          	sw	a5,12(a1)
   19c68:	00008067          	ret
   19c6c:	0ff00693          	li	a3,255
   19c70:	02d70a63          	beq	a4,a3,19ca4 <__unpack_f+0x98>
   19c74:	f8170713          	addi	a4,a4,-127
   19c78:	00779793          	slli	a5,a5,0x7
   19c7c:	400006b7          	lui	a3,0x40000
   19c80:	00d7e7b3          	or	a5,a5,a3
   19c84:	00e5a423          	sw	a4,8(a1)
   19c88:	00300713          	li	a4,3
   19c8c:	00e5a023          	sw	a4,0(a1)
   19c90:	00f5a623          	sw	a5,12(a1)
   19c94:	00008067          	ret
   19c98:	00200793          	li	a5,2
   19c9c:	00f5a023          	sw	a5,0(a1)
   19ca0:	00008067          	ret
   19ca4:	02078663          	beqz	a5,19cd0 <__unpack_f+0xc4>
   19ca8:	00979713          	slli	a4,a5,0x9
   19cac:	02075863          	bgez	a4,19cdc <__unpack_f+0xd0>
   19cb0:	00100713          	li	a4,1
   19cb4:	00e5a023          	sw	a4,0(a1)
   19cb8:	ffc00737          	lui	a4,0xffc00
   19cbc:	fff70713          	addi	a4,a4,-1 # ffbfffff <_gp+0xffbe326f>
   19cc0:	00e7f7b3          	and	a5,a5,a4
   19cc4:	00779793          	slli	a5,a5,0x7
   19cc8:	00f5a623          	sw	a5,12(a1)
   19ccc:	00008067          	ret
   19cd0:	00400793          	li	a5,4
   19cd4:	00f5a023          	sw	a5,0(a1)
   19cd8:	00008067          	ret
   19cdc:	0005a023          	sw	zero,0(a1)
   19ce0:	fd9ff06f          	j	19cb8 <__unpack_f+0xac>

00019ce4 <__addsf3>:
   19ce4:	fb010113          	addi	sp,sp,-80
   19ce8:	01010593          	addi	a1,sp,16
   19cec:	00810513          	addi	a0,sp,8
   19cf0:	04112623          	sw	ra,76(sp)
   19cf4:	00a12427          	fsw	fa0,8(sp)
   19cf8:	00b12627          	fsw	fa1,12(sp)
   19cfc:	f11ff0ef          	jal	19c0c <__unpack_f>
   19d00:	02010593          	addi	a1,sp,32
   19d04:	00c10513          	addi	a0,sp,12
   19d08:	f05ff0ef          	jal	19c0c <__unpack_f>
   19d0c:	03010613          	addi	a2,sp,48
   19d10:	02010593          	addi	a1,sp,32
   19d14:	01010513          	addi	a0,sp,16
   19d18:	bcdff0ef          	jal	198e4 <_fpadd_parts>
   19d1c:	d91ff0ef          	jal	19aac <__pack_f>
   19d20:	04c12083          	lw	ra,76(sp)
   19d24:	05010113          	addi	sp,sp,80
   19d28:	00008067          	ret

00019d2c <__subsf3>:
   19d2c:	fb010113          	addi	sp,sp,-80
   19d30:	01010593          	addi	a1,sp,16
   19d34:	00810513          	addi	a0,sp,8
   19d38:	04112623          	sw	ra,76(sp)
   19d3c:	00a12427          	fsw	fa0,8(sp)
   19d40:	00b12627          	fsw	fa1,12(sp)
   19d44:	ec9ff0ef          	jal	19c0c <__unpack_f>
   19d48:	02010593          	addi	a1,sp,32
   19d4c:	00c10513          	addi	a0,sp,12
   19d50:	ebdff0ef          	jal	19c0c <__unpack_f>
   19d54:	02412783          	lw	a5,36(sp)
   19d58:	03010613          	addi	a2,sp,48
   19d5c:	02010593          	addi	a1,sp,32
   19d60:	0017c793          	xori	a5,a5,1
   19d64:	01010513          	addi	a0,sp,16
   19d68:	02f12223          	sw	a5,36(sp)
   19d6c:	b79ff0ef          	jal	198e4 <_fpadd_parts>
   19d70:	d3dff0ef          	jal	19aac <__pack_f>
   19d74:	04c12083          	lw	ra,76(sp)
   19d78:	05010113          	addi	sp,sp,80
   19d7c:	00008067          	ret

00019d80 <__mulsf3>:
   19d80:	fb010113          	addi	sp,sp,-80
   19d84:	01010593          	addi	a1,sp,16
   19d88:	00810513          	addi	a0,sp,8
   19d8c:	04112623          	sw	ra,76(sp)
   19d90:	00a12427          	fsw	fa0,8(sp)
   19d94:	00b12627          	fsw	fa1,12(sp)
   19d98:	e75ff0ef          	jal	19c0c <__unpack_f>
   19d9c:	02010593          	addi	a1,sp,32
   19da0:	00c10513          	addi	a0,sp,12
   19da4:	e69ff0ef          	jal	19c0c <__unpack_f>
   19da8:	01012783          	lw	a5,16(sp)
   19dac:	00100693          	li	a3,1
   19db0:	0ef6f463          	bleu	a5,a3,19e98 <__mulsf3+0x118>
   19db4:	02012703          	lw	a4,32(sp)
   19db8:	0ae6f863          	bleu	a4,a3,19e68 <__mulsf3+0xe8>
   19dbc:	00400693          	li	a3,4
   19dc0:	0cd78863          	beq	a5,a3,19e90 <__mulsf3+0x110>
   19dc4:	08d70e63          	beq	a4,a3,19e60 <__mulsf3+0xe0>
   19dc8:	00200693          	li	a3,2
   19dcc:	0cd78663          	beq	a5,a3,19e98 <__mulsf3+0x118>
   19dd0:	08d70c63          	beq	a4,a3,19e68 <__mulsf3+0xe8>
   19dd4:	01c12703          	lw	a4,28(sp)
   19dd8:	02c12583          	lw	a1,44(sp)
   19ddc:	02812683          	lw	a3,40(sp)
   19de0:	01812783          	lw	a5,24(sp)
   19de4:	02b73633          	mulhu	a2,a4,a1
   19de8:	02412803          	lw	a6,36(sp)
   19dec:	00d787b3          	add	a5,a5,a3
   19df0:	01412683          	lw	a3,20(sp)
   19df4:	00278513          	addi	a0,a5,2
   19df8:	02a12c23          	sw	a0,56(sp)
   19dfc:	410686b3          	sub	a3,a3,a6
   19e00:	00d036b3          	snez	a3,a3
   19e04:	02d12a23          	sw	a3,52(sp)
   19e08:	02b70733          	mul	a4,a4,a1
   19e0c:	00060693          	mv	a3,a2
   19e10:	0c065a63          	bgez	a2,19ee4 <__mulsf3+0x164>
   19e14:	00167693          	andi	a3,a2,1
   19e18:	00378793          	addi	a5,a5,3
   19e1c:	00068863          	beqz	a3,19e2c <__mulsf3+0xac>
   19e20:	00175713          	srli	a4,a4,0x1
   19e24:	800006b7          	lui	a3,0x80000
   19e28:	00d76733          	or	a4,a4,a3
   19e2c:	00165693          	srli	a3,a2,0x1
   19e30:	02f12c23          	sw	a5,56(sp)
   19e34:	07f6f793          	andi	a5,a3,127
   19e38:	04000613          	li	a2,64
   19e3c:	08c78263          	beq	a5,a2,19ec0 <__mulsf3+0x140>
   19e40:	00300793          	li	a5,3
   19e44:	02d12e23          	sw	a3,60(sp)
   19e48:	02f12823          	sw	a5,48(sp)
   19e4c:	03010513          	addi	a0,sp,48
   19e50:	c5dff0ef          	jal	19aac <__pack_f>
   19e54:	04c12083          	lw	ra,76(sp)
   19e58:	05010113          	addi	sp,sp,80
   19e5c:	00008067          	ret
   19e60:	00200713          	li	a4,2
   19e64:	06e78a63          	beq	a5,a4,19ed8 <__mulsf3+0x158>
   19e68:	02412703          	lw	a4,36(sp)
   19e6c:	01412783          	lw	a5,20(sp)
   19e70:	02010513          	addi	a0,sp,32
   19e74:	40e787b3          	sub	a5,a5,a4
   19e78:	00f037b3          	snez	a5,a5
   19e7c:	02f12223          	sw	a5,36(sp)
   19e80:	c2dff0ef          	jal	19aac <__pack_f>
   19e84:	04c12083          	lw	ra,76(sp)
   19e88:	05010113          	addi	sp,sp,80
   19e8c:	00008067          	ret
   19e90:	00200793          	li	a5,2
   19e94:	04f70263          	beq	a4,a5,19ed8 <__mulsf3+0x158>
   19e98:	02412703          	lw	a4,36(sp)
   19e9c:	01412783          	lw	a5,20(sp)
   19ea0:	01010513          	addi	a0,sp,16
   19ea4:	40e787b3          	sub	a5,a5,a4
   19ea8:	00f037b3          	snez	a5,a5
   19eac:	00f12a23          	sw	a5,20(sp)
   19eb0:	bfdff0ef          	jal	19aac <__pack_f>
   19eb4:	04c12083          	lw	ra,76(sp)
   19eb8:	05010113          	addi	sp,sp,80
   19ebc:	00008067          	ret
   19ec0:	0806f793          	andi	a5,a3,128
   19ec4:	f6079ee3          	bnez	a5,19e40 <__mulsf3+0xc0>
   19ec8:	f6070ce3          	beqz	a4,19e40 <__mulsf3+0xc0>
   19ecc:	00c686b3          	add	a3,a3,a2
   19ed0:	f806f693          	andi	a3,a3,-128
   19ed4:	f6dff06f          	j	19e40 <__mulsf3+0xc0>
   19ed8:	0001b537          	lui	a0,0x1b
   19edc:	97850513          	addi	a0,a0,-1672 # 1a978 <__thenan_sf>
   19ee0:	f71ff06f          	j	19e50 <__mulsf3+0xd0>
   19ee4:	40000637          	lui	a2,0x40000
   19ee8:	f4c6f6e3          	bleu	a2,a3,19e34 <__mulsf3+0xb4>
   19eec:	00178793          	addi	a5,a5,1
   19ef0:	0100006f          	j	19f00 <__mulsf3+0x180>
   19ef4:	00171713          	slli	a4,a4,0x1
   19ef8:	fff78793          	addi	a5,a5,-1
   19efc:	02c6f063          	bleu	a2,a3,19f1c <__mulsf3+0x19c>
   19f00:	00169693          	slli	a3,a3,0x1
   19f04:	00078593          	mv	a1,a5
   19f08:	fe0756e3          	bgez	a4,19ef4 <__mulsf3+0x174>
   19f0c:	0016e693          	ori	a3,a3,1
   19f10:	00171713          	slli	a4,a4,0x1
   19f14:	fff78793          	addi	a5,a5,-1
   19f18:	fec6e4e3          	bltu	a3,a2,19f00 <__mulsf3+0x180>
   19f1c:	02b12c23          	sw	a1,56(sp)
   19f20:	f15ff06f          	j	19e34 <__mulsf3+0xb4>

00019f24 <__divsf3>:
   19f24:	fc010113          	addi	sp,sp,-64
   19f28:	01010593          	addi	a1,sp,16
   19f2c:	00810513          	addi	a0,sp,8
   19f30:	02112e23          	sw	ra,60(sp)
   19f34:	00a12427          	fsw	fa0,8(sp)
   19f38:	00b12627          	fsw	fa1,12(sp)
   19f3c:	cd1ff0ef          	jal	19c0c <__unpack_f>
   19f40:	02010593          	addi	a1,sp,32
   19f44:	00c10513          	addi	a0,sp,12
   19f48:	cc5ff0ef          	jal	19c0c <__unpack_f>
   19f4c:	01012683          	lw	a3,16(sp)
   19f50:	00100793          	li	a5,1
   19f54:	08d7f663          	bleu	a3,a5,19fe0 <__divsf3+0xbc>
   19f58:	02012603          	lw	a2,32(sp)
   19f5c:	0ec7f663          	bleu	a2,a5,1a048 <__divsf3+0x124>
   19f60:	01412583          	lw	a1,20(sp)
   19f64:	02412703          	lw	a4,36(sp)
   19f68:	ffe68793          	addi	a5,a3,-2 # 7ffffffe <_gp+0x7ffe326e>
   19f6c:	ffd7f793          	andi	a5,a5,-3
   19f70:	00e5c733          	xor	a4,a1,a4
   19f74:	00e12a23          	sw	a4,20(sp)
   19f78:	06078e63          	beqz	a5,19ff4 <__divsf3+0xd0>
   19f7c:	00400793          	li	a5,4
   19f80:	08f60a63          	beq	a2,a5,1a014 <__divsf3+0xf0>
   19f84:	00200713          	li	a4,2
   19f88:	0ae60a63          	beq	a2,a4,1a03c <__divsf3+0x118>
   19f8c:	01812703          	lw	a4,24(sp)
   19f90:	02812683          	lw	a3,40(sp)
   19f94:	01c12783          	lw	a5,28(sp)
   19f98:	02c12603          	lw	a2,44(sp)
   19f9c:	40d70733          	sub	a4,a4,a3
   19fa0:	00e12c23          	sw	a4,24(sp)
   19fa4:	06c7e063          	bltu	a5,a2,1a004 <__divsf3+0xe0>
   19fa8:	01f00713          	li	a4,31
   19fac:	00000593          	li	a1,0
   19fb0:	400006b7          	lui	a3,0x40000
   19fb4:	fff70713          	addi	a4,a4,-1
   19fb8:	00c7e663          	bltu	a5,a2,19fc4 <__divsf3+0xa0>
   19fbc:	00d5e5b3          	or	a1,a1,a3
   19fc0:	40c787b3          	sub	a5,a5,a2
   19fc4:	0016d693          	srli	a3,a3,0x1
   19fc8:	00179793          	slli	a5,a5,0x1
   19fcc:	fe0714e3          	bnez	a4,19fb4 <__divsf3+0x90>
   19fd0:	07f5f713          	andi	a4,a1,127
   19fd4:	04000693          	li	a3,64
   19fd8:	04d70663          	beq	a4,a3,1a024 <__divsf3+0x100>
   19fdc:	00b12e23          	sw	a1,28(sp)
   19fe0:	01010513          	addi	a0,sp,16
   19fe4:	ac9ff0ef          	jal	19aac <__pack_f>
   19fe8:	03c12083          	lw	ra,60(sp)
   19fec:	04010113          	addi	sp,sp,64
   19ff0:	00008067          	ret
   19ff4:	fec696e3          	bne	a3,a2,19fe0 <__divsf3+0xbc>
   19ff8:	0001b537          	lui	a0,0x1b
   19ffc:	97850513          	addi	a0,a0,-1672 # 1a978 <__thenan_sf>
   1a000:	fe5ff06f          	j	19fe4 <__divsf3+0xc0>
   1a004:	fff70713          	addi	a4,a4,-1
   1a008:	00179793          	slli	a5,a5,0x1
   1a00c:	00e12c23          	sw	a4,24(sp)
   1a010:	f99ff06f          	j	19fa8 <__divsf3+0x84>
   1a014:	00012e23          	sw	zero,28(sp)
   1a018:	00012c23          	sw	zero,24(sp)
   1a01c:	01010513          	addi	a0,sp,16
   1a020:	fc5ff06f          	j	19fe4 <__divsf3+0xc0>
   1a024:	0805f713          	andi	a4,a1,128
   1a028:	fa071ae3          	bnez	a4,19fdc <__divsf3+0xb8>
   1a02c:	fa0788e3          	beqz	a5,19fdc <__divsf3+0xb8>
   1a030:	00d585b3          	add	a1,a1,a3
   1a034:	f805f593          	andi	a1,a1,-128
   1a038:	fa5ff06f          	j	19fdc <__divsf3+0xb8>
   1a03c:	00f12823          	sw	a5,16(sp)
   1a040:	01010513          	addi	a0,sp,16
   1a044:	fa1ff06f          	j	19fe4 <__divsf3+0xc0>
   1a048:	02010513          	addi	a0,sp,32
   1a04c:	f99ff06f          	j	19fe4 <__divsf3+0xc0>

0001a050 <__fpcmp_parts_f>:
   1a050:	00052703          	lw	a4,0(a0)
   1a054:	00100793          	li	a5,1
   1a058:	00050613          	mv	a2,a0
   1a05c:	06e7fe63          	bleu	a4,a5,1a0d8 <__fpcmp_parts_f+0x88>
   1a060:	0005a683          	lw	a3,0(a1)
   1a064:	00078513          	mv	a0,a5
   1a068:	04d7f063          	bleu	a3,a5,1a0a8 <__fpcmp_parts_f+0x58>
   1a06c:	00400793          	li	a5,4
   1a070:	04f70863          	beq	a4,a5,1a0c0 <__fpcmp_parts_f+0x70>
   1a074:	02f68c63          	beq	a3,a5,1a0ac <__fpcmp_parts_f+0x5c>
   1a078:	00200793          	li	a5,2
   1a07c:	02f70263          	beq	a4,a5,1a0a0 <__fpcmp_parts_f+0x50>
   1a080:	04f68263          	beq	a3,a5,1a0c4 <__fpcmp_parts_f+0x74>
   1a084:	00462783          	lw	a5,4(a2) # 40000004 <_gp+0x3ffe3274>
   1a088:	0045a703          	lw	a4,4(a1)
   1a08c:	04e78a63          	beq	a5,a4,1a0e0 <__fpcmp_parts_f+0x90>
   1a090:	00f03533          	snez	a0,a5
   1a094:	40a00533          	neg	a0,a0
   1a098:	00156513          	ori	a0,a0,1
   1a09c:	00008067          	ret
   1a0a0:	00e69663          	bne	a3,a4,1a0ac <__fpcmp_parts_f+0x5c>
   1a0a4:	00000513          	li	a0,0
   1a0a8:	00008067          	ret
   1a0ac:	0045a503          	lw	a0,4(a1)
   1a0b0:	00153513          	seqz	a0,a0
   1a0b4:	40a00533          	neg	a0,a0
   1a0b8:	00156513          	ori	a0,a0,1
   1a0bc:	00008067          	ret
   1a0c0:	04e68a63          	beq	a3,a4,1a114 <__fpcmp_parts_f+0xc4>
   1a0c4:	00462503          	lw	a0,4(a2)
   1a0c8:	00a03533          	snez	a0,a0
   1a0cc:	40a00533          	neg	a0,a0
   1a0d0:	00156513          	ori	a0,a0,1
   1a0d4:	00008067          	ret
   1a0d8:	00078513          	mv	a0,a5
   1a0dc:	00008067          	ret
   1a0e0:	00862683          	lw	a3,8(a2)
   1a0e4:	0085a703          	lw	a4,8(a1)
   1a0e8:	fad744e3          	blt	a4,a3,1a090 <__fpcmp_parts_f+0x40>
   1a0ec:	00e6cc63          	blt	a3,a4,1a104 <__fpcmp_parts_f+0xb4>
   1a0f0:	00c62683          	lw	a3,12(a2)
   1a0f4:	00c5a703          	lw	a4,12(a1)
   1a0f8:	f8d76ce3          	bltu	a4,a3,1a090 <__fpcmp_parts_f+0x40>
   1a0fc:	00000513          	li	a0,0
   1a100:	fae6f4e3          	bleu	a4,a3,1a0a8 <__fpcmp_parts_f+0x58>
   1a104:	0017b513          	seqz	a0,a5
   1a108:	40a00533          	neg	a0,a0
   1a10c:	00156513          	ori	a0,a0,1
   1a110:	00008067          	ret
   1a114:	0045a783          	lw	a5,4(a1)
   1a118:	00462503          	lw	a0,4(a2)
   1a11c:	40a78533          	sub	a0,a5,a0
   1a120:	00008067          	ret

0001a124 <__cmpsf2>:
   1a124:	fc010113          	addi	sp,sp,-64
   1a128:	01010593          	addi	a1,sp,16
   1a12c:	00810513          	addi	a0,sp,8
   1a130:	02112e23          	sw	ra,60(sp)
   1a134:	00a12427          	fsw	fa0,8(sp)
   1a138:	00b12627          	fsw	fa1,12(sp)
   1a13c:	ad1ff0ef          	jal	19c0c <__unpack_f>
   1a140:	02010593          	addi	a1,sp,32
   1a144:	00c10513          	addi	a0,sp,12
   1a148:	ac5ff0ef          	jal	19c0c <__unpack_f>
   1a14c:	02010593          	addi	a1,sp,32
   1a150:	01010513          	addi	a0,sp,16
   1a154:	efdff0ef          	jal	1a050 <__fpcmp_parts_f>
   1a158:	03c12083          	lw	ra,60(sp)
   1a15c:	04010113          	addi	sp,sp,64
   1a160:	00008067          	ret

0001a164 <__gesf2>:
   1a164:	fc010113          	addi	sp,sp,-64
   1a168:	01010593          	addi	a1,sp,16
   1a16c:	00810513          	addi	a0,sp,8
   1a170:	02112e23          	sw	ra,60(sp)
   1a174:	00a12427          	fsw	fa0,8(sp)
   1a178:	00b12627          	fsw	fa1,12(sp)
   1a17c:	a91ff0ef          	jal	19c0c <__unpack_f>
   1a180:	00c10513          	addi	a0,sp,12
   1a184:	02010593          	addi	a1,sp,32
   1a188:	a85ff0ef          	jal	19c0c <__unpack_f>
   1a18c:	01012703          	lw	a4,16(sp)
   1a190:	00100793          	li	a5,1
   1a194:	fff00513          	li	a0,-1
   1a198:	00e7fc63          	bleu	a4,a5,1a1b0 <__gesf2+0x4c>
   1a19c:	02012703          	lw	a4,32(sp)
   1a1a0:	00e7f863          	bleu	a4,a5,1a1b0 <__gesf2+0x4c>
   1a1a4:	02010593          	addi	a1,sp,32
   1a1a8:	01010513          	addi	a0,sp,16
   1a1ac:	ea5ff0ef          	jal	1a050 <__fpcmp_parts_f>
   1a1b0:	03c12083          	lw	ra,60(sp)
   1a1b4:	04010113          	addi	sp,sp,64
   1a1b8:	00008067          	ret

0001a1bc <__gtsf2>:
   1a1bc:	fa9ff06f          	j	1a164 <__gesf2>

0001a1c0 <__lesf2>:
   1a1c0:	fc010113          	addi	sp,sp,-64
   1a1c4:	01010593          	addi	a1,sp,16
   1a1c8:	00810513          	addi	a0,sp,8
   1a1cc:	02112e23          	sw	ra,60(sp)
   1a1d0:	00a12427          	fsw	fa0,8(sp)
   1a1d4:	00b12627          	fsw	fa1,12(sp)
   1a1d8:	a35ff0ef          	jal	19c0c <__unpack_f>
   1a1dc:	00c10513          	addi	a0,sp,12
   1a1e0:	02010593          	addi	a1,sp,32
   1a1e4:	a29ff0ef          	jal	19c0c <__unpack_f>
   1a1e8:	01012783          	lw	a5,16(sp)
   1a1ec:	00100513          	li	a0,1
   1a1f0:	00f57c63          	bleu	a5,a0,1a208 <__lesf2+0x48>
   1a1f4:	02012783          	lw	a5,32(sp)
   1a1f8:	00f57863          	bleu	a5,a0,1a208 <__lesf2+0x48>
   1a1fc:	02010593          	addi	a1,sp,32
   1a200:	01010513          	addi	a0,sp,16
   1a204:	e4dff0ef          	jal	1a050 <__fpcmp_parts_f>
   1a208:	03c12083          	lw	ra,60(sp)
   1a20c:	04010113          	addi	sp,sp,64
   1a210:	00008067          	ret

0001a214 <__ltsf2>:
   1a214:	fadff06f          	j	1a1c0 <__lesf2>

0001a218 <__nesf2>:
   1a218:	fa9ff06f          	j	1a1c0 <__lesf2>

0001a21c <__eqsf2>:
   1a21c:	fa5ff06f          	j	1a1c0 <__lesf2>

0001a220 <__unordsf2>:
   1a220:	fc010113          	addi	sp,sp,-64
   1a224:	01010593          	addi	a1,sp,16
   1a228:	00810513          	addi	a0,sp,8
   1a22c:	02112e23          	sw	ra,60(sp)
   1a230:	00a12427          	fsw	fa0,8(sp)
   1a234:	00b12627          	fsw	fa1,12(sp)
   1a238:	9d5ff0ef          	jal	19c0c <__unpack_f>
   1a23c:	00c10513          	addi	a0,sp,12
   1a240:	02010593          	addi	a1,sp,32
   1a244:	9c9ff0ef          	jal	19c0c <__unpack_f>
   1a248:	01012783          	lw	a5,16(sp)
   1a24c:	00100513          	li	a0,1
   1a250:	00f57663          	bleu	a5,a0,1a25c <__unordsf2+0x3c>
   1a254:	02012503          	lw	a0,32(sp)
   1a258:	00253513          	sltiu	a0,a0,2
   1a25c:	03c12083          	lw	ra,60(sp)
   1a260:	04010113          	addi	sp,sp,64
   1a264:	00008067          	ret

0001a268 <__floatsisf>:
   1a268:	fe010113          	addi	sp,sp,-32
   1a26c:	01f55793          	srli	a5,a0,0x1f
   1a270:	00300713          	li	a4,3
   1a274:	00112e23          	sw	ra,28(sp)
   1a278:	00812c23          	sw	s0,24(sp)
   1a27c:	00e12023          	sw	a4,0(sp)
   1a280:	00f12223          	sw	a5,4(sp)
   1a284:	02051263          	bnez	a0,1a2a8 <__floatsisf+0x40>
   1a288:	00200793          	li	a5,2
   1a28c:	00f12023          	sw	a5,0(sp)
   1a290:	00010513          	mv	a0,sp
   1a294:	819ff0ef          	jal	19aac <__pack_f>
   1a298:	01c12083          	lw	ra,28(sp)
   1a29c:	01812403          	lw	s0,24(sp)
   1a2a0:	02010113          	addi	sp,sp,32
   1a2a4:	00008067          	ret
   1a2a8:	01e00793          	li	a5,30
   1a2ac:	00f12423          	sw	a5,8(sp)
   1a2b0:	02054863          	bltz	a0,1a2e0 <__floatsisf+0x78>
   1a2b4:	00050413          	mv	s0,a0
   1a2b8:	00040513          	mv	a0,s0
   1a2bc:	db8ff0ef          	jal	19874 <__clzsi2>
   1a2c0:	fff50793          	addi	a5,a0,-1
   1a2c4:	02078c63          	beqz	a5,1a2fc <__floatsisf+0x94>
   1a2c8:	01e00713          	li	a4,30
   1a2cc:	00f41533          	sll	a0,s0,a5
   1a2d0:	40f707b3          	sub	a5,a4,a5
   1a2d4:	00a12623          	sw	a0,12(sp)
   1a2d8:	00f12423          	sw	a5,8(sp)
   1a2dc:	fb5ff06f          	j	1a290 <__floatsisf+0x28>
   1a2e0:	800007b7          	lui	a5,0x80000
   1a2e4:	02f50063          	beq	a0,a5,1a304 <__floatsisf+0x9c>
   1a2e8:	40a00433          	neg	s0,a0
   1a2ec:	00040513          	mv	a0,s0
   1a2f0:	d84ff0ef          	jal	19874 <__clzsi2>
   1a2f4:	fff50793          	addi	a5,a0,-1
   1a2f8:	fc0798e3          	bnez	a5,1a2c8 <__floatsisf+0x60>
   1a2fc:	00812623          	sw	s0,12(sp)
   1a300:	f91ff06f          	j	1a290 <__floatsisf+0x28>
   1a304:	8701a507          	flw	fa0,-1936(gp) # 1c600 <__wctomb+0x58>
   1a308:	f91ff06f          	j	1a298 <__floatsisf+0x30>

0001a30c <__floatunsisf>:
   1a30c:	fe010113          	addi	sp,sp,-32
   1a310:	00112e23          	sw	ra,28(sp)
   1a314:	00812c23          	sw	s0,24(sp)
   1a318:	00912a23          	sw	s1,20(sp)
   1a31c:	00012223          	sw	zero,4(sp)
   1a320:	04050a63          	beqz	a0,1a374 <__floatunsisf+0x68>
   1a324:	00300793          	li	a5,3
   1a328:	01e00493          	li	s1,30
   1a32c:	00f12023          	sw	a5,0(sp)
   1a330:	00050413          	mv	s0,a0
   1a334:	00912423          	sw	s1,8(sp)
   1a338:	d3cff0ef          	jal	19874 <__clzsi2>
   1a33c:	fff50793          	addi	a5,a0,-1
   1a340:	04050063          	beqz	a0,1a380 <__floatunsisf+0x74>
   1a344:	04078c63          	beqz	a5,1a39c <__floatunsisf+0x90>
   1a348:	00f41433          	sll	s0,s0,a5
   1a34c:	40f484b3          	sub	s1,s1,a5
   1a350:	00812623          	sw	s0,12(sp)
   1a354:	00912423          	sw	s1,8(sp)
   1a358:	00010513          	mv	a0,sp
   1a35c:	f50ff0ef          	jal	19aac <__pack_f>
   1a360:	01c12083          	lw	ra,28(sp)
   1a364:	01812403          	lw	s0,24(sp)
   1a368:	01412483          	lw	s1,20(sp)
   1a36c:	02010113          	addi	sp,sp,32
   1a370:	00008067          	ret
   1a374:	00200793          	li	a5,2
   1a378:	00f12023          	sw	a5,0(sp)
   1a37c:	fddff06f          	j	1a358 <__floatunsisf+0x4c>
   1a380:	00147793          	andi	a5,s0,1
   1a384:	00145413          	srli	s0,s0,0x1
   1a388:	0087e433          	or	s0,a5,s0
   1a38c:	01f00793          	li	a5,31
   1a390:	00812623          	sw	s0,12(sp)
   1a394:	00f12423          	sw	a5,8(sp)
   1a398:	fc1ff06f          	j	1a358 <__floatunsisf+0x4c>
   1a39c:	00812623          	sw	s0,12(sp)
   1a3a0:	fb9ff06f          	j	1a358 <__floatunsisf+0x4c>

0001a3a4 <__fixsfsi>:
   1a3a4:	fd010113          	addi	sp,sp,-48
   1a3a8:	01010593          	addi	a1,sp,16
   1a3ac:	00c10513          	addi	a0,sp,12
   1a3b0:	02112623          	sw	ra,44(sp)
   1a3b4:	00a12627          	fsw	fa0,12(sp)
   1a3b8:	855ff0ef          	jal	19c0c <__unpack_f>
   1a3bc:	01012783          	lw	a5,16(sp)
   1a3c0:	00200713          	li	a4,2
   1a3c4:	04f77e63          	bleu	a5,a4,1a420 <__fixsfsi+0x7c>
   1a3c8:	00400713          	li	a4,4
   1a3cc:	00e78a63          	beq	a5,a4,1a3e0 <__fixsfsi+0x3c>
   1a3d0:	01812783          	lw	a5,24(sp)
   1a3d4:	0407c663          	bltz	a5,1a420 <__fixsfsi+0x7c>
   1a3d8:	01e00513          	li	a0,30
   1a3dc:	02f55063          	ble	a5,a0,1a3fc <__fixsfsi+0x58>
   1a3e0:	01412783          	lw	a5,20(sp)
   1a3e4:	80000537          	lui	a0,0x80000
   1a3e8:	00079463          	bnez	a5,1a3f0 <__fixsfsi+0x4c>
   1a3ec:	fff54513          	not	a0,a0
   1a3f0:	02c12083          	lw	ra,44(sp)
   1a3f4:	03010113          	addi	sp,sp,48
   1a3f8:	00008067          	ret
   1a3fc:	40f50533          	sub	a0,a0,a5
   1a400:	01c12783          	lw	a5,28(sp)
   1a404:	00a7d533          	srl	a0,a5,a0
   1a408:	01412783          	lw	a5,20(sp)
   1a40c:	fe0782e3          	beqz	a5,1a3f0 <__fixsfsi+0x4c>
   1a410:	02c12083          	lw	ra,44(sp)
   1a414:	40a00533          	neg	a0,a0
   1a418:	03010113          	addi	sp,sp,48
   1a41c:	00008067          	ret
   1a420:	02c12083          	lw	ra,44(sp)
   1a424:	00000513          	li	a0,0
   1a428:	03010113          	addi	sp,sp,48
   1a42c:	00008067          	ret

0001a430 <__negsf2>:
   1a430:	fd010113          	addi	sp,sp,-48
   1a434:	00c10513          	addi	a0,sp,12
   1a438:	01010593          	addi	a1,sp,16
   1a43c:	02112623          	sw	ra,44(sp)
   1a440:	00a12627          	fsw	fa0,12(sp)
   1a444:	fc8ff0ef          	jal	19c0c <__unpack_f>
   1a448:	01412783          	lw	a5,20(sp)
   1a44c:	01010513          	addi	a0,sp,16
   1a450:	0017b793          	seqz	a5,a5
   1a454:	00f12a23          	sw	a5,20(sp)
   1a458:	e54ff0ef          	jal	19aac <__pack_f>
   1a45c:	02c12083          	lw	ra,44(sp)
   1a460:	03010113          	addi	sp,sp,48
   1a464:	00008067          	ret

0001a468 <__make_fp>:
   1a468:	fe010113          	addi	sp,sp,-32
   1a46c:	00a12023          	sw	a0,0(sp)
   1a470:	00010513          	mv	a0,sp
   1a474:	00112e23          	sw	ra,28(sp)
   1a478:	00b12223          	sw	a1,4(sp)
   1a47c:	00c12423          	sw	a2,8(sp)
   1a480:	00d12623          	sw	a3,12(sp)
   1a484:	e28ff0ef          	jal	19aac <__pack_f>
   1a488:	01c12083          	lw	ra,28(sp)
   1a48c:	02010113          	addi	sp,sp,32
   1a490:	00008067          	ret

0001a494 <__extendsfdf2>:
   1a494:	fd010113          	addi	sp,sp,-48
   1a498:	01010593          	addi	a1,sp,16
   1a49c:	00c10513          	addi	a0,sp,12
   1a4a0:	02112623          	sw	ra,44(sp)
   1a4a4:	00a12627          	fsw	fa0,12(sp)
   1a4a8:	f64ff0ef          	jal	19c0c <__unpack_f>
   1a4ac:	01c12783          	lw	a5,28(sp)
   1a4b0:	01812603          	lw	a2,24(sp)
   1a4b4:	01412583          	lw	a1,20(sp)
   1a4b8:	01012503          	lw	a0,16(sp)
   1a4bc:	01e79713          	slli	a4,a5,0x1e
   1a4c0:	0027d793          	srli	a5,a5,0x2
   1a4c4:	b2cff0ef          	jal	197f0 <__make_dp>
   1a4c8:	02c12083          	lw	ra,44(sp)
   1a4cc:	03010113          	addi	sp,sp,48
   1a4d0:	00008067          	ret

0001a4d4 <__errno>:
   1a4d4:	8081a503          	lw	a0,-2040(gp) # 1c598 <_impure_ptr>
   1a4d8:	00008067          	ret
