
add:     file format elf32-littleriscv


Disassembly of section .text:

00010000 <_ftext>:
   10000:	0000d197          	auipc	gp,0xd
   10004:	d9018193          	addi	gp,gp,-624 # 1cd90 <_gp>
   10008:	0000c297          	auipc	t0,0xc
   1000c:	60028293          	addi	t0,t0,1536 # 1c608 <_PathLocale>
   10010:	0000c317          	auipc	t1,0xc
   10014:	67030313          	addi	t1,t1,1648 # 1c680 <_end>
   10018:	0002a023          	sw	zero,0(t0)
   1001c:	00428293          	addi	t0,t0,4
   10020:	fe62ece3          	bltu	t0,t1,10018 <_ftext+0x18>
   10024:	00000517          	auipc	a0,0x0
   10028:	25450513          	addi	a0,a0,596 # 10278 <__libc_fini_array>
   1002c:	168000ef          	jal	10194 <atexit>
   10030:	1a8000ef          	jal	101d8 <__libc_init_array>
   10034:	00012503          	lw	a0,0(sp)
   10038:	00410593          	addi	a1,sp,4
   1003c:	00000613          	li	a2,0
   10040:	100000ef          	jal	10140 <main>
   10044:	1640006f          	j	101a8 <exit>

00010048 <_fini>:
   10048:	00008067          	ret

0001004c <deregister_tm_clones>:
   1004c:	80018713          	addi	a4,gp,-2048 # 1c590 <_edata>
   10050:	80318793          	addi	a5,gp,-2045 # 1c593 <_edata+0x3>
   10054:	40e787b3          	sub	a5,a5,a4
   10058:	00600713          	li	a4,6
   1005c:	00f77c63          	bleu	a5,a4,10074 <deregister_tm_clones+0x28>
   10060:	00000293          	li	t0,0
   10064:	00028863          	beqz	t0,10074 <deregister_tm_clones+0x28>
   10068:	80018513          	addi	a0,gp,-2048 # 1c590 <_edata>
   1006c:	00028313          	mv	t1,t0
   10070:	00030067          	jr	t1
   10074:	00008067          	ret

00010078 <register_tm_clones>:
   10078:	80018593          	addi	a1,gp,-2048 # 1c590 <_edata>
   1007c:	80018793          	addi	a5,gp,-2048 # 1c590 <_edata>
   10080:	40b787b3          	sub	a5,a5,a1
   10084:	4027d793          	srai	a5,a5,0x2
   10088:	01f7d593          	srli	a1,a5,0x1f
   1008c:	00f585b3          	add	a1,a1,a5
   10090:	4015d593          	srai	a1,a1,0x1
   10094:	00058c63          	beqz	a1,100ac <register_tm_clones+0x34>
   10098:	00000293          	li	t0,0
   1009c:	00028863          	beqz	t0,100ac <register_tm_clones+0x34>
   100a0:	80018513          	addi	a0,gp,-2048 # 1c590 <_edata>
   100a4:	00028313          	mv	t1,t0
   100a8:	00030067          	jr	t1
   100ac:	00008067          	ret

000100b0 <__do_global_dtors_aux>:
   100b0:	ff010113          	addi	sp,sp,-16
   100b4:	00812423          	sw	s0,8(sp)
   100b8:	8981c783          	lbu	a5,-1896(gp) # 1c628 <completed.3081>
   100bc:	00112623          	sw	ra,12(sp)
   100c0:	02079263          	bnez	a5,100e4 <__do_global_dtors_aux+0x34>
   100c4:	f89ff0ef          	jal	1004c <deregister_tm_clones>
   100c8:	00000793          	li	a5,0
   100cc:	00078863          	beqz	a5,100dc <__do_global_dtors_aux+0x2c>
   100d0:	0001b537          	lui	a0,0x1b
   100d4:	af450513          	addi	a0,a0,-1292 # 1aaf4 <__fini_array_end>
   100d8:	f29ef0ef          	jal	0 <_ftext-0x10000>
   100dc:	00100793          	li	a5,1
   100e0:	88f18c23          	sb	a5,-1896(gp) # 1c628 <completed.3081>
   100e4:	00c12083          	lw	ra,12(sp)
   100e8:	00812403          	lw	s0,8(sp)
   100ec:	01010113          	addi	sp,sp,16
   100f0:	00008067          	ret

000100f4 <frame_dummy>:
   100f4:	ff010113          	addi	sp,sp,-16
   100f8:	00000793          	li	a5,0
   100fc:	00112623          	sw	ra,12(sp)
   10100:	00078a63          	beqz	a5,10114 <frame_dummy+0x20>
   10104:	0001b537          	lui	a0,0x1b
   10108:	89c18593          	addi	a1,gp,-1892 # 1c62c <object.3086>
   1010c:	af450513          	addi	a0,a0,-1292 # 1aaf4 <__fini_array_end>
   10110:	ef1ef0ef          	jal	0 <_ftext-0x10000>
   10114:	0001c537          	lui	a0,0x1c
   10118:	d1850513          	addi	a0,a0,-744 # 1bd18 <__JCR_END__>
   1011c:	00052783          	lw	a5,0(a0)
   10120:	00079863          	bnez	a5,10130 <frame_dummy+0x3c>
   10124:	00c12083          	lw	ra,12(sp)
   10128:	01010113          	addi	sp,sp,16
   1012c:	f4dff06f          	j	10078 <register_tm_clones>
   10130:	00000793          	li	a5,0
   10134:	fe0788e3          	beqz	a5,10124 <frame_dummy+0x30>
   10138:	000780e7          	jalr	a5
   1013c:	fe9ff06f          	j	10124 <frame_dummy+0x30>

00010140 <main>:
   10140:	fe010113          	addi	sp,sp,-32
   10144:	00112e23          	sw	ra,28(sp)
   10148:	00812c23          	sw	s0,24(sp)
   1014c:	02010413          	addi	s0,sp,32
   10150:	00100793          	li	a5,1
   10154:	fef42623          	sw	a5,-20(s0)
   10158:	00200793          	li	a5,2
   1015c:	fef42423          	sw	a5,-24(s0)
   10160:	fec42703          	lw	a4,-20(s0)
   10164:	fe842783          	lw	a5,-24(s0)
   10168:	00f707b3          	add	a5,a4,a5
   1016c:	fef42223          	sw	a5,-28(s0)
   10170:	fe442583          	lw	a1,-28(s0)
   10174:	0001a7b7          	lui	a5,0x1a
   10178:	4e078513          	addi	a0,a5,1248 # 1a4e0 <__errno+0xc>
   1017c:	1a0000ef          	jal	1031c <printf>
   10180:	00000013          	nop
   10184:	01c12083          	lw	ra,28(sp)
   10188:	01812403          	lw	s0,24(sp)
   1018c:	02010113          	addi	sp,sp,32
   10190:	00008067          	ret

00010194 <atexit>:
   10194:	00050593          	mv	a1,a0
   10198:	00000693          	li	a3,0
   1019c:	00000613          	li	a2,0
   101a0:	00000513          	li	a0,0
   101a4:	6a50106f          	j	12048 <__register_exitproc>

000101a8 <exit>:
   101a8:	ff010113          	addi	sp,sp,-16
   101ac:	00000593          	li	a1,0
   101b0:	00812423          	sw	s0,8(sp)
   101b4:	00112623          	sw	ra,12(sp)
   101b8:	00050413          	mv	s0,a0
   101bc:	781010ef          	jal	1213c <__call_exitprocs>
   101c0:	8041a503          	lw	a0,-2044(gp) # 1c594 <_global_impure_ptr>
   101c4:	03c52783          	lw	a5,60(a0)
   101c8:	00078463          	beqz	a5,101d0 <exit+0x28>
   101cc:	000780e7          	jalr	a5
   101d0:	00040513          	mv	a0,s0
   101d4:	644080ef          	jal	18818 <_exit>

000101d8 <__libc_init_array>:
   101d8:	ff010113          	addi	sp,sp,-16
   101dc:	00812423          	sw	s0,8(sp)
   101e0:	0001b7b7          	lui	a5,0x1b
   101e4:	0001b437          	lui	s0,0x1b
   101e8:	01212023          	sw	s2,0(sp)
   101ec:	aec78793          	addi	a5,a5,-1300 # 1aaec <_etext>
   101f0:	aec40913          	addi	s2,s0,-1300 # 1aaec <_etext>
   101f4:	41278933          	sub	s2,a5,s2
   101f8:	40295913          	srai	s2,s2,0x2
   101fc:	00912223          	sw	s1,4(sp)
   10200:	00112623          	sw	ra,12(sp)
   10204:	aec40413          	addi	s0,s0,-1300
   10208:	00000493          	li	s1,0
   1020c:	00090c63          	beqz	s2,10224 <__libc_init_array+0x4c>
   10210:	00042783          	lw	a5,0(s0)
   10214:	00148493          	addi	s1,s1,1
   10218:	00440413          	addi	s0,s0,4
   1021c:	000780e7          	jalr	a5
   10220:	fe9918e3          	bne	s2,s1,10210 <__libc_init_array+0x38>
   10224:	0001b437          	lui	s0,0x1b
   10228:	e21ff0ef          	jal	10048 <_fini>
   1022c:	0001b7b7          	lui	a5,0x1b
   10230:	aec40913          	addi	s2,s0,-1300 # 1aaec <_etext>
   10234:	af078793          	addi	a5,a5,-1296 # 1aaf0 <__init_array_end>
   10238:	41278933          	sub	s2,a5,s2
   1023c:	40295913          	srai	s2,s2,0x2
   10240:	aec40413          	addi	s0,s0,-1300
   10244:	00000493          	li	s1,0
   10248:	00090c63          	beqz	s2,10260 <__libc_init_array+0x88>
   1024c:	00042783          	lw	a5,0(s0)
   10250:	00148493          	addi	s1,s1,1
   10254:	00440413          	addi	s0,s0,4
   10258:	000780e7          	jalr	a5
   1025c:	fe9918e3          	bne	s2,s1,1024c <__libc_init_array+0x74>
   10260:	00c12083          	lw	ra,12(sp)
   10264:	00812403          	lw	s0,8(sp)
   10268:	00412483          	lw	s1,4(sp)
   1026c:	00012903          	lw	s2,0(sp)
   10270:	01010113          	addi	sp,sp,16
   10274:	00008067          	ret

00010278 <__libc_fini_array>:
   10278:	ff010113          	addi	sp,sp,-16
   1027c:	00812423          	sw	s0,8(sp)
   10280:	00912223          	sw	s1,4(sp)
   10284:	0001b437          	lui	s0,0x1b
   10288:	0001b4b7          	lui	s1,0x1b
   1028c:	af048493          	addi	s1,s1,-1296 # 1aaf0 <__init_array_end>
   10290:	af440413          	addi	s0,s0,-1292 # 1aaf4 <__fini_array_end>
   10294:	40940433          	sub	s0,s0,s1
   10298:	40245413          	srai	s0,s0,0x2
   1029c:	00241793          	slli	a5,s0,0x2
   102a0:	ffc78793          	addi	a5,a5,-4
   102a4:	00112623          	sw	ra,12(sp)
   102a8:	009784b3          	add	s1,a5,s1
   102ac:	00040c63          	beqz	s0,102c4 <__libc_fini_array+0x4c>
   102b0:	0004a783          	lw	a5,0(s1)
   102b4:	fff40413          	addi	s0,s0,-1
   102b8:	ffc48493          	addi	s1,s1,-4
   102bc:	000780e7          	jalr	a5
   102c0:	fe0418e3          	bnez	s0,102b0 <__libc_fini_array+0x38>
   102c4:	00c12083          	lw	ra,12(sp)
   102c8:	00812403          	lw	s0,8(sp)
   102cc:	00412483          	lw	s1,4(sp)
   102d0:	01010113          	addi	sp,sp,16
   102d4:	d75ff06f          	j	10048 <_fini>

000102d8 <_printf_r>:
   102d8:	fc010113          	addi	sp,sp,-64
   102dc:	02c12423          	sw	a2,40(sp)
   102e0:	02d12623          	sw	a3,44(sp)
   102e4:	02f12a23          	sw	a5,52(sp)
   102e8:	02e12823          	sw	a4,48(sp)
   102ec:	03012c23          	sw	a6,56(sp)
   102f0:	03112e23          	sw	a7,60(sp)
   102f4:	00058613          	mv	a2,a1
   102f8:	00852583          	lw	a1,8(a0)
   102fc:	02810793          	addi	a5,sp,40
   10300:	00078693          	mv	a3,a5
   10304:	00112e23          	sw	ra,28(sp)
   10308:	00f12623          	sw	a5,12(sp)
   1030c:	060000ef          	jal	1036c <_vfprintf_r>
   10310:	01c12083          	lw	ra,28(sp)
   10314:	04010113          	addi	sp,sp,64
   10318:	00008067          	ret

0001031c <printf>:
   1031c:	8081a283          	lw	t0,-2040(gp) # 1c598 <_impure_ptr>
   10320:	fc010113          	addi	sp,sp,-64
   10324:	02c12423          	sw	a2,40(sp)
   10328:	02d12623          	sw	a3,44(sp)
   1032c:	02f12a23          	sw	a5,52(sp)
   10330:	02b12223          	sw	a1,36(sp)
   10334:	02e12823          	sw	a4,48(sp)
   10338:	03012c23          	sw	a6,56(sp)
   1033c:	03112e23          	sw	a7,60(sp)
   10340:	0082a583          	lw	a1,8(t0)
   10344:	02410793          	addi	a5,sp,36
   10348:	00050613          	mv	a2,a0
   1034c:	00078693          	mv	a3,a5
   10350:	00028513          	mv	a0,t0
   10354:	00112e23          	sw	ra,28(sp)
   10358:	00f12623          	sw	a5,12(sp)
   1035c:	010000ef          	jal	1036c <_vfprintf_r>
   10360:	01c12083          	lw	ra,28(sp)
   10364:	04010113          	addi	sp,sp,64
   10368:	00008067          	ret

0001036c <_vfprintf_r>:
   1036c:	ab010113          	addi	sp,sp,-1360
   10370:	54112623          	sw	ra,1356(sp)
   10374:	55212023          	sw	s2,1344(sp)
   10378:	53312e23          	sw	s3,1340(sp)
   1037c:	53612823          	sw	s6,1328(sp)
   10380:	00058993          	mv	s3,a1
   10384:	00060913          	mv	s2,a2
   10388:	02d12a23          	sw	a3,52(sp)
   1038c:	54812423          	sw	s0,1352(sp)
   10390:	54912223          	sw	s1,1348(sp)
   10394:	53412c23          	sw	s4,1336(sp)
   10398:	53512a23          	sw	s5,1332(sp)
   1039c:	53712623          	sw	s7,1324(sp)
   103a0:	53812423          	sw	s8,1320(sp)
   103a4:	53912223          	sw	s9,1316(sp)
   103a8:	53a12023          	sw	s10,1312(sp)
   103ac:	51b12e23          	sw	s11,1308(sp)
   103b0:	50813427          	fsd	fs0,1288(sp)
   103b4:	00050b13          	mv	s6,a0
   103b8:	54d030ef          	jal	14104 <_localeconv_r>
   103bc:	00052503          	lw	a0,0(a0)
   103c0:	04a12023          	sw	a0,64(sp)
   103c4:	421050ef          	jal	15fe4 <strlen>
   103c8:	04a12623          	sw	a0,76(sp)
   103cc:	000b0663          	beqz	s6,103d8 <_vfprintf_r+0x6c>
   103d0:	038b2783          	lw	a5,56(s6)
   103d4:	32078663          	beqz	a5,10700 <_vfprintf_r+0x394>
   103d8:	00c99703          	lh	a4,12(s3)
   103dc:	01071793          	slli	a5,a4,0x10
   103e0:	0107d793          	srli	a5,a5,0x10
   103e4:	01279293          	slli	t0,a5,0x12
   103e8:	0202c663          	bltz	t0,10414 <_vfprintf_r+0xa8>
   103ec:	0649a683          	lw	a3,100(s3)
   103f0:	000027b7          	lui	a5,0x2
   103f4:	00f76733          	or	a4,a4,a5
   103f8:	ffffe7b7          	lui	a5,0xffffe
   103fc:	fff78793          	addi	a5,a5,-1 # ffffdfff <_gp+0xfffe126f>
   10400:	00f6f7b3          	and	a5,a3,a5
   10404:	06f9a223          	sw	a5,100(s3)
   10408:	01071793          	slli	a5,a4,0x10
   1040c:	00e99623          	sh	a4,12(s3)
   10410:	0107d793          	srli	a5,a5,0x10
   10414:	0087f693          	andi	a3,a5,8
   10418:	18068e63          	beqz	a3,105b4 <_vfprintf_r+0x248>
   1041c:	0109a683          	lw	a3,16(s3)
   10420:	18068a63          	beqz	a3,105b4 <_vfprintf_r+0x248>
   10424:	01a7f793          	andi	a5,a5,26
   10428:	00a00693          	li	a3,10
   1042c:	1ad78a63          	beq	a5,a3,105e0 <_vfprintf_r+0x274>
   10430:	0001a7b7          	lui	a5,0x1a
   10434:	10010b93          	addi	s7,sp,256
   10438:	65478c13          	addi	s8,a5,1620 # 1a654 <blanks.4004>
   1043c:	0001a7b7          	lui	a5,0x1a
   10440:	04012823          	sw	zero,80(sp)
   10444:	04012a23          	sw	zero,84(sp)
   10448:	09712623          	sw	s7,140(sp)
   1044c:	08012a23          	sw	zero,148(sp)
   10450:	08012823          	sw	zero,144(sp)
   10454:	04012223          	sw	zero,68(sp)
   10458:	04012c23          	sw	zero,88(sp)
   1045c:	04012e23          	sw	zero,92(sp)
   10460:	02012c23          	sw	zero,56(sp)
   10464:	000b8693          	mv	a3,s7
   10468:	66478c93          	addi	s9,a5,1636 # 1a664 <zeroes.4005>
   1046c:	00094783          	lbu	a5,0(s2)
   10470:	120782e3          	beqz	a5,10d94 <_vfprintf_r+0xa28>
   10474:	02500713          	li	a4,37
   10478:	00090413          	mv	s0,s2
   1047c:	00e79663          	bne	a5,a4,10488 <_vfprintf_r+0x11c>
   10480:	0540006f          	j	104d4 <_vfprintf_r+0x168>
   10484:	00e78863          	beq	a5,a4,10494 <_vfprintf_r+0x128>
   10488:	00140413          	addi	s0,s0,1
   1048c:	00044783          	lbu	a5,0(s0)
   10490:	fe079ae3          	bnez	a5,10484 <_vfprintf_r+0x118>
   10494:	412404b3          	sub	s1,s0,s2
   10498:	02048e63          	beqz	s1,104d4 <_vfprintf_r+0x168>
   1049c:	09412703          	lw	a4,148(sp)
   104a0:	09012783          	lw	a5,144(sp)
   104a4:	0126a023          	sw	s2,0(a3)
   104a8:	00970733          	add	a4,a4,s1
   104ac:	00178793          	addi	a5,a5,1
   104b0:	08e12a23          	sw	a4,148(sp)
   104b4:	00700713          	li	a4,7
   104b8:	0096a223          	sw	s1,4(a3)
   104bc:	08f12823          	sw	a5,144(sp)
   104c0:	00868693          	addi	a3,a3,8
   104c4:	1af74a63          	blt	a4,a5,10678 <_vfprintf_r+0x30c>
   104c8:	03812283          	lw	t0,56(sp)
   104cc:	009282b3          	add	t0,t0,s1
   104d0:	02512c23          	sw	t0,56(sp)
   104d4:	00044783          	lbu	a5,0(s0)
   104d8:	1a078e63          	beqz	a5,10694 <_vfprintf_r+0x328>
   104dc:	00140913          	addi	s2,s0,1
   104e0:	060107a3          	sb	zero,111(sp)
   104e4:	00000593          	li	a1,0
   104e8:	00000513          	li	a0,0
   104ec:	fff00413          	li	s0,-1
   104f0:	02012423          	sw	zero,40(sp)
   104f4:	00000a93          	li	s5,0
   104f8:	05800713          	li	a4,88
   104fc:	00900613          	li	a2,9
   10500:	02a00813          	li	a6,42
   10504:	00000893          	li	a7,0
   10508:	00094d03          	lbu	s10,0(s2)
   1050c:	00190913          	addi	s2,s2,1
   10510:	fe0d0793          	addi	a5,s10,-32
   10514:	7ef76863          	bltu	a4,a5,10d04 <_vfprintf_r+0x998>
   10518:	0001a2b7          	lui	t0,0x1a
   1051c:	00279793          	slli	a5,a5,0x2
   10520:	4f028293          	addi	t0,t0,1264 # 1a4f0 <__errno+0x1c>
   10524:	005787b3          	add	a5,a5,t0
   10528:	0007a783          	lw	a5,0(a5)
   1052c:	00078067          	jr	a5
   10530:	010aea93          	ori	s5,s5,16
   10534:	fd5ff06f          	j	10508 <_vfprintf_r+0x19c>
   10538:	03412283          	lw	t0,52(sp)
   1053c:	0002a883          	lw	a7,0(t0)
   10540:	00428293          	addi	t0,t0,4
   10544:	02512a23          	sw	t0,52(sp)
   10548:	fc08d0e3          	bgez	a7,10508 <_vfprintf_r+0x19c>
   1054c:	411008b3          	neg	a7,a7
   10550:	004aea93          	ori	s5,s5,4
   10554:	fb5ff06f          	j	10508 <_vfprintf_r+0x19c>
   10558:	03412283          	lw	t0,52(sp)
   1055c:	03000613          	li	a2,48
   10560:	06c10823          	sb	a2,112(sp)
   10564:	07800613          	li	a2,120
   10568:	03112423          	sw	a7,40(sp)
   1056c:	00428713          	addi	a4,t0,4
   10570:	0002a783          	lw	a5,0(t0)
   10574:	002ae593          	ori	a1,s5,2
   10578:	06c108a3          	sb	a2,113(sp)
   1057c:	060107a3          	sb	zero,111(sp)
   10580:	7a044a63          	bltz	s0,10d34 <_vfprintf_r+0x9c8>
   10584:	f7fafa93          	andi	s5,s5,-129
   10588:	002aea93          	ori	s5,s5,2
   1058c:	02e12a23          	sw	a4,52(sp)
   10590:	74079e63          	bnez	a5,10cec <_vfprintf_r+0x980>
   10594:	0001b7b7          	lui	a5,0x1b
   10598:	ab078793          	addi	a5,a5,-1360 # 1aab0 <__clz_tab+0x128>
   1059c:	04f12c23          	sw	a5,88(sp)
   105a0:	07800d13          	li	s10,120
   105a4:	00000813          	li	a6,0
   105a8:	00000793          	li	a5,0
   105ac:	64041c63          	bnez	s0,10c04 <_vfprintf_r+0x898>
   105b0:	4b40006f          	j	10a64 <_vfprintf_r+0x6f8>
   105b4:	00098593          	mv	a1,s3
   105b8:	000b0513          	mv	a0,s6
   105bc:	141010ef          	jal	11efc <__swsetup_r>
   105c0:	00050463          	beqz	a0,105c8 <_vfprintf_r+0x25c>
   105c4:	2f40106f          	j	118b8 <_vfprintf_r+0x154c>
   105c8:	00c99703          	lh	a4,12(s3)
   105cc:	00a00693          	li	a3,10
   105d0:	01071793          	slli	a5,a4,0x10
   105d4:	0107d793          	srli	a5,a5,0x10
   105d8:	01a7f793          	andi	a5,a5,26
   105dc:	e4d79ae3          	bne	a5,a3,10430 <_vfprintf_r+0xc4>
   105e0:	00e99783          	lh	a5,14(s3)
   105e4:	e407c6e3          	bltz	a5,10430 <_vfprintf_r+0xc4>
   105e8:	0649a303          	lw	t1,100(s3)
   105ec:	01c9a283          	lw	t0,28(s3)
   105f0:	0249a883          	lw	a7,36(s3)
   105f4:	03412683          	lw	a3,52(sp)
   105f8:	ffd77713          	andi	a4,a4,-3
   105fc:	40000813          	li	a6,1024
   10600:	0ae11223          	sh	a4,164(sp)
   10604:	00090613          	mv	a2,s2
   10608:	10010713          	addi	a4,sp,256
   1060c:	09810593          	addi	a1,sp,152
   10610:	000b0513          	mv	a0,s6
   10614:	0e612e23          	sw	t1,252(sp)
   10618:	0af11323          	sh	a5,166(sp)
   1061c:	0a512a23          	sw	t0,180(sp)
   10620:	0b112e23          	sw	a7,188(sp)
   10624:	08e12c23          	sw	a4,152(sp)
   10628:	0ae12423          	sw	a4,168(sp)
   1062c:	0b012023          	sw	a6,160(sp)
   10630:	0b012623          	sw	a6,172(sp)
   10634:	0a012823          	sw	zero,176(sp)
   10638:	d35ff0ef          	jal	1036c <_vfprintf_r>
   1063c:	00050413          	mv	s0,a0
   10640:	00054c63          	bltz	a0,10658 <_vfprintf_r+0x2ec>
   10644:	09810593          	addi	a1,sp,152
   10648:	000b0513          	mv	a0,s6
   1064c:	6bd020ef          	jal	13508 <_fflush_r>
   10650:	00050463          	beqz	a0,10658 <_vfprintf_r+0x2ec>
   10654:	7bc0106f          	j	11e10 <_vfprintf_r+0x1aa4>
   10658:	0a415783          	lhu	a5,164(sp)
   1065c:	0407f793          	andi	a5,a5,64
   10660:	00078863          	beqz	a5,10670 <_vfprintf_r+0x304>
   10664:	00c9d783          	lhu	a5,12(s3)
   10668:	0407e793          	ori	a5,a5,64
   1066c:	00f99623          	sh	a5,12(s3)
   10670:	00040513          	mv	a0,s0
   10674:	04c0006f          	j	106c0 <_vfprintf_r+0x354>
   10678:	08c10613          	addi	a2,sp,140
   1067c:	00098593          	mv	a1,s3
   10680:	000b0513          	mv	a0,s6
   10684:	2d9050ef          	jal	1615c <__sprint_r>
   10688:	02051263          	bnez	a0,106ac <_vfprintf_r+0x340>
   1068c:	000b8693          	mv	a3,s7
   10690:	e39ff06f          	j	104c8 <_vfprintf_r+0x15c>
   10694:	09412783          	lw	a5,148(sp)
   10698:	00078a63          	beqz	a5,106ac <_vfprintf_r+0x340>
   1069c:	08c10613          	addi	a2,sp,140
   106a0:	00098593          	mv	a1,s3
   106a4:	000b0513          	mv	a0,s6
   106a8:	2b5050ef          	jal	1615c <__sprint_r>
   106ac:	00c9d783          	lhu	a5,12(s3)
   106b0:	0407f793          	andi	a5,a5,64
   106b4:	00078463          	beqz	a5,106bc <_vfprintf_r+0x350>
   106b8:	2000106f          	j	118b8 <_vfprintf_r+0x154c>
   106bc:	03812503          	lw	a0,56(sp)
   106c0:	54c12083          	lw	ra,1356(sp)
   106c4:	54812403          	lw	s0,1352(sp)
   106c8:	54412483          	lw	s1,1348(sp)
   106cc:	54012903          	lw	s2,1344(sp)
   106d0:	53c12983          	lw	s3,1340(sp)
   106d4:	53812a03          	lw	s4,1336(sp)
   106d8:	53412a83          	lw	s5,1332(sp)
   106dc:	53012b03          	lw	s6,1328(sp)
   106e0:	52c12b83          	lw	s7,1324(sp)
   106e4:	52812c03          	lw	s8,1320(sp)
   106e8:	52412c83          	lw	s9,1316(sp)
   106ec:	52012d03          	lw	s10,1312(sp)
   106f0:	51c12d83          	lw	s11,1308(sp)
   106f4:	50813407          	fld	fs0,1288(sp)
   106f8:	55010113          	addi	sp,sp,1360
   106fc:	00008067          	ret
   10700:	000b0513          	mv	a0,s6
   10704:	3f4030ef          	jal	13af8 <__sinit>
   10708:	cd1ff06f          	j	103d8 <_vfprintf_r+0x6c>
   1070c:	00100593          	li	a1,1
   10710:	02b00513          	li	a0,43
   10714:	df5ff06f          	j	10508 <_vfprintf_r+0x19c>
   10718:	03112423          	sw	a7,40(sp)
   1071c:	00058463          	beqz	a1,10724 <_vfprintf_r+0x3b8>
   10720:	7600106f          	j	11e80 <_vfprintf_r+0x1b14>
   10724:	010af793          	andi	a5,s5,16
   10728:	40078263          	beqz	a5,10b2c <_vfprintf_r+0x7c0>
   1072c:	03412283          	lw	t0,52(sp)
   10730:	0002a783          	lw	a5,0(t0)
   10734:	00428713          	addi	a4,t0,4
   10738:	060107a3          	sb	zero,111(sp)
   1073c:	40044663          	bltz	s0,10b48 <_vfprintf_r+0x7dc>
   10740:	f7fafa93          	andi	s5,s5,-129
   10744:	02e12a23          	sw	a4,52(sp)
   10748:	40079663          	bnez	a5,10b54 <_vfprintf_r+0x7e8>
   1074c:	00000813          	li	a6,0
   10750:	00000793          	li	a5,0
   10754:	00041463          	bnez	s0,1075c <_vfprintf_r+0x3f0>
   10758:	6f80106f          	j	11e50 <_vfprintf_r+0x1ae4>
   1075c:	0c010893          	addi	a7,sp,192
   10760:	00088a13          	mv	s4,a7
   10764:	0077f713          	andi	a4,a5,7
   10768:	fffa0a13          	addi	s4,s4,-1
   1076c:	03070713          	addi	a4,a4,48
   10770:	0037d793          	srli	a5,a5,0x3
   10774:	00ea0023          	sb	a4,0(s4)
   10778:	fe0796e3          	bnez	a5,10764 <_vfprintf_r+0x3f8>
   1077c:	001af793          	andi	a5,s5,1
   10780:	26078663          	beqz	a5,109ec <_vfprintf_r+0x680>
   10784:	03000793          	li	a5,48
   10788:	26f70263          	beq	a4,a5,109ec <_vfprintf_r+0x680>
   1078c:	fffa0713          	addi	a4,s4,-1
   10790:	40e888b3          	sub	a7,a7,a4
   10794:	fefa0fa3          	sb	a5,-1(s4)
   10798:	03112823          	sw	a7,48(sp)
   1079c:	00070a13          	mv	s4,a4
   107a0:	03012783          	lw	a5,48(sp)
   107a4:	0087d463          	ble	s0,a5,107ac <_vfprintf_r+0x440>
   107a8:	00040793          	mv	a5,s0
   107ac:	02f12223          	sw	a5,36(sp)
   107b0:	00080863          	beqz	a6,107c0 <_vfprintf_r+0x454>
   107b4:	02412283          	lw	t0,36(sp)
   107b8:	00128293          	addi	t0,t0,1
   107bc:	02512223          	sw	t0,36(sp)
   107c0:	002af713          	andi	a4,s5,2
   107c4:	02e12623          	sw	a4,44(sp)
   107c8:	00070863          	beqz	a4,107d8 <_vfprintf_r+0x46c>
   107cc:	02412783          	lw	a5,36(sp)
   107d0:	00278793          	addi	a5,a5,2
   107d4:	02f12223          	sw	a5,36(sp)
   107d8:	084af293          	andi	t0,s5,132
   107dc:	02512e23          	sw	t0,60(sp)
   107e0:	5a029e63          	bnez	t0,10d9c <_vfprintf_r+0xa30>
   107e4:	02812283          	lw	t0,40(sp)
   107e8:	02412703          	lw	a4,36(sp)
   107ec:	40e284b3          	sub	s1,t0,a4
   107f0:	5a905663          	blez	s1,10d9c <_vfprintf_r+0xa30>
   107f4:	01000893          	li	a7,16
   107f8:	09412703          	lw	a4,148(sp)
   107fc:	09012783          	lw	a5,144(sp)
   10800:	05812423          	sw	s8,72(sp)
   10804:	0698d263          	ble	s1,a7,10868 <_vfprintf_r+0x4fc>
   10808:	00700d93          	li	s11,7
   1080c:	00c0006f          	j	10818 <_vfprintf_r+0x4ac>
   10810:	ff048493          	addi	s1,s1,-16
   10814:	0498da63          	ble	s1,a7,10868 <_vfprintf_r+0x4fc>
   10818:	01070713          	addi	a4,a4,16
   1081c:	00178793          	addi	a5,a5,1
   10820:	0186a023          	sw	s8,0(a3)
   10824:	0116a223          	sw	a7,4(a3)
   10828:	08e12a23          	sw	a4,148(sp)
   1082c:	08f12823          	sw	a5,144(sp)
   10830:	00868693          	addi	a3,a3,8
   10834:	fcfddee3          	ble	a5,s11,10810 <_vfprintf_r+0x4a4>
   10838:	08c10613          	addi	a2,sp,140
   1083c:	00098593          	mv	a1,s3
   10840:	000b0513          	mv	a0,s6
   10844:	03112023          	sw	a7,32(sp)
   10848:	115050ef          	jal	1615c <__sprint_r>
   1084c:	02012883          	lw	a7,32(sp)
   10850:	e4051ee3          	bnez	a0,106ac <_vfprintf_r+0x340>
   10854:	ff048493          	addi	s1,s1,-16
   10858:	09412703          	lw	a4,148(sp)
   1085c:	09012783          	lw	a5,144(sp)
   10860:	000b8693          	mv	a3,s7
   10864:	fa98cae3          	blt	a7,s1,10818 <_vfprintf_r+0x4ac>
   10868:	04812283          	lw	t0,72(sp)
   1086c:	00e48633          	add	a2,s1,a4
   10870:	00178793          	addi	a5,a5,1
   10874:	00700713          	li	a4,7
   10878:	0056a023          	sw	t0,0(a3)
   1087c:	0096a223          	sw	s1,4(a3)
   10880:	08c12a23          	sw	a2,148(sp)
   10884:	08f12823          	sw	a5,144(sp)
   10888:	00868693          	addi	a3,a3,8
   1088c:	50f75c63          	ble	a5,a4,10da4 <_vfprintf_r+0xa38>
   10890:	08c10613          	addi	a2,sp,140
   10894:	00098593          	mv	a1,s3
   10898:	000b0513          	mv	a0,s6
   1089c:	0c1050ef          	jal	1615c <__sprint_r>
   108a0:	e00516e3          	bnez	a0,106ac <_vfprintf_r+0x340>
   108a4:	09412603          	lw	a2,148(sp)
   108a8:	09012783          	lw	a5,144(sp)
   108ac:	000b8693          	mv	a3,s7
   108b0:	4f40006f          	j	10da4 <_vfprintf_r+0xa38>
   108b4:	00094d03          	lbu	s10,0(s2)
   108b8:	00190913          	addi	s2,s2,1
   108bc:	010d1463          	bne	s10,a6,108c4 <_vfprintf_r+0x558>
   108c0:	5680106f          	j	11e28 <_vfprintf_r+0x1abc>
   108c4:	fd0d0793          	addi	a5,s10,-48
   108c8:	00000413          	li	s0,0
   108cc:	c4f662e3          	bltu	a2,a5,10510 <_vfprintf_r+0x1a4>
   108d0:	00190913          	addi	s2,s2,1
   108d4:	fff94d03          	lbu	s10,-1(s2)
   108d8:	00141293          	slli	t0,s0,0x1
   108dc:	00341413          	slli	s0,s0,0x3
   108e0:	00828433          	add	s0,t0,s0
   108e4:	00f40433          	add	s0,s0,a5
   108e8:	fd0d0793          	addi	a5,s10,-48
   108ec:	fef672e3          	bleu	a5,a2,108d0 <_vfprintf_r+0x564>
   108f0:	c20450e3          	bgez	s0,10510 <_vfprintf_r+0x1a4>
   108f4:	fff00413          	li	s0,-1
   108f8:	c19ff06f          	j	10510 <_vfprintf_r+0x1a4>
   108fc:	080aea93          	ori	s5,s5,128
   10900:	c09ff06f          	j	10508 <_vfprintf_r+0x19c>
   10904:	001aea93          	ori	s5,s5,1
   10908:	c01ff06f          	j	10508 <_vfprintf_r+0x19c>
   1090c:	03412283          	lw	t0,52(sp)
   10910:	03112423          	sw	a7,40(sp)
   10914:	060107a3          	sb	zero,111(sp)
   10918:	0002aa03          	lw	s4,0(t0)
   1091c:	00428493          	addi	s1,t0,4
   10920:	000a1463          	bnez	s4,10928 <_vfprintf_r+0x5bc>
   10924:	0f80106f          	j	11a1c <_vfprintf_r+0x16b0>
   10928:	00045463          	bgez	s0,10930 <_vfprintf_r+0x5c4>
   1092c:	0a80106f          	j	119d4 <_vfprintf_r+0x1668>
   10930:	00040613          	mv	a2,s0
   10934:	00000593          	li	a1,0
   10938:	000a0513          	mv	a0,s4
   1093c:	00d12e23          	sw	a3,28(sp)
   10940:	0f4040ef          	jal	14a34 <memchr>
   10944:	01c12683          	lw	a3,28(sp)
   10948:	00051463          	bnez	a0,10950 <_vfprintf_r+0x5e4>
   1094c:	2780106f          	j	11bc4 <_vfprintf_r+0x1858>
   10950:	41450533          	sub	a0,a0,s4
   10954:	02812823          	sw	s0,48(sp)
   10958:	78854ae3          	blt	a0,s0,118ec <_vfprintf_r+0x1580>
   1095c:	03012783          	lw	a5,48(sp)
   10960:	0007d463          	bgez	a5,10968 <_vfprintf_r+0x5fc>
   10964:	0900106f          	j	119f4 <_vfprintf_r+0x1688>
   10968:	06f14803          	lbu	a6,111(sp)
   1096c:	02f12223          	sw	a5,36(sp)
   10970:	02912a23          	sw	s1,52(sp)
   10974:	00000413          	li	s0,0
   10978:	e39ff06f          	j	107b0 <_vfprintf_r+0x444>
   1097c:	03112423          	sw	a7,40(sp)
   10980:	00058463          	beqz	a1,10988 <_vfprintf_r+0x61c>
   10984:	53c0106f          	j	11ec0 <_vfprintf_r+0x1b54>
   10988:	010af793          	andi	a5,s5,16
   1098c:	1e078463          	beqz	a5,10b74 <_vfprintf_r+0x808>
   10990:	03412283          	lw	t0,52(sp)
   10994:	0002a783          	lw	a5,0(t0)
   10998:	00428713          	addi	a4,t0,4
   1099c:	060107a3          	sb	zero,111(sp)
   109a0:	1e044863          	bltz	s0,10b90 <_vfprintf_r+0x824>
   109a4:	f7fafa93          	andi	s5,s5,-129
   109a8:	02e12a23          	sw	a4,52(sp)
   109ac:	00000813          	li	a6,0
   109b0:	0a078863          	beqz	a5,10a60 <_vfprintf_r+0x6f4>
   109b4:	0c010893          	addi	a7,sp,192
   109b8:	00900513          	li	a0,9
   109bc:	00088613          	mv	a2,a7
   109c0:	00a00593          	li	a1,10
   109c4:	00f57e63          	bleu	a5,a0,109e0 <_vfprintf_r+0x674>
   109c8:	02b7f733          	remu	a4,a5,a1
   109cc:	fff60613          	addi	a2,a2,-1
   109d0:	02b7d7b3          	divu	a5,a5,a1
   109d4:	03070713          	addi	a4,a4,48
   109d8:	00e60023          	sb	a4,0(a2)
   109dc:	fef566e3          	bltu	a0,a5,109c8 <_vfprintf_r+0x65c>
   109e0:	03078793          	addi	a5,a5,48
   109e4:	fff60a13          	addi	s4,a2,-1
   109e8:	fef60fa3          	sb	a5,-1(a2)
   109ec:	414888b3          	sub	a7,a7,s4
   109f0:	03112823          	sw	a7,48(sp)
   109f4:	dadff06f          	j	107a0 <_vfprintf_r+0x434>
   109f8:	00000893          	li	a7,0
   109fc:	fd0d0793          	addi	a5,s10,-48
   10a00:	00190913          	addi	s2,s2,1
   10a04:	fff94d03          	lbu	s10,-1(s2)
   10a08:	00189293          	slli	t0,a7,0x1
   10a0c:	00389893          	slli	a7,a7,0x3
   10a10:	011288b3          	add	a7,t0,a7
   10a14:	011788b3          	add	a7,a5,a7
   10a18:	fd0d0793          	addi	a5,s10,-48
   10a1c:	fef672e3          	bleu	a5,a2,10a00 <_vfprintf_r+0x694>
   10a20:	af1ff06f          	j	10510 <_vfprintf_r+0x1a4>
   10a24:	03112423          	sw	a7,40(sp)
   10a28:	00058463          	beqz	a1,10a30 <_vfprintf_r+0x6c4>
   10a2c:	48c0106f          	j	11eb8 <_vfprintf_r+0x1b4c>
   10a30:	010aea93          	ori	s5,s5,16
   10a34:	010af793          	andi	a5,s5,16
   10a38:	1e0784e3          	beqz	a5,11420 <_vfprintf_r+0x10b4>
   10a3c:	03412283          	lw	t0,52(sp)
   10a40:	0002a783          	lw	a5,0(t0)
   10a44:	00428293          	addi	t0,t0,4
   10a48:	02512a23          	sw	t0,52(sp)
   10a4c:	2e07c4e3          	bltz	a5,11534 <_vfprintf_r+0x11c8>
   10a50:	06f14803          	lbu	a6,111(sp)
   10a54:	14044263          	bltz	s0,10b98 <_vfprintf_r+0x82c>
   10a58:	f7fafa93          	andi	s5,s5,-129
   10a5c:	f4079ce3          	bnez	a5,109b4 <_vfprintf_r+0x648>
   10a60:	6e0410e3          	bnez	s0,11940 <_vfprintf_r+0x15d4>
   10a64:	00000413          	li	s0,0
   10a68:	02012823          	sw	zero,48(sp)
   10a6c:	0c010a13          	addi	s4,sp,192
   10a70:	d31ff06f          	j	107a0 <_vfprintf_r+0x434>
   10a74:	03112423          	sw	a7,40(sp)
   10a78:	00058463          	beqz	a1,10a80 <_vfprintf_r+0x714>
   10a7c:	4340106f          	j	11eb0 <_vfprintf_r+0x1b44>
   10a80:	008af793          	andi	a5,s5,8
   10a84:	03412283          	lw	t0,52(sp)
   10a88:	400782e3          	beqz	a5,1168c <_vfprintf_r+0x1320>
   10a8c:	00728793          	addi	a5,t0,7
   10a90:	ff87f793          	andi	a5,a5,-8
   10a94:	0007b007          	fld	ft0,0(a5)
   10a98:	00878293          	addi	t0,a5,8
   10a9c:	02512a23          	sw	t0,52(sp)
   10aa0:	04013827          	fsd	ft0,80(sp)
   10aa4:	05013507          	fld	fa0,80(sp)
   10aa8:	00d12e23          	sw	a3,28(sp)
   10aac:	00100a13          	li	s4,1
   10ab0:	24c050ef          	jal	15cfc <__fpclassifyd>
   10ab4:	01c12683          	lw	a3,28(sp)
   10ab8:	29451ce3          	bne	a0,s4,11550 <_vfprintf_r+0x11e4>
   10abc:	05013087          	fld	ft1,80(sp)
   10ac0:	d2000053          	fcvt.d.w	ft0,zero
   10ac4:	a20097d3          	flt.d	a5,ft1,ft0
   10ac8:	00078463          	beqz	a5,10ad0 <_vfprintf_r+0x764>
   10acc:	7c50006f          	j	11a90 <_vfprintf_r+0x1724>
   10ad0:	06f14803          	lbu	a6,111(sp)
   10ad4:	04700793          	li	a5,71
   10ad8:	61a7dee3          	ble	s10,a5,118f4 <_vfprintf_r+0x1588>
   10adc:	0001ba37          	lui	s4,0x1b
   10ae0:	a90a0a13          	addi	s4,s4,-1392 # 1aa90 <__clz_tab+0x108>
   10ae4:	00300293          	li	t0,3
   10ae8:	02512223          	sw	t0,36(sp)
   10aec:	f7fafa93          	andi	s5,s5,-129
   10af0:	02512823          	sw	t0,48(sp)
   10af4:	00000413          	li	s0,0
   10af8:	cb9ff06f          	j	107b0 <_vfprintf_r+0x444>
   10afc:	008aea93          	ori	s5,s5,8
   10b00:	a09ff06f          	j	10508 <_vfprintf_r+0x19c>
   10b04:	a00512e3          	bnez	a0,10508 <_vfprintf_r+0x19c>
   10b08:	00100593          	li	a1,1
   10b0c:	02000513          	li	a0,32
   10b10:	9f9ff06f          	j	10508 <_vfprintf_r+0x19c>
   10b14:	03112423          	sw	a7,40(sp)
   10b18:	00058463          	beqz	a1,10b20 <_vfprintf_r+0x7b4>
   10b1c:	3b80106f          	j	11ed4 <_vfprintf_r+0x1b68>
   10b20:	010aea93          	ori	s5,s5,16
   10b24:	010af793          	andi	a5,s5,16
   10b28:	c00792e3          	bnez	a5,1072c <_vfprintf_r+0x3c0>
   10b2c:	03412283          	lw	t0,52(sp)
   10b30:	040af793          	andi	a5,s5,64
   10b34:	00428713          	addi	a4,t0,4
   10b38:	1a0780e3          	beqz	a5,114d8 <_vfprintf_r+0x116c>
   10b3c:	0002d783          	lhu	a5,0(t0)
   10b40:	060107a3          	sb	zero,111(sp)
   10b44:	be045ee3          	bgez	s0,10740 <_vfprintf_r+0x3d4>
   10b48:	02e12a23          	sw	a4,52(sp)
   10b4c:	00000813          	li	a6,0
   10b50:	20078463          	beqz	a5,10d58 <_vfprintf_r+0x9ec>
   10b54:	00000813          	li	a6,0
   10b58:	c05ff06f          	j	1075c <_vfprintf_r+0x3f0>
   10b5c:	03112423          	sw	a7,40(sp)
   10b60:	00058463          	beqz	a1,10b68 <_vfprintf_r+0x7fc>
   10b64:	3640106f          	j	11ec8 <_vfprintf_r+0x1b5c>
   10b68:	010aea93          	ori	s5,s5,16
   10b6c:	010af793          	andi	a5,s5,16
   10b70:	e20790e3          	bnez	a5,10990 <_vfprintf_r+0x624>
   10b74:	03412283          	lw	t0,52(sp)
   10b78:	040af793          	andi	a5,s5,64
   10b7c:	00428713          	addi	a4,t0,4
   10b80:	120782e3          	beqz	a5,114a4 <_vfprintf_r+0x1138>
   10b84:	0002d783          	lhu	a5,0(t0)
   10b88:	060107a3          	sb	zero,111(sp)
   10b8c:	e0045ce3          	bgez	s0,109a4 <_vfprintf_r+0x638>
   10b90:	02e12a23          	sw	a4,52(sp)
   10b94:	00000813          	li	a6,0
   10b98:	e0079ee3          	bnez	a5,109b4 <_vfprintf_r+0x648>
   10b9c:	00100793          	li	a5,1
   10ba0:	1b80006f          	j	10d58 <_vfprintf_r+0x9ec>
   10ba4:	03112423          	sw	a7,40(sp)
   10ba8:	00058463          	beqz	a1,10bb0 <_vfprintf_r+0x844>
   10bac:	2e40106f          	j	11e90 <_vfprintf_r+0x1b24>
   10bb0:	0001b7b7          	lui	a5,0x1b
   10bb4:	a9c78793          	addi	a5,a5,-1380 # 1aa9c <__clz_tab+0x114>
   10bb8:	04f12c23          	sw	a5,88(sp)
   10bbc:	010af793          	andi	a5,s5,16
   10bc0:	0c078e63          	beqz	a5,10c9c <_vfprintf_r+0x930>
   10bc4:	03412283          	lw	t0,52(sp)
   10bc8:	0002a783          	lw	a5,0(t0)
   10bcc:	00428293          	addi	t0,t0,4
   10bd0:	02512a23          	sw	t0,52(sp)
   10bd4:	001af713          	andi	a4,s5,1
   10bd8:	78070463          	beqz	a4,11360 <_vfprintf_r+0xff4>
   10bdc:	2e0786e3          	beqz	a5,116c8 <_vfprintf_r+0x135c>
   10be0:	03000713          	li	a4,48
   10be4:	06e10823          	sb	a4,112(sp)
   10be8:	07a108a3          	sb	s10,113(sp)
   10bec:	002ae713          	ori	a4,s5,2
   10bf0:	060107a3          	sb	zero,111(sp)
   10bf4:	6c0440e3          	bltz	s0,11ab4 <_vfprintf_r+0x1748>
   10bf8:	f7fafa93          	andi	s5,s5,-129
   10bfc:	002aea93          	ori	s5,s5,2
   10c00:	00000813          	li	a6,0
   10c04:	05812603          	lw	a2,88(sp)
   10c08:	0c010893          	addi	a7,sp,192
   10c0c:	00088a13          	mv	s4,a7
   10c10:	00f7f713          	andi	a4,a5,15
   10c14:	00e60733          	add	a4,a2,a4
   10c18:	00074703          	lbu	a4,0(a4)
   10c1c:	fffa0a13          	addi	s4,s4,-1
   10c20:	0047d793          	srli	a5,a5,0x4
   10c24:	00ea0023          	sb	a4,0(s4)
   10c28:	fe0794e3          	bnez	a5,10c10 <_vfprintf_r+0x8a4>
   10c2c:	dc1ff06f          	j	109ec <_vfprintf_r+0x680>
   10c30:	03412283          	lw	t0,52(sp)
   10c34:	00100713          	li	a4,1
   10c38:	03112423          	sw	a7,40(sp)
   10c3c:	0002a783          	lw	a5,0(t0)
   10c40:	00428293          	addi	t0,t0,4
   10c44:	02e12223          	sw	a4,36(sp)
   10c48:	060107a3          	sb	zero,111(sp)
   10c4c:	08f10c23          	sb	a5,152(sp)
   10c50:	02512a23          	sw	t0,52(sp)
   10c54:	02e12823          	sw	a4,48(sp)
   10c58:	09810a13          	addi	s4,sp,152
   10c5c:	00000413          	li	s0,0
   10c60:	b61ff06f          	j	107c0 <_vfprintf_r+0x454>
   10c64:	03112423          	sw	a7,40(sp)
   10c68:	dc0586e3          	beqz	a1,10a34 <_vfprintf_r+0x6c8>
   10c6c:	06a107a3          	sb	a0,111(sp)
   10c70:	dc5ff06f          	j	10a34 <_vfprintf_r+0x6c8>
   10c74:	040aea93          	ori	s5,s5,64
   10c78:	891ff06f          	j	10508 <_vfprintf_r+0x19c>
   10c7c:	03112423          	sw	a7,40(sp)
   10c80:	00058463          	beqz	a1,10c88 <_vfprintf_r+0x91c>
   10c84:	21c0106f          	j	11ea0 <_vfprintf_r+0x1b34>
   10c88:	0001b7b7          	lui	a5,0x1b
   10c8c:	ab078793          	addi	a5,a5,-1360 # 1aab0 <__clz_tab+0x128>
   10c90:	04f12c23          	sw	a5,88(sp)
   10c94:	010af793          	andi	a5,s5,16
   10c98:	f20796e3          	bnez	a5,10bc4 <_vfprintf_r+0x858>
   10c9c:	040af793          	andi	a5,s5,64
   10ca0:	03412283          	lw	t0,52(sp)
   10ca4:	20078ae3          	beqz	a5,116b8 <_vfprintf_r+0x134c>
   10ca8:	0002d783          	lhu	a5,0(t0)
   10cac:	00428293          	addi	t0,t0,4
   10cb0:	02512a23          	sw	t0,52(sp)
   10cb4:	f21ff06f          	j	10bd4 <_vfprintf_r+0x868>
   10cb8:	00058463          	beqz	a1,10cc0 <_vfprintf_r+0x954>
   10cbc:	2240106f          	j	11ee0 <_vfprintf_r+0x1b74>
   10cc0:	010af793          	andi	a5,s5,16
   10cc4:	0a079863          	bnez	a5,10d74 <_vfprintf_r+0xa08>
   10cc8:	040afa93          	andi	s5,s5,64
   10ccc:	0a0a8463          	beqz	s5,10d74 <_vfprintf_r+0xa08>
   10cd0:	03412283          	lw	t0,52(sp)
   10cd4:	0002a783          	lw	a5,0(t0)
   10cd8:	00428293          	addi	t0,t0,4
   10cdc:	02512a23          	sw	t0,52(sp)
   10ce0:	03812283          	lw	t0,56(sp)
   10ce4:	00579023          	sh	t0,0(a5)
   10ce8:	f84ff06f          	j	1046c <_vfprintf_r+0x100>
   10cec:	0001b737          	lui	a4,0x1b
   10cf0:	ab070713          	addi	a4,a4,-1360 # 1aab0 <__clz_tab+0x128>
   10cf4:	00000813          	li	a6,0
   10cf8:	04e12c23          	sw	a4,88(sp)
   10cfc:	07800d13          	li	s10,120
   10d00:	f05ff06f          	j	10c04 <_vfprintf_r+0x898>
   10d04:	03112423          	sw	a7,40(sp)
   10d08:	00058463          	beqz	a1,10d10 <_vfprintf_r+0x9a4>
   10d0c:	18c0106f          	j	11e98 <_vfprintf_r+0x1b2c>
   10d10:	980d02e3          	beqz	s10,10694 <_vfprintf_r+0x328>
   10d14:	00100793          	li	a5,1
   10d18:	02f12223          	sw	a5,36(sp)
   10d1c:	09a10c23          	sb	s10,152(sp)
   10d20:	060107a3          	sb	zero,111(sp)
   10d24:	02f12823          	sw	a5,48(sp)
   10d28:	09810a13          	addi	s4,sp,152
   10d2c:	00000413          	li	s0,0
   10d30:	a91ff06f          	j	107c0 <_vfprintf_r+0x454>
   10d34:	02e12a23          	sw	a4,52(sp)
   10d38:	0001b737          	lui	a4,0x1b
   10d3c:	ab070713          	addi	a4,a4,-1360 # 1aab0 <__clz_tab+0x128>
   10d40:	00058a93          	mv	s5,a1
   10d44:	04e12c23          	sw	a4,88(sp)
   10d48:	07800d13          	li	s10,120
   10d4c:	62079263          	bnez	a5,11370 <_vfprintf_r+0x1004>
   10d50:	00000813          	li	a6,0
   10d54:	00200793          	li	a5,2
   10d58:	00100713          	li	a4,1
   10d5c:	3ee782e3          	beq	a5,a4,11940 <_vfprintf_r+0x15d4>
   10d60:	00200713          	li	a4,2
   10d64:	00e79463          	bne	a5,a4,10d6c <_vfprintf_r+0xa00>
   10d68:	1200106f          	j	11e88 <_vfprintf_r+0x1b1c>
   10d6c:	00000793          	li	a5,0
   10d70:	9edff06f          	j	1075c <_vfprintf_r+0x3f0>
   10d74:	03412283          	lw	t0,52(sp)
   10d78:	0002a783          	lw	a5,0(t0)
   10d7c:	00428293          	addi	t0,t0,4
   10d80:	02512a23          	sw	t0,52(sp)
   10d84:	03812283          	lw	t0,56(sp)
   10d88:	0057a023          	sw	t0,0(a5)
   10d8c:	00094783          	lbu	a5,0(s2)
   10d90:	ee079263          	bnez	a5,10474 <_vfprintf_r+0x108>
   10d94:	00090413          	mv	s0,s2
   10d98:	f3cff06f          	j	104d4 <_vfprintf_r+0x168>
   10d9c:	09412603          	lw	a2,148(sp)
   10da0:	09012783          	lw	a5,144(sp)
   10da4:	06f14703          	lbu	a4,111(sp)
   10da8:	02070863          	beqz	a4,10dd8 <_vfprintf_r+0xa6c>
   10dac:	06f10713          	addi	a4,sp,111
   10db0:	00e6a023          	sw	a4,0(a3)
   10db4:	00100713          	li	a4,1
   10db8:	00e6a223          	sw	a4,4(a3)
   10dbc:	00160613          	addi	a2,a2,1
   10dc0:	00178793          	addi	a5,a5,1
   10dc4:	00700713          	li	a4,7
   10dc8:	08c12a23          	sw	a2,148(sp)
   10dcc:	08f12823          	sw	a5,144(sp)
   10dd0:	00868693          	addi	a3,a3,8
   10dd4:	54f74263          	blt	a4,a5,11318 <_vfprintf_r+0xfac>
   10dd8:	02c12703          	lw	a4,44(sp)
   10ddc:	02070863          	beqz	a4,10e0c <_vfprintf_r+0xaa0>
   10de0:	07010713          	addi	a4,sp,112
   10de4:	00e6a023          	sw	a4,0(a3)
   10de8:	00200713          	li	a4,2
   10dec:	00e6a223          	sw	a4,4(a3)
   10df0:	00260613          	addi	a2,a2,2
   10df4:	00178793          	addi	a5,a5,1
   10df8:	00700713          	li	a4,7
   10dfc:	08c12a23          	sw	a2,148(sp)
   10e00:	08f12823          	sw	a5,144(sp)
   10e04:	00868693          	addi	a3,a3,8
   10e08:	52f74a63          	blt	a4,a5,1133c <_vfprintf_r+0xfd0>
   10e0c:	03c12283          	lw	t0,60(sp)
   10e10:	08000713          	li	a4,128
   10e14:	30e28e63          	beq	t0,a4,11130 <_vfprintf_r+0xdc4>
   10e18:	03012703          	lw	a4,48(sp)
   10e1c:	40e40433          	sub	s0,s0,a4
   10e20:	0a805a63          	blez	s0,10ed4 <_vfprintf_r+0xb68>
   10e24:	01000713          	li	a4,16
   10e28:	03912623          	sw	s9,44(sp)
   10e2c:	06875063          	ble	s0,a4,10e8c <_vfprintf_r+0xb20>
   10e30:	00070493          	mv	s1,a4
   10e34:	00700d93          	li	s11,7
   10e38:	00c0006f          	j	10e44 <_vfprintf_r+0xad8>
   10e3c:	ff040413          	addi	s0,s0,-16
   10e40:	0484d663          	ble	s0,s1,10e8c <_vfprintf_r+0xb20>
   10e44:	01060613          	addi	a2,a2,16
   10e48:	00178793          	addi	a5,a5,1
   10e4c:	0196a023          	sw	s9,0(a3)
   10e50:	0096a223          	sw	s1,4(a3)
   10e54:	08c12a23          	sw	a2,148(sp)
   10e58:	08f12823          	sw	a5,144(sp)
   10e5c:	00868693          	addi	a3,a3,8
   10e60:	fcfddee3          	ble	a5,s11,10e3c <_vfprintf_r+0xad0>
   10e64:	08c10613          	addi	a2,sp,140
   10e68:	00098593          	mv	a1,s3
   10e6c:	000b0513          	mv	a0,s6
   10e70:	2ec050ef          	jal	1615c <__sprint_r>
   10e74:	82051ce3          	bnez	a0,106ac <_vfprintf_r+0x340>
   10e78:	ff040413          	addi	s0,s0,-16
   10e7c:	09412603          	lw	a2,148(sp)
   10e80:	09012783          	lw	a5,144(sp)
   10e84:	000b8693          	mv	a3,s7
   10e88:	fa84cee3          	blt	s1,s0,10e44 <_vfprintf_r+0xad8>
   10e8c:	02c12283          	lw	t0,44(sp)
   10e90:	00860633          	add	a2,a2,s0
   10e94:	00178793          	addi	a5,a5,1
   10e98:	00700713          	li	a4,7
   10e9c:	0056a023          	sw	t0,0(a3)
   10ea0:	0086a223          	sw	s0,4(a3)
   10ea4:	08c12a23          	sw	a2,148(sp)
   10ea8:	08f12823          	sw	a5,144(sp)
   10eac:	00868693          	addi	a3,a3,8
   10eb0:	02f75263          	ble	a5,a4,10ed4 <_vfprintf_r+0xb68>
   10eb4:	08c10613          	addi	a2,sp,140
   10eb8:	00098593          	mv	a1,s3
   10ebc:	000b0513          	mv	a0,s6
   10ec0:	29c050ef          	jal	1615c <__sprint_r>
   10ec4:	fe051463          	bnez	a0,106ac <_vfprintf_r+0x340>
   10ec8:	09412603          	lw	a2,148(sp)
   10ecc:	09012783          	lw	a5,144(sp)
   10ed0:	000b8693          	mv	a3,s7
   10ed4:	100af713          	andi	a4,s5,256
   10ed8:	14071c63          	bnez	a4,11030 <_vfprintf_r+0xcc4>
   10edc:	03012283          	lw	t0,48(sp)
   10ee0:	00178793          	addi	a5,a5,1
   10ee4:	0146a023          	sw	s4,0(a3)
   10ee8:	00560733          	add	a4,a2,t0
   10eec:	00700613          	li	a2,7
   10ef0:	0056a223          	sw	t0,4(a3)
   10ef4:	08e12a23          	sw	a4,148(sp)
   10ef8:	08f12823          	sw	a5,144(sp)
   10efc:	10f64a63          	blt	a2,a5,11010 <_vfprintf_r+0xca4>
   10f00:	00868693          	addi	a3,a3,8
   10f04:	004afa93          	andi	s5,s5,4
   10f08:	0a0a8c63          	beqz	s5,10fc0 <_vfprintf_r+0xc54>
   10f0c:	02812283          	lw	t0,40(sp)
   10f10:	02412783          	lw	a5,36(sp)
   10f14:	40f28433          	sub	s0,t0,a5
   10f18:	0a805463          	blez	s0,10fc0 <_vfprintf_r+0xc54>
   10f1c:	01000a13          	li	s4,16
   10f20:	09012783          	lw	a5,144(sp)
   10f24:	05812423          	sw	s8,72(sp)
   10f28:	048a5e63          	ble	s0,s4,10f84 <_vfprintf_r+0xc18>
   10f2c:	00700a93          	li	s5,7
   10f30:	00c0006f          	j	10f3c <_vfprintf_r+0xbd0>
   10f34:	ff040413          	addi	s0,s0,-16
   10f38:	048a5663          	ble	s0,s4,10f84 <_vfprintf_r+0xc18>
   10f3c:	01070713          	addi	a4,a4,16
   10f40:	00178793          	addi	a5,a5,1
   10f44:	0186a023          	sw	s8,0(a3)
   10f48:	0146a223          	sw	s4,4(a3)
   10f4c:	08e12a23          	sw	a4,148(sp)
   10f50:	08f12823          	sw	a5,144(sp)
   10f54:	00868693          	addi	a3,a3,8
   10f58:	fcfadee3          	ble	a5,s5,10f34 <_vfprintf_r+0xbc8>
   10f5c:	08c10613          	addi	a2,sp,140
   10f60:	00098593          	mv	a1,s3
   10f64:	000b0513          	mv	a0,s6
   10f68:	1f4050ef          	jal	1615c <__sprint_r>
   10f6c:	f4051063          	bnez	a0,106ac <_vfprintf_r+0x340>
   10f70:	ff040413          	addi	s0,s0,-16
   10f74:	09412703          	lw	a4,148(sp)
   10f78:	09012783          	lw	a5,144(sp)
   10f7c:	000b8693          	mv	a3,s7
   10f80:	fa8a4ee3          	blt	s4,s0,10f3c <_vfprintf_r+0xbd0>
   10f84:	04812283          	lw	t0,72(sp)
   10f88:	00870733          	add	a4,a4,s0
   10f8c:	00178793          	addi	a5,a5,1
   10f90:	0056a023          	sw	t0,0(a3)
   10f94:	0086a223          	sw	s0,4(a3)
   10f98:	00700693          	li	a3,7
   10f9c:	08e12a23          	sw	a4,148(sp)
   10fa0:	08f12823          	sw	a5,144(sp)
   10fa4:	00f6de63          	ble	a5,a3,10fc0 <_vfprintf_r+0xc54>
   10fa8:	08c10613          	addi	a2,sp,140
   10fac:	00098593          	mv	a1,s3
   10fb0:	000b0513          	mv	a0,s6
   10fb4:	1a8050ef          	jal	1615c <__sprint_r>
   10fb8:	ee051a63          	bnez	a0,106ac <_vfprintf_r+0x340>
   10fbc:	09412703          	lw	a4,148(sp)
   10fc0:	02812483          	lw	s1,40(sp)
   10fc4:	02412683          	lw	a3,36(sp)
   10fc8:	00d4d463          	ble	a3,s1,10fd0 <_vfprintf_r+0xc64>
   10fcc:	00068493          	mv	s1,a3
   10fd0:	03812283          	lw	t0,56(sp)
   10fd4:	009282b3          	add	t0,t0,s1
   10fd8:	02512c23          	sw	t0,56(sp)
   10fdc:	20071e63          	bnez	a4,111f8 <_vfprintf_r+0xe8c>
   10fe0:	08012823          	sw	zero,144(sp)
   10fe4:	000b8693          	mv	a3,s7
   10fe8:	c84ff06f          	j	1046c <_vfprintf_r+0x100>
   10fec:	02c12283          	lw	t0,44(sp)
   10ff0:	00870733          	add	a4,a4,s0
   10ff4:	00178793          	addi	a5,a5,1
   10ff8:	0056a023          	sw	t0,0(a3)
   10ffc:	00700613          	li	a2,7
   11000:	0086a223          	sw	s0,4(a3)
   11004:	08e12a23          	sw	a4,148(sp)
   11008:	08f12823          	sw	a5,144(sp)
   1100c:	eef65ae3          	ble	a5,a2,10f00 <_vfprintf_r+0xb94>
   11010:	08c10613          	addi	a2,sp,140
   11014:	00098593          	mv	a1,s3
   11018:	000b0513          	mv	a0,s6
   1101c:	140050ef          	jal	1615c <__sprint_r>
   11020:	e8051663          	bnez	a0,106ac <_vfprintf_r+0x340>
   11024:	09412703          	lw	a4,148(sp)
   11028:	000b8693          	mv	a3,s7
   1102c:	ed9ff06f          	j	10f04 <_vfprintf_r+0xb98>
   11030:	06500713          	li	a4,101
   11034:	1da75e63          	ble	s10,a4,11210 <_vfprintf_r+0xea4>
   11038:	05013087          	fld	ft1,80(sp)
   1103c:	d2000053          	fcvt.d.w	ft0,zero
   11040:	a200a753          	feq.d	a4,ft1,ft0
   11044:	32070a63          	beqz	a4,11378 <_vfprintf_r+0x100c>
   11048:	00160713          	addi	a4,a2,1
   1104c:	0001b2b7          	lui	t0,0x1b
   11050:	00100613          	li	a2,1
   11054:	00c6a223          	sw	a2,4(a3)
   11058:	00178793          	addi	a5,a5,1
   1105c:	acc28293          	addi	t0,t0,-1332 # 1aacc <__clz_tab+0x144>
   11060:	00700613          	li	a2,7
   11064:	0056a023          	sw	t0,0(a3)
   11068:	08e12a23          	sw	a4,148(sp)
   1106c:	08f12823          	sw	a5,144(sp)
   11070:	00868693          	addi	a3,a3,8
   11074:	74f64263          	blt	a2,a5,117b8 <_vfprintf_r+0x144c>
   11078:	07412783          	lw	a5,116(sp)
   1107c:	04412283          	lw	t0,68(sp)
   11080:	0057c663          	blt	a5,t0,1108c <_vfprintf_r+0xd20>
   11084:	001af793          	andi	a5,s5,1
   11088:	e6078ee3          	beqz	a5,10f04 <_vfprintf_r+0xb98>
   1108c:	04c12283          	lw	t0,76(sp)
   11090:	09012783          	lw	a5,144(sp)
   11094:	00700613          	li	a2,7
   11098:	00570733          	add	a4,a4,t0
   1109c:	04012283          	lw	t0,64(sp)
   110a0:	00178793          	addi	a5,a5,1
   110a4:	08e12a23          	sw	a4,148(sp)
   110a8:	0056a023          	sw	t0,0(a3)
   110ac:	04c12283          	lw	t0,76(sp)
   110b0:	08f12823          	sw	a5,144(sp)
   110b4:	00868693          	addi	a3,a3,8
   110b8:	fe56ae23          	sw	t0,-4(a3)
   110bc:	08f64ae3          	blt	a2,a5,11950 <_vfprintf_r+0x15e4>
   110c0:	04412783          	lw	a5,68(sp)
   110c4:	fff78413          	addi	s0,a5,-1
   110c8:	e2805ee3          	blez	s0,10f04 <_vfprintf_r+0xb98>
   110cc:	01000a13          	li	s4,16
   110d0:	09012783          	lw	a5,144(sp)
   110d4:	03912623          	sw	s9,44(sp)
   110d8:	f08a5ae3          	ble	s0,s4,10fec <_vfprintf_r+0xc80>
   110dc:	00700d13          	li	s10,7
   110e0:	00c0006f          	j	110ec <_vfprintf_r+0xd80>
   110e4:	ff040413          	addi	s0,s0,-16
   110e8:	f08a52e3          	ble	s0,s4,10fec <_vfprintf_r+0xc80>
   110ec:	01070713          	addi	a4,a4,16
   110f0:	00178793          	addi	a5,a5,1
   110f4:	0196a023          	sw	s9,0(a3)
   110f8:	0146a223          	sw	s4,4(a3)
   110fc:	08e12a23          	sw	a4,148(sp)
   11100:	08f12823          	sw	a5,144(sp)
   11104:	00868693          	addi	a3,a3,8
   11108:	fcfd5ee3          	ble	a5,s10,110e4 <_vfprintf_r+0xd78>
   1110c:	08c10613          	addi	a2,sp,140
   11110:	00098593          	mv	a1,s3
   11114:	000b0513          	mv	a0,s6
   11118:	044050ef          	jal	1615c <__sprint_r>
   1111c:	d8051863          	bnez	a0,106ac <_vfprintf_r+0x340>
   11120:	09412703          	lw	a4,148(sp)
   11124:	09012783          	lw	a5,144(sp)
   11128:	000b8693          	mv	a3,s7
   1112c:	fb9ff06f          	j	110e4 <_vfprintf_r+0xd78>
   11130:	02812283          	lw	t0,40(sp)
   11134:	02412703          	lw	a4,36(sp)
   11138:	40e284b3          	sub	s1,t0,a4
   1113c:	cc905ee3          	blez	s1,10e18 <_vfprintf_r+0xaac>
   11140:	01000893          	li	a7,16
   11144:	03912623          	sw	s9,44(sp)
   11148:	0698d263          	ble	s1,a7,111ac <_vfprintf_r+0xe40>
   1114c:	00700d93          	li	s11,7
   11150:	00c0006f          	j	1115c <_vfprintf_r+0xdf0>
   11154:	ff048493          	addi	s1,s1,-16
   11158:	0498da63          	ble	s1,a7,111ac <_vfprintf_r+0xe40>
   1115c:	01060613          	addi	a2,a2,16
   11160:	00178793          	addi	a5,a5,1
   11164:	0196a023          	sw	s9,0(a3)
   11168:	0116a223          	sw	a7,4(a3)
   1116c:	08c12a23          	sw	a2,148(sp)
   11170:	08f12823          	sw	a5,144(sp)
   11174:	00868693          	addi	a3,a3,8
   11178:	fcfddee3          	ble	a5,s11,11154 <_vfprintf_r+0xde8>
   1117c:	08c10613          	addi	a2,sp,140
   11180:	00098593          	mv	a1,s3
   11184:	000b0513          	mv	a0,s6
   11188:	03112023          	sw	a7,32(sp)
   1118c:	7d1040ef          	jal	1615c <__sprint_r>
   11190:	02012883          	lw	a7,32(sp)
   11194:	d0051c63          	bnez	a0,106ac <_vfprintf_r+0x340>
   11198:	ff048493          	addi	s1,s1,-16
   1119c:	09412603          	lw	a2,148(sp)
   111a0:	09012783          	lw	a5,144(sp)
   111a4:	000b8693          	mv	a3,s7
   111a8:	fa98cae3          	blt	a7,s1,1115c <_vfprintf_r+0xdf0>
   111ac:	02c12283          	lw	t0,44(sp)
   111b0:	00960633          	add	a2,a2,s1
   111b4:	00178793          	addi	a5,a5,1
   111b8:	00700713          	li	a4,7
   111bc:	0056a023          	sw	t0,0(a3)
   111c0:	0096a223          	sw	s1,4(a3)
   111c4:	08c12a23          	sw	a2,148(sp)
   111c8:	08f12823          	sw	a5,144(sp)
   111cc:	00868693          	addi	a3,a3,8
   111d0:	c4f754e3          	ble	a5,a4,10e18 <_vfprintf_r+0xaac>
   111d4:	08c10613          	addi	a2,sp,140
   111d8:	00098593          	mv	a1,s3
   111dc:	000b0513          	mv	a0,s6
   111e0:	77d040ef          	jal	1615c <__sprint_r>
   111e4:	cc051463          	bnez	a0,106ac <_vfprintf_r+0x340>
   111e8:	09412603          	lw	a2,148(sp)
   111ec:	09012783          	lw	a5,144(sp)
   111f0:	000b8693          	mv	a3,s7
   111f4:	c25ff06f          	j	10e18 <_vfprintf_r+0xaac>
   111f8:	08c10613          	addi	a2,sp,140
   111fc:	00098593          	mv	a1,s3
   11200:	000b0513          	mv	a0,s6
   11204:	759040ef          	jal	1615c <__sprint_r>
   11208:	dc050ce3          	beqz	a0,10fe0 <_vfprintf_r+0xc74>
   1120c:	ca0ff06f          	j	106ac <_vfprintf_r+0x340>
   11210:	04412703          	lw	a4,68(sp)
   11214:	00100593          	li	a1,1
   11218:	0ae5da63          	ble	a4,a1,112cc <_vfprintf_r+0xf60>
   1121c:	00160713          	addi	a4,a2,1
   11220:	00100613          	li	a2,1
   11224:	00c6a223          	sw	a2,4(a3)
   11228:	00178793          	addi	a5,a5,1
   1122c:	00700613          	li	a2,7
   11230:	0146a023          	sw	s4,0(a3)
   11234:	08e12a23          	sw	a4,148(sp)
   11238:	08f12823          	sw	a5,144(sp)
   1123c:	00868693          	addi	a3,a3,8
   11240:	26f64a63          	blt	a2,a5,114b4 <_vfprintf_r+0x1148>
   11244:	04c12283          	lw	t0,76(sp)
   11248:	00178793          	addi	a5,a5,1
   1124c:	00700613          	li	a2,7
   11250:	00570733          	add	a4,a4,t0
   11254:	04012283          	lw	t0,64(sp)
   11258:	08e12a23          	sw	a4,148(sp)
   1125c:	08f12823          	sw	a5,144(sp)
   11260:	0056a023          	sw	t0,0(a3)
   11264:	04c12283          	lw	t0,76(sp)
   11268:	00868693          	addi	a3,a3,8
   1126c:	fe56ae23          	sw	t0,-4(a3)
   11270:	26f64c63          	blt	a2,a5,114e8 <_vfprintf_r+0x117c>
   11274:	05013087          	fld	ft1,80(sp)
   11278:	d2000053          	fcvt.d.w	ft0,zero
   1127c:	04412283          	lw	t0,68(sp)
   11280:	a200a5d3          	feq.d	a1,ft1,ft0
   11284:	1a059c63          	bnez	a1,1143c <_vfprintf_r+0x10d0>
   11288:	fff28613          	addi	a2,t0,-1
   1128c:	00c70733          	add	a4,a4,a2
   11290:	001a0a13          	addi	s4,s4,1
   11294:	00178793          	addi	a5,a5,1
   11298:	00c6a223          	sw	a2,4(a3)
   1129c:	00700613          	li	a2,7
   112a0:	0146a023          	sw	s4,0(a3)
   112a4:	08e12a23          	sw	a4,148(sp)
   112a8:	08f12823          	sw	a5,144(sp)
   112ac:	04f64463          	blt	a2,a5,112f4 <_vfprintf_r+0xf88>
   112b0:	00868693          	addi	a3,a3,8
   112b4:	05c12283          	lw	t0,92(sp)
   112b8:	07c10613          	addi	a2,sp,124
   112bc:	00178793          	addi	a5,a5,1
   112c0:	00e28733          	add	a4,t0,a4
   112c4:	00c6a023          	sw	a2,0(a3)
   112c8:	c25ff06f          	j	10eec <_vfprintf_r+0xb80>
   112cc:	00baf733          	and	a4,s5,a1
   112d0:	f40716e3          	bnez	a4,1121c <_vfprintf_r+0xeb0>
   112d4:	00160713          	addi	a4,a2,1
   112d8:	00178793          	addi	a5,a5,1
   112dc:	00700613          	li	a2,7
   112e0:	0146a023          	sw	s4,0(a3)
   112e4:	00b6a223          	sw	a1,4(a3)
   112e8:	08e12a23          	sw	a4,148(sp)
   112ec:	08f12823          	sw	a5,144(sp)
   112f0:	fcf650e3          	ble	a5,a2,112b0 <_vfprintf_r+0xf44>
   112f4:	08c10613          	addi	a2,sp,140
   112f8:	00098593          	mv	a1,s3
   112fc:	000b0513          	mv	a0,s6
   11300:	65d040ef          	jal	1615c <__sprint_r>
   11304:	ba051463          	bnez	a0,106ac <_vfprintf_r+0x340>
   11308:	09412703          	lw	a4,148(sp)
   1130c:	09012783          	lw	a5,144(sp)
   11310:	000b8693          	mv	a3,s7
   11314:	fa1ff06f          	j	112b4 <_vfprintf_r+0xf48>
   11318:	08c10613          	addi	a2,sp,140
   1131c:	00098593          	mv	a1,s3
   11320:	000b0513          	mv	a0,s6
   11324:	639040ef          	jal	1615c <__sprint_r>
   11328:	b8051263          	bnez	a0,106ac <_vfprintf_r+0x340>
   1132c:	09412603          	lw	a2,148(sp)
   11330:	09012783          	lw	a5,144(sp)
   11334:	000b8693          	mv	a3,s7
   11338:	aa1ff06f          	j	10dd8 <_vfprintf_r+0xa6c>
   1133c:	08c10613          	addi	a2,sp,140
   11340:	00098593          	mv	a1,s3
   11344:	000b0513          	mv	a0,s6
   11348:	615040ef          	jal	1615c <__sprint_r>
   1134c:	b6051063          	bnez	a0,106ac <_vfprintf_r+0x340>
   11350:	09412603          	lw	a2,148(sp)
   11354:	09012783          	lw	a5,144(sp)
   11358:	000b8693          	mv	a3,s7
   1135c:	ab1ff06f          	j	10e0c <_vfprintf_r+0xaa0>
   11360:	060107a3          	sb	zero,111(sp)
   11364:	9e0444e3          	bltz	s0,10d4c <_vfprintf_r+0x9e0>
   11368:	f7fafa93          	andi	s5,s5,-129
   1136c:	a2078c63          	beqz	a5,105a4 <_vfprintf_r+0x238>
   11370:	00000813          	li	a6,0
   11374:	891ff06f          	j	10c04 <_vfprintf_r+0x898>
   11378:	07412403          	lw	s0,116(sp)
   1137c:	46805063          	blez	s0,117dc <_vfprintf_r+0x1470>
   11380:	04412703          	lw	a4,68(sp)
   11384:	34e44a63          	blt	s0,a4,116d8 <_vfprintf_r+0x136c>
   11388:	04412283          	lw	t0,68(sp)
   1138c:	00e60733          	add	a4,a2,a4
   11390:	00178793          	addi	a5,a5,1
   11394:	00700613          	li	a2,7
   11398:	0146a023          	sw	s4,0(a3)
   1139c:	0056a223          	sw	t0,4(a3)
   113a0:	08e12a23          	sw	a4,148(sp)
   113a4:	08f12823          	sw	a5,144(sp)
   113a8:	00868693          	addi	a3,a3,8
   113ac:	6af64063          	blt	a2,a5,11a4c <_vfprintf_r+0x16e0>
   113b0:	04412783          	lw	a5,68(sp)
   113b4:	40f40433          	sub	s0,s0,a5
   113b8:	3c805c63          	blez	s0,11790 <_vfprintf_r+0x1424>
   113bc:	01000a13          	li	s4,16
   113c0:	09012783          	lw	a5,144(sp)
   113c4:	03912623          	sw	s9,44(sp)
   113c8:	388a5063          	ble	s0,s4,11748 <_vfprintf_r+0x13dc>
   113cc:	00700d13          	li	s10,7
   113d0:	00c0006f          	j	113dc <_vfprintf_r+0x1070>
   113d4:	ff040413          	addi	s0,s0,-16
   113d8:	368a5863          	ble	s0,s4,11748 <_vfprintf_r+0x13dc>
   113dc:	01070713          	addi	a4,a4,16
   113e0:	00178793          	addi	a5,a5,1
   113e4:	0196a023          	sw	s9,0(a3)
   113e8:	0146a223          	sw	s4,4(a3)
   113ec:	08e12a23          	sw	a4,148(sp)
   113f0:	08f12823          	sw	a5,144(sp)
   113f4:	00868693          	addi	a3,a3,8
   113f8:	fcfd5ee3          	ble	a5,s10,113d4 <_vfprintf_r+0x1068>
   113fc:	08c10613          	addi	a2,sp,140
   11400:	00098593          	mv	a1,s3
   11404:	000b0513          	mv	a0,s6
   11408:	555040ef          	jal	1615c <__sprint_r>
   1140c:	aa051063          	bnez	a0,106ac <_vfprintf_r+0x340>
   11410:	09412703          	lw	a4,148(sp)
   11414:	09012783          	lw	a5,144(sp)
   11418:	000b8693          	mv	a3,s7
   1141c:	fb9ff06f          	j	113d4 <_vfprintf_r+0x1068>
   11420:	040af793          	andi	a5,s5,64
   11424:	03412283          	lw	t0,52(sp)
   11428:	28078063          	beqz	a5,116a8 <_vfprintf_r+0x133c>
   1142c:	00029783          	lh	a5,0(t0)
   11430:	00428293          	addi	t0,t0,4
   11434:	02512a23          	sw	t0,52(sp)
   11438:	e14ff06f          	j	10a4c <_vfprintf_r+0x6e0>
   1143c:	fff28413          	addi	s0,t0,-1
   11440:	e6805ae3          	blez	s0,112b4 <_vfprintf_r+0xf48>
   11444:	01000a13          	li	s4,16
   11448:	03912623          	sw	s9,44(sp)
   1144c:	0c8a5063          	ble	s0,s4,1150c <_vfprintf_r+0x11a0>
   11450:	00700d13          	li	s10,7
   11454:	00c0006f          	j	11460 <_vfprintf_r+0x10f4>
   11458:	ff040413          	addi	s0,s0,-16
   1145c:	0a8a5863          	ble	s0,s4,1150c <_vfprintf_r+0x11a0>
   11460:	01070713          	addi	a4,a4,16
   11464:	00178793          	addi	a5,a5,1
   11468:	0196a023          	sw	s9,0(a3)
   1146c:	0146a223          	sw	s4,4(a3)
   11470:	08e12a23          	sw	a4,148(sp)
   11474:	08f12823          	sw	a5,144(sp)
   11478:	00868693          	addi	a3,a3,8
   1147c:	fcfd5ee3          	ble	a5,s10,11458 <_vfprintf_r+0x10ec>
   11480:	08c10613          	addi	a2,sp,140
   11484:	00098593          	mv	a1,s3
   11488:	000b0513          	mv	a0,s6
   1148c:	4d1040ef          	jal	1615c <__sprint_r>
   11490:	a0051e63          	bnez	a0,106ac <_vfprintf_r+0x340>
   11494:	09412703          	lw	a4,148(sp)
   11498:	09012783          	lw	a5,144(sp)
   1149c:	000b8693          	mv	a3,s7
   114a0:	fb9ff06f          	j	11458 <_vfprintf_r+0x10ec>
   114a4:	0002a783          	lw	a5,0(t0)
   114a8:	060107a3          	sb	zero,111(sp)
   114ac:	ce045c63          	bgez	s0,109a4 <_vfprintf_r+0x638>
   114b0:	ee0ff06f          	j	10b90 <_vfprintf_r+0x824>
   114b4:	08c10613          	addi	a2,sp,140
   114b8:	00098593          	mv	a1,s3
   114bc:	000b0513          	mv	a0,s6
   114c0:	49d040ef          	jal	1615c <__sprint_r>
   114c4:	9e051463          	bnez	a0,106ac <_vfprintf_r+0x340>
   114c8:	09412703          	lw	a4,148(sp)
   114cc:	09012783          	lw	a5,144(sp)
   114d0:	000b8693          	mv	a3,s7
   114d4:	d71ff06f          	j	11244 <_vfprintf_r+0xed8>
   114d8:	0002a783          	lw	a5,0(t0)
   114dc:	060107a3          	sb	zero,111(sp)
   114e0:	a6045063          	bgez	s0,10740 <_vfprintf_r+0x3d4>
   114e4:	e64ff06f          	j	10b48 <_vfprintf_r+0x7dc>
   114e8:	08c10613          	addi	a2,sp,140
   114ec:	00098593          	mv	a1,s3
   114f0:	000b0513          	mv	a0,s6
   114f4:	469040ef          	jal	1615c <__sprint_r>
   114f8:	9a051a63          	bnez	a0,106ac <_vfprintf_r+0x340>
   114fc:	09412703          	lw	a4,148(sp)
   11500:	09012783          	lw	a5,144(sp)
   11504:	000b8693          	mv	a3,s7
   11508:	d6dff06f          	j	11274 <_vfprintf_r+0xf08>
   1150c:	02c12283          	lw	t0,44(sp)
   11510:	00870733          	add	a4,a4,s0
   11514:	00178793          	addi	a5,a5,1
   11518:	00700613          	li	a2,7
   1151c:	0056a023          	sw	t0,0(a3)
   11520:	0086a223          	sw	s0,4(a3)
   11524:	08e12a23          	sw	a4,148(sp)
   11528:	08f12823          	sw	a5,144(sp)
   1152c:	d8f652e3          	ble	a5,a2,112b0 <_vfprintf_r+0xf44>
   11530:	dc5ff06f          	j	112f4 <_vfprintf_r+0xf88>
   11534:	02d00713          	li	a4,45
   11538:	40f007b3          	neg	a5,a5
   1153c:	06e107a3          	sb	a4,111(sp)
   11540:	4a044e63          	bltz	s0,119fc <_vfprintf_r+0x1690>
   11544:	f7fafa93          	andi	s5,s5,-129
   11548:	02d00813          	li	a6,45
   1154c:	c68ff06f          	j	109b4 <_vfprintf_r+0x648>
   11550:	05013507          	fld	fa0,80(sp)
   11554:	00d12e23          	sw	a3,28(sp)
   11558:	7a4040ef          	jal	15cfc <__fpclassifyd>
   1155c:	01c12683          	lw	a3,28(sp)
   11560:	36050063          	beqz	a0,118c0 <_vfprintf_r+0x1554>
   11564:	fff00793          	li	a5,-1
   11568:	fdfd7d93          	andi	s11,s10,-33
   1156c:	6cf40663          	beq	s0,a5,11c38 <_vfprintf_r+0x18cc>
   11570:	04700793          	li	a5,71
   11574:	66fd8463          	beq	s11,a5,11bdc <_vfprintf_r+0x1870>
   11578:	05412783          	lw	a5,84(sp)
   1157c:	100ae293          	ori	t0,s5,256
   11580:	02512623          	sw	t0,44(sp)
   11584:	05013407          	fld	fs0,80(sp)
   11588:	00000493          	li	s1,0
   1158c:	7007c263          	bltz	a5,11c90 <_vfprintf_r+0x1924>
   11590:	06600793          	li	a5,102
   11594:	6afd0663          	beq	s10,a5,11c40 <_vfprintf_r+0x18d4>
   11598:	04600793          	li	a5,70
   1159c:	72fd0063          	beq	s10,a5,11cbc <_vfprintf_r+0x1950>
   115a0:	fbbd8593          	addi	a1,s11,-69
   115a4:	0015b593          	seqz	a1,a1
   115a8:	00b405b3          	add	a1,s0,a1
   115ac:	08410793          	addi	a5,sp,132
   115b0:	22840653          	fmv.d	fa2,fs0
   115b4:	00f12023          	sw	a5,0(sp)
   115b8:	07810893          	addi	a7,sp,120
   115bc:	00058793          	mv	a5,a1
   115c0:	07410813          	addi	a6,sp,116
   115c4:	00200713          	li	a4,2
   115c8:	000b0513          	mv	a0,s6
   115cc:	02b12023          	sw	a1,32(sp)
   115d0:	00d12e23          	sw	a3,28(sp)
   115d4:	6d1000ef          	jal	124a4 <_dtoa_r>
   115d8:	06700793          	li	a5,103
   115dc:	00050a13          	mv	s4,a0
   115e0:	02012583          	lw	a1,32(sp)
   115e4:	01c12683          	lw	a3,28(sp)
   115e8:	4afd0c63          	beq	s10,a5,11aa0 <_vfprintf_r+0x1734>
   115ec:	04700793          	li	a5,71
   115f0:	00b50633          	add	a2,a0,a1
   115f4:	4cfd0863          	beq	s10,a5,11ac4 <_vfprintf_r+0x1758>
   115f8:	d2000053          	fcvt.d.w	ft0,zero
   115fc:	00060793          	mv	a5,a2
   11600:	a2042753          	feq.d	a4,fs0,ft0
   11604:	02071263          	bnez	a4,11628 <_vfprintf_r+0x12bc>
   11608:	08412783          	lw	a5,132(sp)
   1160c:	00c7fe63          	bleu	a2,a5,11628 <_vfprintf_r+0x12bc>
   11610:	03000593          	li	a1,48
   11614:	00178713          	addi	a4,a5,1
   11618:	08e12223          	sw	a4,132(sp)
   1161c:	00b78023          	sb	a1,0(a5)
   11620:	08412783          	lw	a5,132(sp)
   11624:	fec7e8e3          	bltu	a5,a2,11614 <_vfprintf_r+0x12a8>
   11628:	414787b3          	sub	a5,a5,s4
   1162c:	04f12223          	sw	a5,68(sp)
   11630:	04700793          	li	a5,71
   11634:	4afd8463          	beq	s11,a5,11adc <_vfprintf_r+0x1770>
   11638:	06500793          	li	a5,101
   1163c:	07a7d6e3          	ble	s10,a5,11ea8 <_vfprintf_r+0x1b3c>
   11640:	06600793          	li	a5,102
   11644:	64fd0c63          	beq	s10,a5,11c9c <_vfprintf_r+0x1930>
   11648:	07412783          	lw	a5,116(sp)
   1164c:	02f12823          	sw	a5,48(sp)
   11650:	03012283          	lw	t0,48(sp)
   11654:	04412703          	lw	a4,68(sp)
   11658:	5ae2ce63          	blt	t0,a4,11c14 <_vfprintf_r+0x18a8>
   1165c:	001afa93          	andi	s5,s5,1
   11660:	740a9863          	bnez	s5,11db0 <_vfprintf_r+0x1a44>
   11664:	00028793          	mv	a5,t0
   11668:	5c02c463          	bltz	t0,11c30 <_vfprintf_r+0x18c4>
   1166c:	02f12223          	sw	a5,36(sp)
   11670:	06700d13          	li	s10,103
   11674:	40048063          	beqz	s1,11a74 <_vfprintf_r+0x1708>
   11678:	02d00793          	li	a5,45
   1167c:	06f107a3          	sb	a5,111(sp)
   11680:	02c12a83          	lw	s5,44(sp)
   11684:	00000413          	li	s0,0
   11688:	92cff06f          	j	107b4 <_vfprintf_r+0x448>
   1168c:	00728793          	addi	a5,t0,7
   11690:	ff87f793          	andi	a5,a5,-8
   11694:	0007b007          	fld	ft0,0(a5)
   11698:	00878793          	addi	a5,a5,8
   1169c:	02f12a23          	sw	a5,52(sp)
   116a0:	04013827          	fsd	ft0,80(sp)
   116a4:	c00ff06f          	j	10aa4 <_vfprintf_r+0x738>
   116a8:	0002a783          	lw	a5,0(t0)
   116ac:	00428293          	addi	t0,t0,4
   116b0:	02512a23          	sw	t0,52(sp)
   116b4:	b98ff06f          	j	10a4c <_vfprintf_r+0x6e0>
   116b8:	0002a783          	lw	a5,0(t0)
   116bc:	00428293          	addi	t0,t0,4
   116c0:	02512a23          	sw	t0,52(sp)
   116c4:	d10ff06f          	j	10bd4 <_vfprintf_r+0x868>
   116c8:	060107a3          	sb	zero,111(sp)
   116cc:	e8044263          	bltz	s0,10d50 <_vfprintf_r+0x9e4>
   116d0:	f7fafa93          	andi	s5,s5,-129
   116d4:	ed1fe06f          	j	105a4 <_vfprintf_r+0x238>
   116d8:	00c40733          	add	a4,s0,a2
   116dc:	00178793          	addi	a5,a5,1
   116e0:	00700613          	li	a2,7
   116e4:	0146a023          	sw	s4,0(a3)
   116e8:	0086a223          	sw	s0,4(a3)
   116ec:	08e12a23          	sw	a4,148(sp)
   116f0:	08f12823          	sw	a5,144(sp)
   116f4:	00868693          	addi	a3,a3,8
   116f8:	42f64463          	blt	a2,a5,11b20 <_vfprintf_r+0x17b4>
   116fc:	04c12283          	lw	t0,76(sp)
   11700:	00178793          	addi	a5,a5,1
   11704:	00700613          	li	a2,7
   11708:	00570733          	add	a4,a4,t0
   1170c:	04012283          	lw	t0,64(sp)
   11710:	008a0a33          	add	s4,s4,s0
   11714:	08e12a23          	sw	a4,148(sp)
   11718:	0056a023          	sw	t0,0(a3)
   1171c:	04c12283          	lw	t0,76(sp)
   11720:	08f12823          	sw	a5,144(sp)
   11724:	00868693          	addi	a3,a3,8
   11728:	fe56ae23          	sw	t0,-4(a3)
   1172c:	3cf64463          	blt	a2,a5,11af4 <_vfprintf_r+0x1788>
   11730:	04412283          	lw	t0,68(sp)
   11734:	00178793          	addi	a5,a5,1
   11738:	0146a023          	sw	s4,0(a3)
   1173c:	40828433          	sub	s0,t0,s0
   11740:	00e40733          	add	a4,s0,a4
   11744:	8b9ff06f          	j	10ffc <_vfprintf_r+0xc90>
   11748:	02c12283          	lw	t0,44(sp)
   1174c:	00870733          	add	a4,a4,s0
   11750:	00178793          	addi	a5,a5,1
   11754:	00700613          	li	a2,7
   11758:	0056a023          	sw	t0,0(a3)
   1175c:	0086a223          	sw	s0,4(a3)
   11760:	08e12a23          	sw	a4,148(sp)
   11764:	08f12823          	sw	a5,144(sp)
   11768:	00868693          	addi	a3,a3,8
   1176c:	02f65263          	ble	a5,a2,11790 <_vfprintf_r+0x1424>
   11770:	08c10613          	addi	a2,sp,140
   11774:	00098593          	mv	a1,s3
   11778:	000b0513          	mv	a0,s6
   1177c:	1e1040ef          	jal	1615c <__sprint_r>
   11780:	00050463          	beqz	a0,11788 <_vfprintf_r+0x141c>
   11784:	f29fe06f          	j	106ac <_vfprintf_r+0x340>
   11788:	09412703          	lw	a4,148(sp)
   1178c:	000b8693          	mv	a3,s7
   11790:	001af793          	andi	a5,s5,1
   11794:	f6078863          	beqz	a5,10f04 <_vfprintf_r+0xb98>
   11798:	04c12283          	lw	t0,76(sp)
   1179c:	09012783          	lw	a5,144(sp)
   117a0:	00570733          	add	a4,a4,t0
   117a4:	04012283          	lw	t0,64(sp)
   117a8:	00178793          	addi	a5,a5,1
   117ac:	0056a023          	sw	t0,0(a3)
   117b0:	04c12283          	lw	t0,76(sp)
   117b4:	f38ff06f          	j	10eec <_vfprintf_r+0xb80>
   117b8:	08c10613          	addi	a2,sp,140
   117bc:	00098593          	mv	a1,s3
   117c0:	000b0513          	mv	a0,s6
   117c4:	199040ef          	jal	1615c <__sprint_r>
   117c8:	00050463          	beqz	a0,117d0 <_vfprintf_r+0x1464>
   117cc:	ee1fe06f          	j	106ac <_vfprintf_r+0x340>
   117d0:	09412703          	lw	a4,148(sp)
   117d4:	000b8693          	mv	a3,s7
   117d8:	8a1ff06f          	j	11078 <_vfprintf_r+0xd0c>
   117dc:	00160713          	addi	a4,a2,1
   117e0:	0001b5b7          	lui	a1,0x1b
   117e4:	00100613          	li	a2,1
   117e8:	00c6a223          	sw	a2,4(a3)
   117ec:	00178793          	addi	a5,a5,1
   117f0:	acc58593          	addi	a1,a1,-1332 # 1aacc <__clz_tab+0x144>
   117f4:	00700613          	li	a2,7
   117f8:	00b6a023          	sw	a1,0(a3)
   117fc:	08e12a23          	sw	a4,148(sp)
   11800:	08f12823          	sw	a5,144(sp)
   11804:	00868693          	addi	a3,a3,8
   11808:	10f64663          	blt	a2,a5,11914 <_vfprintf_r+0x15a8>
   1180c:	0e040a63          	beqz	s0,11900 <_vfprintf_r+0x1594>
   11810:	04c12283          	lw	t0,76(sp)
   11814:	09012783          	lw	a5,144(sp)
   11818:	00700613          	li	a2,7
   1181c:	00570733          	add	a4,a4,t0
   11820:	04012283          	lw	t0,64(sp)
   11824:	00178793          	addi	a5,a5,1
   11828:	08e12a23          	sw	a4,148(sp)
   1182c:	0056a023          	sw	t0,0(a3)
   11830:	04c12283          	lw	t0,76(sp)
   11834:	08f12823          	sw	a5,144(sp)
   11838:	00868693          	addi	a3,a3,8
   1183c:	fe56ae23          	sw	t0,-4(a3)
   11840:	3af64463          	blt	a2,a5,11be8 <_vfprintf_r+0x187c>
   11844:	40800433          	neg	s0,s0
   11848:	16805c63          	blez	s0,119c0 <_vfprintf_r+0x1654>
   1184c:	01000d13          	li	s10,16
   11850:	03912623          	sw	s9,44(sp)
   11854:	128d5063          	ble	s0,s10,11974 <_vfprintf_r+0x1608>
   11858:	00700813          	li	a6,7
   1185c:	00c0006f          	j	11868 <_vfprintf_r+0x14fc>
   11860:	ff040413          	addi	s0,s0,-16
   11864:	108d5863          	ble	s0,s10,11974 <_vfprintf_r+0x1608>
   11868:	01070713          	addi	a4,a4,16
   1186c:	00178793          	addi	a5,a5,1
   11870:	0196a023          	sw	s9,0(a3)
   11874:	01a6a223          	sw	s10,4(a3)
   11878:	08e12a23          	sw	a4,148(sp)
   1187c:	08f12823          	sw	a5,144(sp)
   11880:	00868693          	addi	a3,a3,8
   11884:	fcf85ee3          	ble	a5,a6,11860 <_vfprintf_r+0x14f4>
   11888:	08c10613          	addi	a2,sp,140
   1188c:	00098593          	mv	a1,s3
   11890:	000b0513          	mv	a0,s6
   11894:	03012023          	sw	a6,32(sp)
   11898:	0c5040ef          	jal	1615c <__sprint_r>
   1189c:	02012803          	lw	a6,32(sp)
   118a0:	00050463          	beqz	a0,118a8 <_vfprintf_r+0x153c>
   118a4:	e09fe06f          	j	106ac <_vfprintf_r+0x340>
   118a8:	09412703          	lw	a4,148(sp)
   118ac:	09012783          	lw	a5,144(sp)
   118b0:	000b8693          	mv	a3,s7
   118b4:	fadff06f          	j	11860 <_vfprintf_r+0x14f4>
   118b8:	fff00513          	li	a0,-1
   118bc:	e05fe06f          	j	106c0 <_vfprintf_r+0x354>
   118c0:	04700793          	li	a5,71
   118c4:	1da7c063          	blt	a5,s10,11a84 <_vfprintf_r+0x1718>
   118c8:	0001ba37          	lui	s4,0x1b
   118cc:	a94a0a13          	addi	s4,s4,-1388 # 1aa94 <__clz_tab+0x10c>
   118d0:	00300713          	li	a4,3
   118d4:	02e12223          	sw	a4,36(sp)
   118d8:	f7fafa93          	andi	s5,s5,-129
   118dc:	06f14803          	lbu	a6,111(sp)
   118e0:	02e12823          	sw	a4,48(sp)
   118e4:	00000413          	li	s0,0
   118e8:	ec9fe06f          	j	107b0 <_vfprintf_r+0x444>
   118ec:	02a12823          	sw	a0,48(sp)
   118f0:	86cff06f          	j	1095c <_vfprintf_r+0x5f0>
   118f4:	0001ba37          	lui	s4,0x1b
   118f8:	a8ca0a13          	addi	s4,s4,-1396 # 1aa8c <__clz_tab+0x104>
   118fc:	9e8ff06f          	j	10ae4 <_vfprintf_r+0x778>
   11900:	04412783          	lw	a5,68(sp)
   11904:	f00796e3          	bnez	a5,11810 <_vfprintf_r+0x14a4>
   11908:	001af793          	andi	a5,s5,1
   1190c:	de078c63          	beqz	a5,10f04 <_vfprintf_r+0xb98>
   11910:	f01ff06f          	j	11810 <_vfprintf_r+0x14a4>
   11914:	08c10613          	addi	a2,sp,140
   11918:	00098593          	mv	a1,s3
   1191c:	000b0513          	mv	a0,s6
   11920:	03d040ef          	jal	1615c <__sprint_r>
   11924:	00050463          	beqz	a0,1192c <_vfprintf_r+0x15c0>
   11928:	d85fe06f          	j	106ac <_vfprintf_r+0x340>
   1192c:	07412403          	lw	s0,116(sp)
   11930:	09412703          	lw	a4,148(sp)
   11934:	000b8693          	mv	a3,s7
   11938:	ec041ce3          	bnez	s0,11810 <_vfprintf_r+0x14a4>
   1193c:	fc5ff06f          	j	11900 <_vfprintf_r+0x1594>
   11940:	0c010893          	addi	a7,sp,192
   11944:	00000793          	li	a5,0
   11948:	00088613          	mv	a2,a7
   1194c:	894ff06f          	j	109e0 <_vfprintf_r+0x674>
   11950:	08c10613          	addi	a2,sp,140
   11954:	00098593          	mv	a1,s3
   11958:	000b0513          	mv	a0,s6
   1195c:	001040ef          	jal	1615c <__sprint_r>
   11960:	00050463          	beqz	a0,11968 <_vfprintf_r+0x15fc>
   11964:	d49fe06f          	j	106ac <_vfprintf_r+0x340>
   11968:	09412703          	lw	a4,148(sp)
   1196c:	000b8693          	mv	a3,s7
   11970:	f50ff06f          	j	110c0 <_vfprintf_r+0xd54>
   11974:	02c12283          	lw	t0,44(sp)
   11978:	00870733          	add	a4,a4,s0
   1197c:	00178793          	addi	a5,a5,1
   11980:	00700613          	li	a2,7
   11984:	0056a023          	sw	t0,0(a3)
   11988:	0086a223          	sw	s0,4(a3)
   1198c:	08e12a23          	sw	a4,148(sp)
   11990:	08f12823          	sw	a5,144(sp)
   11994:	00868693          	addi	a3,a3,8
   11998:	02f65463          	ble	a5,a2,119c0 <_vfprintf_r+0x1654>
   1199c:	08c10613          	addi	a2,sp,140
   119a0:	00098593          	mv	a1,s3
   119a4:	000b0513          	mv	a0,s6
   119a8:	7b4040ef          	jal	1615c <__sprint_r>
   119ac:	00050463          	beqz	a0,119b4 <_vfprintf_r+0x1648>
   119b0:	cfdfe06f          	j	106ac <_vfprintf_r+0x340>
   119b4:	09412703          	lw	a4,148(sp)
   119b8:	09012783          	lw	a5,144(sp)
   119bc:	000b8693          	mv	a3,s7
   119c0:	04412283          	lw	t0,68(sp)
   119c4:	00178793          	addi	a5,a5,1
   119c8:	0146a023          	sw	s4,0(a3)
   119cc:	00e28733          	add	a4,t0,a4
   119d0:	d1cff06f          	j	10eec <_vfprintf_r+0xb80>
   119d4:	000a0513          	mv	a0,s4
   119d8:	00d12e23          	sw	a3,28(sp)
   119dc:	608040ef          	jal	15fe4 <strlen>
   119e0:	02a12823          	sw	a0,48(sp)
   119e4:	01c12683          	lw	a3,28(sp)
   119e8:	00050793          	mv	a5,a0
   119ec:	00054463          	bltz	a0,119f4 <_vfprintf_r+0x1688>
   119f0:	f79fe06f          	j	10968 <_vfprintf_r+0x5fc>
   119f4:	00000793          	li	a5,0
   119f8:	f71fe06f          	j	10968 <_vfprintf_r+0x5fc>
   119fc:	02d00813          	li	a6,45
   11a00:	00100713          	li	a4,1
   11a04:	00100613          	li	a2,1
   11a08:	00c71463          	bne	a4,a2,11a10 <_vfprintf_r+0x16a4>
   11a0c:	fa9fe06f          	j	109b4 <_vfprintf_r+0x648>
   11a10:	00200613          	li	a2,2
   11a14:	9ec70863          	beq	a4,a2,10c04 <_vfprintf_r+0x898>
   11a18:	d45fe06f          	j	1075c <_vfprintf_r+0x3f0>
   11a1c:	00600793          	li	a5,6
   11a20:	0087f463          	bleu	s0,a5,11a28 <_vfprintf_r+0x16bc>
   11a24:	00078413          	mv	s0,a5
   11a28:	02812823          	sw	s0,48(sp)
   11a2c:	00040793          	mv	a5,s0
   11a30:	34044c63          	bltz	s0,11d88 <_vfprintf_r+0x1a1c>
   11a34:	0001ba37          	lui	s4,0x1b
   11a38:	02f12223          	sw	a5,36(sp)
   11a3c:	02912a23          	sw	s1,52(sp)
   11a40:	ac4a0a13          	addi	s4,s4,-1340 # 1aac4 <__clz_tab+0x13c>
   11a44:	00000413          	li	s0,0
   11a48:	d79fe06f          	j	107c0 <_vfprintf_r+0x454>
   11a4c:	08c10613          	addi	a2,sp,140
   11a50:	00098593          	mv	a1,s3
   11a54:	000b0513          	mv	a0,s6
   11a58:	704040ef          	jal	1615c <__sprint_r>
   11a5c:	00050463          	beqz	a0,11a64 <_vfprintf_r+0x16f8>
   11a60:	c4dfe06f          	j	106ac <_vfprintf_r+0x340>
   11a64:	07412403          	lw	s0,116(sp)
   11a68:	09412703          	lw	a4,148(sp)
   11a6c:	000b8693          	mv	a3,s7
   11a70:	941ff06f          	j	113b0 <_vfprintf_r+0x1044>
   11a74:	06f14803          	lbu	a6,111(sp)
   11a78:	02c12a83          	lw	s5,44(sp)
   11a7c:	00000413          	li	s0,0
   11a80:	d31fe06f          	j	107b0 <_vfprintf_r+0x444>
   11a84:	0001ba37          	lui	s4,0x1b
   11a88:	a98a0a13          	addi	s4,s4,-1384 # 1aa98 <__clz_tab+0x110>
   11a8c:	e45ff06f          	j	118d0 <_vfprintf_r+0x1564>
   11a90:	02d00793          	li	a5,45
   11a94:	06f107a3          	sb	a5,111(sp)
   11a98:	02d00813          	li	a6,45
   11a9c:	838ff06f          	j	10ad4 <_vfprintf_r+0x768>
   11aa0:	001af793          	andi	a5,s5,1
   11aa4:	00b50633          	add	a2,a0,a1
   11aa8:	b40798e3          	bnez	a5,115f8 <_vfprintf_r+0x128c>
   11aac:	08412783          	lw	a5,132(sp)
   11ab0:	b79ff06f          	j	11628 <_vfprintf_r+0x12bc>
   11ab4:	00070a93          	mv	s5,a4
   11ab8:	00000813          	li	a6,0
   11abc:	00200713          	li	a4,2
   11ac0:	f45ff06f          	j	11a04 <_vfprintf_r+0x1698>
   11ac4:	001af793          	andi	a5,s5,1
   11ac8:	22079463          	bnez	a5,11cf0 <_vfprintf_r+0x1984>
   11acc:	08412783          	lw	a5,132(sp)
   11ad0:	414787b3          	sub	a5,a5,s4
   11ad4:	04f12223          	sw	a5,68(sp)
   11ad8:	3dad9863          	bne	s11,s10,11ea8 <_vfprintf_r+0x1b3c>
   11adc:	07412783          	lw	a5,116(sp)
   11ae0:	ffd00713          	li	a4,-3
   11ae4:	06e7c463          	blt	a5,a4,11b4c <_vfprintf_r+0x17e0>
   11ae8:	06f44263          	blt	s0,a5,11b4c <_vfprintf_r+0x17e0>
   11aec:	02f12823          	sw	a5,48(sp)
   11af0:	b61ff06f          	j	11650 <_vfprintf_r+0x12e4>
   11af4:	08c10613          	addi	a2,sp,140
   11af8:	00098593          	mv	a1,s3
   11afc:	000b0513          	mv	a0,s6
   11b00:	65c040ef          	jal	1615c <__sprint_r>
   11b04:	00050463          	beqz	a0,11b0c <_vfprintf_r+0x17a0>
   11b08:	ba5fe06f          	j	106ac <_vfprintf_r+0x340>
   11b0c:	07412403          	lw	s0,116(sp)
   11b10:	09412703          	lw	a4,148(sp)
   11b14:	09012783          	lw	a5,144(sp)
   11b18:	000b8693          	mv	a3,s7
   11b1c:	c15ff06f          	j	11730 <_vfprintf_r+0x13c4>
   11b20:	08c10613          	addi	a2,sp,140
   11b24:	00098593          	mv	a1,s3
   11b28:	000b0513          	mv	a0,s6
   11b2c:	630040ef          	jal	1615c <__sprint_r>
   11b30:	00050463          	beqz	a0,11b38 <_vfprintf_r+0x17cc>
   11b34:	b79fe06f          	j	106ac <_vfprintf_r+0x340>
   11b38:	07412403          	lw	s0,116(sp)
   11b3c:	09412703          	lw	a4,148(sp)
   11b40:	09012783          	lw	a5,144(sp)
   11b44:	000b8693          	mv	a3,s7
   11b48:	bb5ff06f          	j	116fc <_vfprintf_r+0x1390>
   11b4c:	ffed0d13          	addi	s10,s10,-2
   11b50:	fff78793          	addi	a5,a5,-1
   11b54:	06f12a23          	sw	a5,116(sp)
   11b58:	07a10e23          	sb	s10,124(sp)
   11b5c:	2a07ce63          	bltz	a5,11e18 <_vfprintf_r+0x1aac>
   11b60:	02b00713          	li	a4,43
   11b64:	06e10ea3          	sb	a4,125(sp)
   11b68:	00900593          	li	a1,9
   11b6c:	18f5ca63          	blt	a1,a5,11d00 <_vfprintf_r+0x1994>
   11b70:	03000713          	li	a4,48
   11b74:	03078793          	addi	a5,a5,48
   11b78:	06e10f23          	sb	a4,126(sp)
   11b7c:	06f10fa3          	sb	a5,127(sp)
   11b80:	08010713          	addi	a4,sp,128
   11b84:	07c10793          	addi	a5,sp,124
   11b88:	40f707b3          	sub	a5,a4,a5
   11b8c:	04412703          	lw	a4,68(sp)
   11b90:	04412283          	lw	t0,68(sp)
   11b94:	04f12e23          	sw	a5,92(sp)
   11b98:	00e78733          	add	a4,a5,a4
   11b9c:	00100793          	li	a5,1
   11ba0:	02e12823          	sw	a4,48(sp)
   11ba4:	2657d063          	ble	t0,a5,11e04 <_vfprintf_r+0x1a98>
   11ba8:	03012703          	lw	a4,48(sp)
   11bac:	00170713          	addi	a4,a4,1
   11bb0:	02e12823          	sw	a4,48(sp)
   11bb4:	00070793          	mv	a5,a4
   11bb8:	1e074863          	bltz	a4,11da8 <_vfprintf_r+0x1a3c>
   11bbc:	02f12223          	sw	a5,36(sp)
   11bc0:	ab5ff06f          	j	11674 <_vfprintf_r+0x1308>
   11bc4:	02812223          	sw	s0,36(sp)
   11bc8:	02812823          	sw	s0,48(sp)
   11bcc:	06f14803          	lbu	a6,111(sp)
   11bd0:	02912a23          	sw	s1,52(sp)
   11bd4:	00000413          	li	s0,0
   11bd8:	bd9fe06f          	j	107b0 <_vfprintf_r+0x444>
   11bdc:	98041ee3          	bnez	s0,11578 <_vfprintf_r+0x120c>
   11be0:	000a0413          	mv	s0,s4
   11be4:	995ff06f          	j	11578 <_vfprintf_r+0x120c>
   11be8:	08c10613          	addi	a2,sp,140
   11bec:	00098593          	mv	a1,s3
   11bf0:	000b0513          	mv	a0,s6
   11bf4:	568040ef          	jal	1615c <__sprint_r>
   11bf8:	00050463          	beqz	a0,11c00 <_vfprintf_r+0x1894>
   11bfc:	ab1fe06f          	j	106ac <_vfprintf_r+0x340>
   11c00:	07412403          	lw	s0,116(sp)
   11c04:	09412703          	lw	a4,148(sp)
   11c08:	09012783          	lw	a5,144(sp)
   11c0c:	000b8693          	mv	a3,s7
   11c10:	c35ff06f          	j	11844 <_vfprintf_r+0x14d8>
   11c14:	03012283          	lw	t0,48(sp)
   11c18:	00100793          	li	a5,1
   11c1c:	1a505663          	blez	t0,11dc8 <_vfprintf_r+0x1a5c>
   11c20:	04412703          	lw	a4,68(sp)
   11c24:	00e787b3          	add	a5,a5,a4
   11c28:	02f12823          	sw	a5,48(sp)
   11c2c:	a407d0e3          	bgez	a5,1166c <_vfprintf_r+0x1300>
   11c30:	00000793          	li	a5,0
   11c34:	a39ff06f          	j	1166c <_vfprintf_r+0x1300>
   11c38:	00600413          	li	s0,6
   11c3c:	93dff06f          	j	11578 <_vfprintf_r+0x120c>
   11c40:	08410793          	addi	a5,sp,132
   11c44:	22840653          	fmv.d	fa2,fs0
   11c48:	00f12023          	sw	a5,0(sp)
   11c4c:	07810893          	addi	a7,sp,120
   11c50:	07410813          	addi	a6,sp,116
   11c54:	00040793          	mv	a5,s0
   11c58:	00300713          	li	a4,3
   11c5c:	000b0513          	mv	a0,s6
   11c60:	00d12e23          	sw	a3,28(sp)
   11c64:	041000ef          	jal	124a4 <_dtoa_r>
   11c68:	01c12683          	lw	a3,28(sp)
   11c6c:	00050a13          	mv	s4,a0
   11c70:	00850633          	add	a2,a0,s0
   11c74:	00040593          	mv	a1,s0
   11c78:	000a4703          	lbu	a4,0(s4)
   11c7c:	03000793          	li	a5,48
   11c80:	0ef70463          	beq	a4,a5,11d68 <_vfprintf_r+0x19fc>
   11c84:	07412583          	lw	a1,116(sp)
   11c88:	00b60633          	add	a2,a2,a1
   11c8c:	96dff06f          	j	115f8 <_vfprintf_r+0x128c>
   11c90:	22841453          	fneg.d	fs0,fs0
   11c94:	02d00493          	li	s1,45
   11c98:	8f9ff06f          	j	11590 <_vfprintf_r+0x1224>
   11c9c:	07412283          	lw	t0,116(sp)
   11ca0:	02512823          	sw	t0,48(sp)
   11ca4:	12505863          	blez	t0,11dd4 <_vfprintf_r+0x1a68>
   11ca8:	0e041463          	bnez	s0,11d90 <_vfprintf_r+0x1a24>
   11cac:	001afa93          	andi	s5,s5,1
   11cb0:	0e0a9063          	bnez	s5,11d90 <_vfprintf_r+0x1a24>
   11cb4:	02512223          	sw	t0,36(sp)
   11cb8:	9bdff06f          	j	11674 <_vfprintf_r+0x1308>
   11cbc:	08410793          	addi	a5,sp,132
   11cc0:	22840653          	fmv.d	fa2,fs0
   11cc4:	00f12023          	sw	a5,0(sp)
   11cc8:	07810893          	addi	a7,sp,120
   11ccc:	07410813          	addi	a6,sp,116
   11cd0:	00040793          	mv	a5,s0
   11cd4:	00300713          	li	a4,3
   11cd8:	000b0513          	mv	a0,s6
   11cdc:	00d12e23          	sw	a3,28(sp)
   11ce0:	7c4000ef          	jal	124a4 <_dtoa_r>
   11ce4:	01c12683          	lw	a3,28(sp)
   11ce8:	00050a13          	mv	s4,a0
   11cec:	00040593          	mv	a1,s0
   11cf0:	04600793          	li	a5,70
   11cf4:	00ba0633          	add	a2,s4,a1
   11cf8:	f8fd00e3          	beq	s10,a5,11c78 <_vfprintf_r+0x190c>
   11cfc:	8fdff06f          	j	115f8 <_vfprintf_r+0x128c>
   11d00:	08b10513          	addi	a0,sp,139
   11d04:	00050713          	mv	a4,a0
   11d08:	00a00813          	li	a6,10
   11d0c:	0307e633          	rem	a2,a5,a6
   11d10:	fff70713          	addi	a4,a4,-1
   11d14:	0307c7b3          	div	a5,a5,a6
   11d18:	03060613          	addi	a2,a2,48
   11d1c:	00c70023          	sb	a2,0(a4)
   11d20:	fef5c6e3          	blt	a1,a5,11d0c <_vfprintf_r+0x19a0>
   11d24:	03078793          	addi	a5,a5,48
   11d28:	0ff7f793          	andi	a5,a5,255
   11d2c:	fff70613          	addi	a2,a4,-1
   11d30:	fef70fa3          	sb	a5,-1(a4)
   11d34:	10a67a63          	bleu	a0,a2,11e48 <_vfprintf_r+0x1adc>
   11d38:	07e10593          	addi	a1,sp,126
   11d3c:	0080006f          	j	11d44 <_vfprintf_r+0x19d8>
   11d40:	00064783          	lbu	a5,0(a2)
   11d44:	00158593          	addi	a1,a1,1
   11d48:	00160613          	addi	a2,a2,1
   11d4c:	fef58fa3          	sb	a5,-1(a1)
   11d50:	fea618e3          	bne	a2,a0,11d40 <_vfprintf_r+0x19d4>
   11d54:	08c10793          	addi	a5,sp,140
   11d58:	40e78733          	sub	a4,a5,a4
   11d5c:	07e10593          	addi	a1,sp,126
   11d60:	00e58733          	add	a4,a1,a4
   11d64:	e21ff06f          	j	11b84 <_vfprintf_r+0x1818>
   11d68:	d2000053          	fcvt.d.w	ft0,zero
   11d6c:	a20427d3          	feq.d	a5,fs0,ft0
   11d70:	f0079ae3          	bnez	a5,11c84 <_vfprintf_r+0x1918>
   11d74:	00100793          	li	a5,1
   11d78:	40b785b3          	sub	a1,a5,a1
   11d7c:	06b12a23          	sw	a1,116(sp)
   11d80:	00b60633          	add	a2,a2,a1
   11d84:	875ff06f          	j	115f8 <_vfprintf_r+0x128c>
   11d88:	00000793          	li	a5,0
   11d8c:	ca9ff06f          	j	11a34 <_vfprintf_r+0x16c8>
   11d90:	03012703          	lw	a4,48(sp)
   11d94:	00140413          	addi	s0,s0,1
   11d98:	00870733          	add	a4,a4,s0
   11d9c:	02e12823          	sw	a4,48(sp)
   11da0:	00070793          	mv	a5,a4
   11da4:	e0075ce3          	bgez	a4,11bbc <_vfprintf_r+0x1850>
   11da8:	00000793          	li	a5,0
   11dac:	e11ff06f          	j	11bbc <_vfprintf_r+0x1850>
   11db0:	03012783          	lw	a5,48(sp)
   11db4:	00178793          	addi	a5,a5,1
   11db8:	02f12823          	sw	a5,48(sp)
   11dbc:	8a07d8e3          	bgez	a5,1166c <_vfprintf_r+0x1300>
   11dc0:	00000793          	li	a5,0
   11dc4:	8a9ff06f          	j	1166c <_vfprintf_r+0x1300>
   11dc8:	00200793          	li	a5,2
   11dcc:	405787b3          	sub	a5,a5,t0
   11dd0:	e51ff06f          	j	11c20 <_vfprintf_r+0x18b4>
   11dd4:	00041c63          	bnez	s0,11dec <_vfprintf_r+0x1a80>
   11dd8:	00100793          	li	a5,1
   11ddc:	00fafab3          	and	s5,s5,a5
   11de0:	02f12223          	sw	a5,36(sp)
   11de4:	02f12823          	sw	a5,48(sp)
   11de8:	880a86e3          	beqz	s5,11674 <_vfprintf_r+0x1308>
   11dec:	00240413          	addi	s0,s0,2
   11df0:	02812823          	sw	s0,48(sp)
   11df4:	00040793          	mv	a5,s0
   11df8:	dc0452e3          	bgez	s0,11bbc <_vfprintf_r+0x1850>
   11dfc:	00000793          	li	a5,0
   11e00:	dbdff06f          	j	11bbc <_vfprintf_r+0x1850>
   11e04:	00fafab3          	and	s5,s5,a5
   11e08:	f80a8ce3          	beqz	s5,11da0 <_vfprintf_r+0x1a34>
   11e0c:	d9dff06f          	j	11ba8 <_vfprintf_r+0x183c>
   11e10:	fff00413          	li	s0,-1
   11e14:	845fe06f          	j	10658 <_vfprintf_r+0x2ec>
   11e18:	02d00713          	li	a4,45
   11e1c:	40f007b3          	neg	a5,a5
   11e20:	06e10ea3          	sb	a4,125(sp)
   11e24:	d45ff06f          	j	11b68 <_vfprintf_r+0x17fc>
   11e28:	03412283          	lw	t0,52(sp)
   11e2c:	0002a403          	lw	s0,0(t0)
   11e30:	00428793          	addi	a5,t0,4
   11e34:	02f12a23          	sw	a5,52(sp)
   11e38:	00044463          	bltz	s0,11e40 <_vfprintf_r+0x1ad4>
   11e3c:	eccfe06f          	j	10508 <_vfprintf_r+0x19c>
   11e40:	fff00413          	li	s0,-1
   11e44:	ec4fe06f          	j	10508 <_vfprintf_r+0x19c>
   11e48:	07e10713          	addi	a4,sp,126
   11e4c:	d39ff06f          	j	11b84 <_vfprintf_r+0x1818>
   11e50:	001af793          	andi	a5,s5,1
   11e54:	00040813          	mv	a6,s0
   11e58:	00078e63          	beqz	a5,11e74 <_vfprintf_r+0x1b08>
   11e5c:	03000793          	li	a5,48
   11e60:	00100713          	li	a4,1
   11e64:	0af10fa3          	sb	a5,191(sp)
   11e68:	02e12823          	sw	a4,48(sp)
   11e6c:	0bf10a13          	addi	s4,sp,191
   11e70:	931fe06f          	j	107a0 <_vfprintf_r+0x434>
   11e74:	02012823          	sw	zero,48(sp)
   11e78:	0c010a13          	addi	s4,sp,192
   11e7c:	925fe06f          	j	107a0 <_vfprintf_r+0x434>
   11e80:	06a107a3          	sb	a0,111(sp)
   11e84:	8a1fe06f          	j	10724 <_vfprintf_r+0x3b8>
   11e88:	00000793          	li	a5,0
   11e8c:	d79fe06f          	j	10c04 <_vfprintf_r+0x898>
   11e90:	06a107a3          	sb	a0,111(sp)
   11e94:	d1dfe06f          	j	10bb0 <_vfprintf_r+0x844>
   11e98:	06a107a3          	sb	a0,111(sp)
   11e9c:	e75fe06f          	j	10d10 <_vfprintf_r+0x9a4>
   11ea0:	06a107a3          	sb	a0,111(sp)
   11ea4:	de5fe06f          	j	10c88 <_vfprintf_r+0x91c>
   11ea8:	07412783          	lw	a5,116(sp)
   11eac:	ca5ff06f          	j	11b50 <_vfprintf_r+0x17e4>
   11eb0:	06a107a3          	sb	a0,111(sp)
   11eb4:	bcdfe06f          	j	10a80 <_vfprintf_r+0x714>
   11eb8:	06a107a3          	sb	a0,111(sp)
   11ebc:	b75fe06f          	j	10a30 <_vfprintf_r+0x6c4>
   11ec0:	06a107a3          	sb	a0,111(sp)
   11ec4:	ac5fe06f          	j	10988 <_vfprintf_r+0x61c>
   11ec8:	06a107a3          	sb	a0,111(sp)
   11ecc:	010aea93          	ori	s5,s5,16
   11ed0:	c9dfe06f          	j	10b6c <_vfprintf_r+0x800>
   11ed4:	06a107a3          	sb	a0,111(sp)
   11ed8:	010aea93          	ori	s5,s5,16
   11edc:	c49fe06f          	j	10b24 <_vfprintf_r+0x7b8>
   11ee0:	06a107a3          	sb	a0,111(sp)
   11ee4:	dddfe06f          	j	10cc0 <_vfprintf_r+0x954>

00011ee8 <vfprintf>:
   11ee8:	00060693          	mv	a3,a2
   11eec:	00058613          	mv	a2,a1
   11ef0:	00050593          	mv	a1,a0
   11ef4:	8081a503          	lw	a0,-2040(gp) # 1c598 <_impure_ptr>
   11ef8:	c74fe06f          	j	1036c <_vfprintf_r>

00011efc <__swsetup_r>:
   11efc:	8081a783          	lw	a5,-2040(gp) # 1c598 <_impure_ptr>
   11f00:	ff010113          	addi	sp,sp,-16
   11f04:	00812423          	sw	s0,8(sp)
   11f08:	00912223          	sw	s1,4(sp)
   11f0c:	00112623          	sw	ra,12(sp)
   11f10:	00050493          	mv	s1,a0
   11f14:	00058413          	mv	s0,a1
   11f18:	00078663          	beqz	a5,11f24 <__swsetup_r+0x28>
   11f1c:	0387a703          	lw	a4,56(a5)
   11f20:	0e070063          	beqz	a4,12000 <__swsetup_r+0x104>
   11f24:	00c41703          	lh	a4,12(s0)
   11f28:	01071793          	slli	a5,a4,0x10
   11f2c:	0107d793          	srli	a5,a5,0x10
   11f30:	0087f693          	andi	a3,a5,8
   11f34:	04068263          	beqz	a3,11f78 <__swsetup_r+0x7c>
   11f38:	01042683          	lw	a3,16(s0)
   11f3c:	06068263          	beqz	a3,11fa0 <__swsetup_r+0xa4>
   11f40:	0017f713          	andi	a4,a5,1
   11f44:	08071063          	bnez	a4,11fc4 <__swsetup_r+0xc8>
   11f48:	0027f793          	andi	a5,a5,2
   11f4c:	00000713          	li	a4,0
   11f50:	00079463          	bnez	a5,11f58 <__swsetup_r+0x5c>
   11f54:	01442703          	lw	a4,20(s0)
   11f58:	00e42423          	sw	a4,8(s0)
   11f5c:	00000513          	li	a0,0
   11f60:	06068e63          	beqz	a3,11fdc <__swsetup_r+0xe0>
   11f64:	00c12083          	lw	ra,12(sp)
   11f68:	00812403          	lw	s0,8(sp)
   11f6c:	00412483          	lw	s1,4(sp)
   11f70:	01010113          	addi	sp,sp,16
   11f74:	00008067          	ret
   11f78:	0107f693          	andi	a3,a5,16
   11f7c:	0c068263          	beqz	a3,12040 <__swsetup_r+0x144>
   11f80:	0047f793          	andi	a5,a5,4
   11f84:	08079463          	bnez	a5,1200c <__swsetup_r+0x110>
   11f88:	01042683          	lw	a3,16(s0)
   11f8c:	00876793          	ori	a5,a4,8
   11f90:	00f41623          	sh	a5,12(s0)
   11f94:	01079793          	slli	a5,a5,0x10
   11f98:	0107d793          	srli	a5,a5,0x10
   11f9c:	fa0692e3          	bnez	a3,11f40 <__swsetup_r+0x44>
   11fa0:	2807f713          	andi	a4,a5,640
   11fa4:	20000613          	li	a2,512
   11fa8:	f8c70ce3          	beq	a4,a2,11f40 <__swsetup_r+0x44>
   11fac:	00040593          	mv	a1,s0
   11fb0:	00048513          	mv	a0,s1
   11fb4:	178020ef          	jal	1412c <__smakebuf_r>
   11fb8:	00c45783          	lhu	a5,12(s0)
   11fbc:	01042683          	lw	a3,16(s0)
   11fc0:	f81ff06f          	j	11f40 <__swsetup_r+0x44>
   11fc4:	01442783          	lw	a5,20(s0)
   11fc8:	00042423          	sw	zero,8(s0)
   11fcc:	00000513          	li	a0,0
   11fd0:	40f007b3          	neg	a5,a5
   11fd4:	00f42c23          	sw	a5,24(s0)
   11fd8:	f80696e3          	bnez	a3,11f64 <__swsetup_r+0x68>
   11fdc:	00c45783          	lhu	a5,12(s0)
   11fe0:	0807f793          	andi	a5,a5,128
   11fe4:	04079e63          	bnez	a5,12040 <__swsetup_r+0x144>
   11fe8:	00c12083          	lw	ra,12(sp)
   11fec:	00068513          	mv	a0,a3
   11ff0:	00812403          	lw	s0,8(sp)
   11ff4:	00412483          	lw	s1,4(sp)
   11ff8:	01010113          	addi	sp,sp,16
   11ffc:	00008067          	ret
   12000:	00078513          	mv	a0,a5
   12004:	2f5010ef          	jal	13af8 <__sinit>
   12008:	f1dff06f          	j	11f24 <__swsetup_r+0x28>
   1200c:	03042583          	lw	a1,48(s0)
   12010:	00058e63          	beqz	a1,1202c <__swsetup_r+0x130>
   12014:	04040793          	addi	a5,s0,64
   12018:	00f58863          	beq	a1,a5,12028 <__swsetup_r+0x12c>
   1201c:	00048513          	mv	a0,s1
   12020:	419010ef          	jal	13c38 <_free_r>
   12024:	00c41703          	lh	a4,12(s0)
   12028:	02042823          	sw	zero,48(s0)
   1202c:	01042683          	lw	a3,16(s0)
   12030:	fdb77713          	andi	a4,a4,-37
   12034:	00042223          	sw	zero,4(s0)
   12038:	00d42023          	sw	a3,0(s0)
   1203c:	f51ff06f          	j	11f8c <__swsetup_r+0x90>
   12040:	fff00513          	li	a0,-1
   12044:	f21ff06f          	j	11f64 <__swsetup_r+0x68>

00012048 <__register_exitproc>:
   12048:	fe010113          	addi	sp,sp,-32
   1204c:	00812c23          	sw	s0,24(sp)
   12050:	8041a403          	lw	s0,-2044(gp) # 1c594 <_global_impure_ptr>
   12054:	00912a23          	sw	s1,20(sp)
   12058:	00050493          	mv	s1,a0
   1205c:	14842503          	lw	a0,328(s0)
   12060:	00112e23          	sw	ra,28(sp)
   12064:	0c050263          	beqz	a0,12128 <__register_exitproc+0xe0>
   12068:	00452783          	lw	a5,4(a0)
   1206c:	01f00713          	li	a4,31
   12070:	00178813          	addi	a6,a5,1
   12074:	04f75863          	ble	a5,a4,120c4 <__register_exitproc+0x7c>
   12078:	00000793          	li	a5,0
   1207c:	0a078c63          	beqz	a5,12134 <__register_exitproc+0xec>
   12080:	19000513          	li	a0,400
   12084:	00b12623          	sw	a1,12(sp)
   12088:	00c12423          	sw	a2,8(sp)
   1208c:	00d12223          	sw	a3,4(sp)
   12090:	f71ed0ef          	jal	0 <_ftext-0x10000>
   12094:	00c12583          	lw	a1,12(sp)
   12098:	00812603          	lw	a2,8(sp)
   1209c:	00412683          	lw	a3,4(sp)
   120a0:	08050a63          	beqz	a0,12134 <__register_exitproc+0xec>
   120a4:	14842783          	lw	a5,328(s0)
   120a8:	00100813          	li	a6,1
   120ac:	00052223          	sw	zero,4(a0)
   120b0:	00f52023          	sw	a5,0(a0)
   120b4:	14a42423          	sw	a0,328(s0)
   120b8:	00000793          	li	a5,0
   120bc:	18052423          	sw	zero,392(a0)
   120c0:	18052623          	sw	zero,396(a0)
   120c4:	00279713          	slli	a4,a5,0x2
   120c8:	02049463          	bnez	s1,120f0 <__register_exitproc+0xa8>
   120cc:	00e50733          	add	a4,a0,a4
   120d0:	01052223          	sw	a6,4(a0)
   120d4:	00000513          	li	a0,0
   120d8:	00b72423          	sw	a1,8(a4)
   120dc:	01c12083          	lw	ra,28(sp)
   120e0:	01812403          	lw	s0,24(sp)
   120e4:	01412483          	lw	s1,20(sp)
   120e8:	02010113          	addi	sp,sp,32
   120ec:	00008067          	ret
   120f0:	00e502b3          	add	t0,a0,a4
   120f4:	08c2a423          	sw	a2,136(t0)
   120f8:	18852883          	lw	a7,392(a0)
   120fc:	00100613          	li	a2,1
   12100:	00f617b3          	sll	a5,a2,a5
   12104:	00f8e633          	or	a2,a7,a5
   12108:	18c52423          	sw	a2,392(a0)
   1210c:	10d2a423          	sw	a3,264(t0)
   12110:	00200693          	li	a3,2
   12114:	fad49ce3          	bne	s1,a3,120cc <__register_exitproc+0x84>
   12118:	18c52683          	lw	a3,396(a0)
   1211c:	00f6e7b3          	or	a5,a3,a5
   12120:	18f52623          	sw	a5,396(a0)
   12124:	fa9ff06f          	j	120cc <__register_exitproc+0x84>
   12128:	14c40513          	addi	a0,s0,332
   1212c:	14a42423          	sw	a0,328(s0)
   12130:	f39ff06f          	j	12068 <__register_exitproc+0x20>
   12134:	fff00513          	li	a0,-1
   12138:	fa5ff06f          	j	120dc <__register_exitproc+0x94>

0001213c <__call_exitprocs>:
   1213c:	fc010113          	addi	sp,sp,-64
   12140:	01712e23          	sw	s7,28(sp)
   12144:	8041ab83          	lw	s7,-2044(gp) # 1c594 <_global_impure_ptr>
   12148:	03612023          	sw	s6,32(sp)
   1214c:	03212823          	sw	s2,48(sp)
   12150:	03412423          	sw	s4,40(sp)
   12154:	03512223          	sw	s5,36(sp)
   12158:	01812c23          	sw	s8,24(sp)
   1215c:	01912a23          	sw	s9,20(sp)
   12160:	02112e23          	sw	ra,60(sp)
   12164:	02812c23          	sw	s0,56(sp)
   12168:	02912a23          	sw	s1,52(sp)
   1216c:	03312623          	sw	s3,44(sp)
   12170:	01a12823          	sw	s10,16(sp)
   12174:	01b12623          	sw	s11,12(sp)
   12178:	00050a93          	mv	s5,a0
   1217c:	00058913          	mv	s2,a1
   12180:	148b8c13          	addi	s8,s7,328
   12184:	00100a13          	li	s4,1
   12188:	fff00c93          	li	s9,-1
   1218c:	00000b13          	li	s6,0
   12190:	148ba983          	lw	s3,328(s7)
   12194:	04098e63          	beqz	s3,121f0 <__call_exitprocs+0xb4>
   12198:	000c0d93          	mv	s11,s8
   1219c:	0049a403          	lw	s0,4(s3)
   121a0:	00241493          	slli	s1,s0,0x2
   121a4:	fff40413          	addi	s0,s0,-1
   121a8:	009984b3          	add	s1,s3,s1
   121ac:	00044e63          	bltz	s0,121c8 <__call_exitprocs+0x8c>
   121b0:	06090e63          	beqz	s2,1222c <__call_exitprocs+0xf0>
   121b4:	1044a783          	lw	a5,260(s1)
   121b8:	06f90a63          	beq	s2,a5,1222c <__call_exitprocs+0xf0>
   121bc:	fff40413          	addi	s0,s0,-1
   121c0:	ffc48493          	addi	s1,s1,-4
   121c4:	ff9416e3          	bne	s0,s9,121b0 <__call_exitprocs+0x74>
   121c8:	020b0463          	beqz	s6,121f0 <__call_exitprocs+0xb4>
   121cc:	0049a783          	lw	a5,4(s3)
   121d0:	0c079863          	bnez	a5,122a0 <__call_exitprocs+0x164>
   121d4:	0009a783          	lw	a5,0(s3)
   121d8:	0c078e63          	beqz	a5,122b4 <__call_exitprocs+0x178>
   121dc:	00098513          	mv	a0,s3
   121e0:	00fda023          	sw	a5,0(s11)
   121e4:	e1ded0ef          	jal	0 <_ftext-0x10000>
   121e8:	000da983          	lw	s3,0(s11)
   121ec:	fa0998e3          	bnez	s3,1219c <__call_exitprocs+0x60>
   121f0:	03c12083          	lw	ra,60(sp)
   121f4:	03812403          	lw	s0,56(sp)
   121f8:	03412483          	lw	s1,52(sp)
   121fc:	03012903          	lw	s2,48(sp)
   12200:	02c12983          	lw	s3,44(sp)
   12204:	02812a03          	lw	s4,40(sp)
   12208:	02412a83          	lw	s5,36(sp)
   1220c:	02012b03          	lw	s6,32(sp)
   12210:	01c12b83          	lw	s7,28(sp)
   12214:	01812c03          	lw	s8,24(sp)
   12218:	01412c83          	lw	s9,20(sp)
   1221c:	01012d03          	lw	s10,16(sp)
   12220:	00c12d83          	lw	s11,12(sp)
   12224:	04010113          	addi	sp,sp,64
   12228:	00008067          	ret
   1222c:	0049a783          	lw	a5,4(s3)
   12230:	0044a703          	lw	a4,4(s1)
   12234:	fff78793          	addi	a5,a5,-1
   12238:	04878a63          	beq	a5,s0,1228c <__call_exitprocs+0x150>
   1223c:	0004a223          	sw	zero,4(s1)
   12240:	f6070ee3          	beqz	a4,121bc <__call_exitprocs+0x80>
   12244:	1889a783          	lw	a5,392(s3)
   12248:	008a16b3          	sll	a3,s4,s0
   1224c:	0049ad03          	lw	s10,4(s3)
   12250:	00f6f7b3          	and	a5,a3,a5
   12254:	02078863          	beqz	a5,12284 <__call_exitprocs+0x148>
   12258:	18c9a783          	lw	a5,396(s3)
   1225c:	00f6f6b3          	and	a3,a3,a5
   12260:	02069a63          	bnez	a3,12294 <__call_exitprocs+0x158>
   12264:	0844a583          	lw	a1,132(s1)
   12268:	000a8513          	mv	a0,s5
   1226c:	000700e7          	jalr	a4
   12270:	0049a783          	lw	a5,4(s3)
   12274:	f1a79ee3          	bne	a5,s10,12190 <__call_exitprocs+0x54>
   12278:	000da783          	lw	a5,0(s11)
   1227c:	f53780e3          	beq	a5,s3,121bc <__call_exitprocs+0x80>
   12280:	f11ff06f          	j	12190 <__call_exitprocs+0x54>
   12284:	000700e7          	jalr	a4
   12288:	fe9ff06f          	j	12270 <__call_exitprocs+0x134>
   1228c:	0089a223          	sw	s0,4(s3)
   12290:	fb1ff06f          	j	12240 <__call_exitprocs+0x104>
   12294:	0844a503          	lw	a0,132(s1)
   12298:	000700e7          	jalr	a4
   1229c:	fd5ff06f          	j	12270 <__call_exitprocs+0x134>
   122a0:	0009a783          	lw	a5,0(s3)
   122a4:	00098d93          	mv	s11,s3
   122a8:	00078993          	mv	s3,a5
   122ac:	ee0998e3          	bnez	s3,1219c <__call_exitprocs+0x60>
   122b0:	f41ff06f          	j	121f0 <__call_exitprocs+0xb4>
   122b4:	00000793          	li	a5,0
   122b8:	fedff06f          	j	122a4 <__call_exitprocs+0x168>

000122bc <quorem>:
   122bc:	fe010113          	addi	sp,sp,-32
   122c0:	01212823          	sw	s2,16(sp)
   122c4:	01052783          	lw	a5,16(a0)
   122c8:	0105a903          	lw	s2,16(a1)
   122cc:	00112e23          	sw	ra,28(sp)
   122d0:	00812c23          	sw	s0,24(sp)
   122d4:	00912a23          	sw	s1,20(sp)
   122d8:	01312623          	sw	s3,12(sp)
   122dc:	01412423          	sw	s4,8(sp)
   122e0:	01512223          	sw	s5,4(sp)
   122e4:	1b27cc63          	blt	a5,s2,1249c <quorem+0x1e0>
   122e8:	fff90913          	addi	s2,s2,-1
   122ec:	00291e13          	slli	t3,s2,0x2
   122f0:	01458413          	addi	s0,a1,20
   122f4:	01c409b3          	add	s3,s0,t3
   122f8:	01450a13          	addi	s4,a0,20
   122fc:	01ca0e33          	add	t3,s4,t3
   12300:	0009a783          	lw	a5,0(s3)
   12304:	000e2483          	lw	s1,0(t3)
   12308:	00178793          	addi	a5,a5,1
   1230c:	02f4d4b3          	divu	s1,s1,a5
   12310:	0a048e63          	beqz	s1,123cc <quorem+0x110>
   12314:	000102b7          	lui	t0,0x10
   12318:	00040393          	mv	t2,s0
   1231c:	000a0313          	mv	t1,s4
   12320:	00000693          	li	a3,0
   12324:	00000793          	li	a5,0
   12328:	fff28293          	addi	t0,t0,-1 # ffff <_ftext-0x1>
   1232c:	00438393          	addi	t2,t2,4
   12330:	ffc3a603          	lw	a2,-4(t2)
   12334:	00032703          	lw	a4,0(t1)
   12338:	00430313          	addi	t1,t1,4
   1233c:	005678b3          	and	a7,a2,t0
   12340:	029888b3          	mul	a7,a7,s1
   12344:	01065613          	srli	a2,a2,0x10
   12348:	00577833          	and	a6,a4,t0
   1234c:	01075713          	srli	a4,a4,0x10
   12350:	02960633          	mul	a2,a2,s1
   12354:	00d888b3          	add	a7,a7,a3
   12358:	0108d693          	srli	a3,a7,0x10
   1235c:	0058f8b3          	and	a7,a7,t0
   12360:	411787b3          	sub	a5,a5,a7
   12364:	01078833          	add	a6,a5,a6
   12368:	41085893          	srai	a7,a6,0x10
   1236c:	00587833          	and	a6,a6,t0
   12370:	00d606b3          	add	a3,a2,a3
   12374:	0056f7b3          	and	a5,a3,t0
   12378:	40f70733          	sub	a4,a4,a5
   1237c:	011707b3          	add	a5,a4,a7
   12380:	01079713          	slli	a4,a5,0x10
   12384:	01076833          	or	a6,a4,a6
   12388:	0106d693          	srli	a3,a3,0x10
   1238c:	4107d793          	srai	a5,a5,0x10
   12390:	ff032e23          	sw	a6,-4(t1)
   12394:	f879fce3          	bleu	t2,s3,1232c <quorem+0x70>
   12398:	000e2783          	lw	a5,0(t3)
   1239c:	02079863          	bnez	a5,123cc <quorem+0x110>
   123a0:	ffce0793          	addi	a5,t3,-4
   123a4:	02fa7263          	bleu	a5,s4,123c8 <quorem+0x10c>
   123a8:	ffce2703          	lw	a4,-4(t3)
   123ac:	00070863          	beqz	a4,123bc <quorem+0x100>
   123b0:	0180006f          	j	123c8 <quorem+0x10c>
   123b4:	0007a703          	lw	a4,0(a5)
   123b8:	00071863          	bnez	a4,123c8 <quorem+0x10c>
   123bc:	ffc78793          	addi	a5,a5,-4
   123c0:	fff90913          	addi	s2,s2,-1
   123c4:	fefa68e3          	bltu	s4,a5,123b4 <quorem+0xf8>
   123c8:	01252823          	sw	s2,16(a0)
   123cc:	00050a93          	mv	s5,a0
   123d0:	1f0030ef          	jal	155c0 <__mcmp>
   123d4:	0a054063          	bltz	a0,12474 <quorem+0x1b8>
   123d8:	00010837          	lui	a6,0x10
   123dc:	00148493          	addi	s1,s1,1
   123e0:	000a0593          	mv	a1,s4
   123e4:	00000793          	li	a5,0
   123e8:	fff80813          	addi	a6,a6,-1 # ffff <_ftext-0x1>
   123ec:	00440413          	addi	s0,s0,4
   123f0:	ffc42603          	lw	a2,-4(s0)
   123f4:	0005a703          	lw	a4,0(a1)
   123f8:	00458593          	addi	a1,a1,4
   123fc:	010676b3          	and	a3,a2,a6
   12400:	40d787b3          	sub	a5,a5,a3
   12404:	010776b3          	and	a3,a4,a6
   12408:	00d786b3          	add	a3,a5,a3
   1240c:	01075713          	srli	a4,a4,0x10
   12410:	01065793          	srli	a5,a2,0x10
   12414:	40f70733          	sub	a4,a4,a5
   12418:	4106d793          	srai	a5,a3,0x10
   1241c:	00f707b3          	add	a5,a4,a5
   12420:	01079713          	slli	a4,a5,0x10
   12424:	0106f6b3          	and	a3,a3,a6
   12428:	00d766b3          	or	a3,a4,a3
   1242c:	4107d793          	srai	a5,a5,0x10
   12430:	fed5ae23          	sw	a3,-4(a1)
   12434:	fa89fce3          	bleu	s0,s3,123ec <quorem+0x130>
   12438:	00291713          	slli	a4,s2,0x2
   1243c:	00ea0733          	add	a4,s4,a4
   12440:	00072783          	lw	a5,0(a4)
   12444:	02079863          	bnez	a5,12474 <quorem+0x1b8>
   12448:	ffc70793          	addi	a5,a4,-4
   1244c:	02fa7263          	bleu	a5,s4,12470 <quorem+0x1b4>
   12450:	ffc72703          	lw	a4,-4(a4)
   12454:	00070863          	beqz	a4,12464 <quorem+0x1a8>
   12458:	0180006f          	j	12470 <quorem+0x1b4>
   1245c:	0007a703          	lw	a4,0(a5)
   12460:	00071863          	bnez	a4,12470 <quorem+0x1b4>
   12464:	ffc78793          	addi	a5,a5,-4
   12468:	fff90913          	addi	s2,s2,-1
   1246c:	fefa68e3          	bltu	s4,a5,1245c <quorem+0x1a0>
   12470:	012aa823          	sw	s2,16(s5)
   12474:	00048513          	mv	a0,s1
   12478:	01c12083          	lw	ra,28(sp)
   1247c:	01812403          	lw	s0,24(sp)
   12480:	01412483          	lw	s1,20(sp)
   12484:	01012903          	lw	s2,16(sp)
   12488:	00c12983          	lw	s3,12(sp)
   1248c:	00812a03          	lw	s4,8(sp)
   12490:	00412a83          	lw	s5,4(sp)
   12494:	02010113          	addi	sp,sp,32
   12498:	00008067          	ret
   1249c:	00000513          	li	a0,0
   124a0:	fd9ff06f          	j	12478 <quorem+0x1bc>

000124a4 <_dtoa_r>:
   124a4:	04052683          	lw	a3,64(a0)
   124a8:	f4010113          	addi	sp,sp,-192
   124ac:	0a812c23          	sw	s0,184(sp)
   124b0:	0b312623          	sw	s3,172(sp)
   124b4:	0b412423          	sw	s4,168(sp)
   124b8:	0a112e23          	sw	ra,188(sp)
   124bc:	0a912a23          	sw	s1,180(sp)
   124c0:	0b212823          	sw	s2,176(sp)
   124c4:	0b512223          	sw	s5,164(sp)
   124c8:	0b612023          	sw	s6,160(sp)
   124cc:	09712e23          	sw	s7,156(sp)
   124d0:	09812c23          	sw	s8,152(sp)
   124d4:	09912a23          	sw	s9,148(sp)
   124d8:	09a12823          	sw	s10,144(sp)
   124dc:	09b12623          	sw	s11,140(sp)
   124e0:	06813c27          	fsd	fs0,120(sp)
   124e4:	06913827          	fsd	fs1,112(sp)
   124e8:	07213427          	fsd	fs2,104(sp)
   124ec:	07413027          	fsd	fs4,96(sp)
   124f0:	05613c27          	fsd	fs6,88(sp)
   124f4:	00c13c27          	fsd	fa2,24(sp)
   124f8:	03012623          	sw	a6,44(sp)
   124fc:	00050413          	mv	s0,a0
   12500:	00070a13          	mv	s4,a4
   12504:	00078993          	mv	s3,a5
   12508:	02068663          	beqz	a3,12534 <_dtoa_r+0x90>
   1250c:	04452703          	lw	a4,68(a0)
   12510:	00100793          	li	a5,1
   12514:	00068593          	mv	a1,a3
   12518:	00e797b3          	sll	a5,a5,a4
   1251c:	00e6a223          	sw	a4,4(a3)
   12520:	00f6a423          	sw	a5,8(a3)
   12524:	01112a23          	sw	a7,20(sp)
   12528:	089020ef          	jal	14db0 <_Bfree>
   1252c:	01412883          	lw	a7,20(sp)
   12530:	04042023          	sw	zero,64(s0)
   12534:	01c12483          	lw	s1,28(sp)
   12538:	0e04c663          	bltz	s1,12624 <_dtoa_r+0x180>
   1253c:	0008a023          	sw	zero,0(a7)
   12540:	7ff007b7          	lui	a5,0x7ff00
   12544:	00f4f733          	and	a4,s1,a5
   12548:	08f70a63          	beq	a4,a5,125dc <_dtoa_r+0x138>
   1254c:	01813007          	fld	ft0,24(sp)
   12550:	02013027          	fsd	ft0,32(sp)
   12554:	02013087          	fld	ft1,32(sp)
   12558:	d2000053          	fcvt.d.w	ft0,zero
   1255c:	a200a7d3          	feq.d	a5,ft1,ft0
   12560:	0e078263          	beqz	a5,12644 <_dtoa_r+0x1a0>
   12564:	02c12603          	lw	a2,44(sp)
   12568:	0c012703          	lw	a4,192(sp)
   1256c:	00100793          	li	a5,1
   12570:	00f62023          	sw	a5,0(a2)
   12574:	48070263          	beqz	a4,129f8 <_dtoa_r+0x554>
   12578:	0001b7b7          	lui	a5,0x1b
   1257c:	acd78793          	addi	a5,a5,-1331 # 1aacd <__clz_tab+0x145>
   12580:	0001b4b7          	lui	s1,0x1b
   12584:	00f72023          	sw	a5,0(a4)
   12588:	acc48513          	addi	a0,s1,-1332 # 1aacc <__clz_tab+0x144>
   1258c:	0bc12083          	lw	ra,188(sp)
   12590:	0b812403          	lw	s0,184(sp)
   12594:	0b412483          	lw	s1,180(sp)
   12598:	0b012903          	lw	s2,176(sp)
   1259c:	0ac12983          	lw	s3,172(sp)
   125a0:	0a812a03          	lw	s4,168(sp)
   125a4:	0a412a83          	lw	s5,164(sp)
   125a8:	0a012b03          	lw	s6,160(sp)
   125ac:	09c12b83          	lw	s7,156(sp)
   125b0:	09812c03          	lw	s8,152(sp)
   125b4:	09412c83          	lw	s9,148(sp)
   125b8:	09012d03          	lw	s10,144(sp)
   125bc:	08c12d83          	lw	s11,140(sp)
   125c0:	07813407          	fld	fs0,120(sp)
   125c4:	07013487          	fld	fs1,112(sp)
   125c8:	06813907          	fld	fs2,104(sp)
   125cc:	06013a07          	fld	fs4,96(sp)
   125d0:	05813b07          	fld	fs6,88(sp)
   125d4:	0c010113          	addi	sp,sp,192
   125d8:	00008067          	ret
   125dc:	02c12603          	lw	a2,44(sp)
   125e0:	01812703          	lw	a4,24(sp)
   125e4:	000027b7          	lui	a5,0x2
   125e8:	70f78793          	addi	a5,a5,1807 # 270f <_ftext-0xd8f1>
   125ec:	00f62023          	sw	a5,0(a2)
   125f0:	3c070463          	beqz	a4,129b8 <_dtoa_r+0x514>
   125f4:	0001b537          	lui	a0,0x1b
   125f8:	adc50493          	addi	s1,a0,-1316 # 1aadc <__clz_tab+0x154>
   125fc:	0c012603          	lw	a2,192(sp)
   12600:	300602e3          	beqz	a2,13104 <_dtoa_r+0xc60>
   12604:	0034c703          	lbu	a4,3(s1)
   12608:	00348793          	addi	a5,s1,3
   1260c:	00070463          	beqz	a4,12614 <_dtoa_r+0x170>
   12610:	00848793          	addi	a5,s1,8
   12614:	0c012703          	lw	a4,192(sp)
   12618:	00048513          	mv	a0,s1
   1261c:	00f72023          	sw	a5,0(a4)
   12620:	f6dff06f          	j	1258c <_dtoa_r+0xe8>
   12624:	01c12783          	lw	a5,28(sp)
   12628:	800004b7          	lui	s1,0x80000
   1262c:	fff4c493          	not	s1,s1
   12630:	00f4f4b3          	and	s1,s1,a5
   12634:	00100793          	li	a5,1
   12638:	00f8a023          	sw	a5,0(a7)
   1263c:	00912e23          	sw	s1,28(sp)
   12640:	f01ff06f          	j	12540 <_dtoa_r+0x9c>
   12644:	02013607          	fld	fa2,32(sp)
   12648:	04810793          	addi	a5,sp,72
   1264c:	04c10713          	addi	a4,sp,76
   12650:	00040513          	mv	a0,s0
   12654:	390030ef          	jal	159e4 <__d2b>
   12658:	0144d813          	srli	a6,s1,0x14
   1265c:	02a12823          	sw	a0,48(sp)
   12660:	36081663          	bnez	a6,129cc <_dtoa_r+0x528>
   12664:	04812803          	lw	a6,72(sp)
   12668:	04c12683          	lw	a3,76(sp)
   1266c:	02000793          	li	a5,32
   12670:	00d806b3          	add	a3,a6,a3
   12674:	43268613          	addi	a2,a3,1074
   12678:	62c7d863          	ble	a2,a5,12ca8 <_dtoa_r+0x804>
   1267c:	04000793          	li	a5,64
   12680:	40c78633          	sub	a2,a5,a2
   12684:	01812783          	lw	a5,24(sp)
   12688:	41268713          	addi	a4,a3,1042
   1268c:	00c494b3          	sll	s1,s1,a2
   12690:	00e7d733          	srl	a4,a5,a4
   12694:	009764b3          	or	s1,a4,s1
   12698:	d2148053          	fcvt.d.wu	ft0,s1
   1269c:	00013027          	fsd	ft0,0(sp)
   126a0:	00412783          	lw	a5,4(sp)
   126a4:	00012703          	lw	a4,0(sp)
   126a8:	fe100637          	lui	a2,0xfe100
   126ac:	00f607b3          	add	a5,a2,a5
   126b0:	fff68693          	addi	a3,a3,-1
   126b4:	00100913          	li	s2,1
   126b8:	00f12223          	sw	a5,4(sp)
   126bc:	00e12023          	sw	a4,0(sp)
   126c0:	8201b007          	fld	ft0,-2016(gp) # 1c5b0 <__wctomb+0x8>
   126c4:	00013107          	fld	ft2,0(sp)
   126c8:	0a0170d3          	fsub.d	ft1,ft2,ft0
   126cc:	8301b007          	fld	ft0,-2000(gp) # 1c5c0 <__wctomb+0x18>
   126d0:	8281b107          	fld	ft2,-2008(gp) # 1c5b8 <__wctomb+0x10>
   126d4:	0220f043          	fmadd.d	ft0,ft1,ft2,ft0
   126d8:	8381b107          	fld	ft2,-1992(gp) # 1c5c8 <__wctomb+0x20>
   126dc:	d20680d3          	fcvt.d.w	ft1,a3
   126e0:	0220f043          	fmadd.d	ft0,ft1,ft2,ft0
   126e4:	d20000d3          	fcvt.d.w	ft1,zero
   126e8:	a21017d3          	flt.d	a5,ft0,ft1
   126ec:	c2001bd3          	fcvt.w.d	s7,ft0,rtz
   126f0:	58079663          	bnez	a5,12c7c <_dtoa_r+0x7d8>
   126f4:	00100713          	li	a4,1
   126f8:	01600793          	li	a5,22
   126fc:	02e12a23          	sw	a4,52(sp)
   12700:	0377e663          	bltu	a5,s7,1272c <_dtoa_r+0x288>
   12704:	0001a737          	lui	a4,0x1a
   12708:	003b9793          	slli	a5,s7,0x3
   1270c:	6c070713          	addi	a4,a4,1728 # 1a6c0 <__mprec_tens>
   12710:	00e787b3          	add	a5,a5,a4
   12714:	0007b007          	fld	ft0,0(a5)
   12718:	01813087          	fld	ft1,24(sp)
   1271c:	a20097d3          	flt.d	a5,ft1,ft0
   12720:	58078063          	beqz	a5,12ca0 <_dtoa_r+0x7fc>
   12724:	fffb8b93          	addi	s7,s7,-1
   12728:	02012a23          	sw	zero,52(sp)
   1272c:	40d80833          	sub	a6,a6,a3
   12730:	fff80d13          	addi	s10,a6,-1
   12734:	00000c93          	li	s9,0
   12738:	2c0d4663          	bltz	s10,12a04 <_dtoa_r+0x560>
   1273c:	520bc863          	bltz	s7,12c6c <_dtoa_r+0x7c8>
   12740:	017d0d33          	add	s10,s10,s7
   12744:	03712c23          	sw	s7,56(sp)
   12748:	00000c13          	li	s8,0
   1274c:	00900793          	li	a5,9
   12750:	2d47e063          	bltu	a5,s4,12a10 <_dtoa_r+0x56c>
   12754:	00500793          	li	a5,5
   12758:	00100d93          	li	s11,1
   1275c:	0147d663          	ble	s4,a5,12768 <_dtoa_r+0x2c4>
   12760:	ffca0a13          	addi	s4,s4,-4
   12764:	00000d93          	li	s11,0
   12768:	00300793          	li	a5,3
   1276c:	24fa0ae3          	beq	s4,a5,131c0 <_dtoa_r+0xd1c>
   12770:	1b47dce3          	ble	s4,a5,13128 <_dtoa_r+0xc84>
   12774:	00400793          	li	a5,4
   12778:	06fa0ce3          	beq	s4,a5,12ff0 <_dtoa_r+0xb4c>
   1277c:	00100793          	li	a5,1
   12780:	02f12023          	sw	a5,32(sp)
   12784:	00500793          	li	a5,5
   12788:	1afa16e3          	bne	s4,a5,13134 <_dtoa_r+0xc90>
   1278c:	013b87b3          	add	a5,s7,s3
   12790:	00178b13          	addi	s6,a5,1
   12794:	02f12e23          	sw	a5,60(sp)
   12798:	000b0613          	mv	a2,s6
   1279c:	000b0a93          	mv	s5,s6
   127a0:	17605ee3          	blez	s6,1311c <_dtoa_r+0xc78>
   127a4:	01700793          	li	a5,23
   127a8:	04042223          	sw	zero,68(s0)
   127ac:	00000593          	li	a1,0
   127b0:	02c7f263          	bleu	a2,a5,127d4 <_dtoa_r+0x330>
   127b4:	00100713          	li	a4,1
   127b8:	00400793          	li	a5,4
   127bc:	00179793          	slli	a5,a5,0x1
   127c0:	01478693          	addi	a3,a5,20
   127c4:	00070593          	mv	a1,a4
   127c8:	00170713          	addi	a4,a4,1
   127cc:	fed678e3          	bleu	a3,a2,127bc <_dtoa_r+0x318>
   127d0:	04b42223          	sw	a1,68(s0)
   127d4:	00040513          	mv	a0,s0
   127d8:	534020ef          	jal	14d0c <_Balloc>
   127dc:	00e00793          	li	a5,14
   127e0:	00050493          	mv	s1,a0
   127e4:	04a42023          	sw	a0,64(s0)
   127e8:	2557ec63          	bltu	a5,s5,12a40 <_dtoa_r+0x59c>
   127ec:	240d8a63          	beqz	s11,12a40 <_dtoa_r+0x59c>
   127f0:	01813007          	fld	ft0,24(sp)
   127f4:	29705ce3          	blez	s7,1328c <_dtoa_r+0xde8>
   127f8:	00fbf793          	andi	a5,s7,15
   127fc:	00379713          	slli	a4,a5,0x3
   12800:	0001a7b7          	lui	a5,0x1a
   12804:	404bda93          	srai	s5,s7,0x4
   12808:	6c078793          	addi	a5,a5,1728 # 1a6c0 <__mprec_tens>
   1280c:	00f707b3          	add	a5,a4,a5
   12810:	010af713          	andi	a4,s5,16
   12814:	0007b407          	fld	fs0,0(a5)
   12818:	22000553          	fmv.d	fa0,ft0
   1281c:	00200d93          	li	s11,2
   12820:	00070c63          	beqz	a4,12838 <_dtoa_r+0x394>
   12824:	0001a7b7          	lui	a5,0x1a
   12828:	7d07b607          	fld	fa2,2000(a5) # 1a7d0 <__mprec_bigtens+0x20>
   1282c:	00fafa93          	andi	s5,s5,15
   12830:	00300d93          	li	s11,3
   12834:	1c1060ef          	jal	191f4 <__divdf3>
   12838:	020a8663          	beqz	s5,12864 <_dtoa_r+0x3c0>
   1283c:	0001a7b7          	lui	a5,0x1a
   12840:	7b078793          	addi	a5,a5,1968 # 1a7b0 <__mprec_bigtens>
   12844:	001af713          	andi	a4,s5,1
   12848:	401ada93          	srai	s5,s5,0x1
   1284c:	00070863          	beqz	a4,1285c <_dtoa_r+0x3b8>
   12850:	0007b007          	fld	ft0,0(a5)
   12854:	001d8d93          	addi	s11,s11,1
   12858:	12047453          	fmul.d	fs0,fs0,ft0
   1285c:	00878793          	addi	a5,a5,8
   12860:	fe0a92e3          	bnez	s5,12844 <_dtoa_r+0x3a0>
   12864:	22840653          	fmv.d	fa2,fs0
   12868:	18d060ef          	jal	191f4 <__divdf3>
   1286c:	22a50453          	fmv.d	fs0,fa0
   12870:	03412703          	lw	a4,52(sp)
   12874:	00070863          	beqz	a4,12884 <_dtoa_r+0x3e0>
   12878:	8401b007          	fld	ft0,-1984(gp) # 1c5d0 <__wctomb+0x28>
   1287c:	a20417d3          	flt.d	a5,fs0,ft0
   12880:	3a0796e3          	bnez	a5,1342c <_dtoa_r+0xf88>
   12884:	8501b007          	fld	ft0,-1968(gp) # 1c5e0 <__wctomb+0x38>
   12888:	d20d80d3          	fcvt.d.w	ft1,s11
   1288c:	fcc006b7          	lui	a3,0xfcc00
   12890:	0280f043          	fmadd.d	ft0,ft1,fs0,ft0
   12894:	00013027          	fsd	ft0,0(sp)
   12898:	00412783          	lw	a5,4(sp)
   1289c:	00012703          	lw	a4,0(sp)
   128a0:	00f687b3          	add	a5,a3,a5
   128a4:	140b02e3          	beqz	s6,131e8 <_dtoa_r+0xd44>
   128a8:	000b8a93          	mv	s5,s7
   128ac:	000b0693          	mv	a3,s6
   128b0:	02012603          	lw	a2,32(sp)
   128b4:	26060ce3          	beqz	a2,1332c <_dtoa_r+0xe88>
   128b8:	fff68613          	addi	a2,a3,-1 # fcbfffff <_gp+0xfcbe326f>
   128bc:	00361593          	slli	a1,a2,0x3
   128c0:	0001a637          	lui	a2,0x1a
   128c4:	6c060613          	addi	a2,a2,1728 # 1a6c0 <__mprec_tens>
   128c8:	00c58633          	add	a2,a1,a2
   128cc:	00063607          	fld	fa2,0(a2)
   128d0:	8601b507          	fld	fa0,-1952(gp) # 1c5f0 <__wctomb+0x48>
   128d4:	00d12a23          	sw	a3,20(sp)
   128d8:	00e12623          	sw	a4,12(sp)
   128dc:	00f12823          	sw	a5,16(sp)
   128e0:	115060ef          	jal	191f4 <__divdf3>
   128e4:	00c12703          	lw	a4,12(sp)
   128e8:	01012783          	lw	a5,16(sp)
   128ec:	c2041653          	fcvt.w.d	a2,fs0,rtz
   128f0:	00e12023          	sw	a4,0(sp)
   128f4:	00f12223          	sw	a5,4(sp)
   128f8:	00013087          	fld	ft1,0(sp)
   128fc:	d2060053          	fcvt.d.w	ft0,a2
   12900:	0a047053          	fsub.d	ft0,fs0,ft0
   12904:	0a157553          	fsub.d	fa0,fa0,ft1
   12908:	03060793          	addi	a5,a2,48
   1290c:	0ff7f793          	andi	a5,a5,255
   12910:	00f48023          	sb	a5,0(s1) # 80000000 <_gp+0x7ffe3270>
   12914:	a2a01753          	flt.d	a4,ft0,fa0
   12918:	00148d93          	addi	s11,s1,1
   1291c:	01412683          	lw	a3,20(sp)
   12920:	06071263          	bnez	a4,12984 <_dtoa_r+0x4e0>
   12924:	8401b207          	fld	ft4,-1984(gp) # 1c5d0 <__wctomb+0x28>
   12928:	0a0270d3          	fsub.d	ft1,ft4,ft0
   1292c:	a2a09753          	flt.d	a4,ft1,fa0
   12930:	36071ae3          	bnez	a4,134a4 <_dtoa_r+0x1000>
   12934:	00100793          	li	a5,1
   12938:	10d7d463          	ble	a3,a5,12a40 <_dtoa_r+0x59c>
   1293c:	8481b107          	fld	ft2,-1976(gp) # 1c5d8 <__wctomb+0x30>
   12940:	00d486b3          	add	a3,s1,a3
   12944:	0140006f          	j	12958 <_dtoa_r+0x4b4>
   12948:	0a0270d3          	fsub.d	ft1,ft4,ft0
   1294c:	a2a09753          	flt.d	a4,ft1,fa0
   12950:	34071ae3          	bnez	a4,134a4 <_dtoa_r+0x1000>
   12954:	0edd8663          	beq	s11,a3,12a40 <_dtoa_r+0x59c>
   12958:	12207053          	fmul.d	ft0,ft0,ft2
   1295c:	12257553          	fmul.d	fa0,fa0,ft2
   12960:	001d8d93          	addi	s11,s11,1
   12964:	c20017d3          	fcvt.w.d	a5,ft0,rtz
   12968:	d20780d3          	fcvt.d.w	ft1,a5
   1296c:	0a107053          	fsub.d	ft0,ft0,ft1
   12970:	03078793          	addi	a5,a5,48
   12974:	0ff7f793          	andi	a5,a5,255
   12978:	fefd8fa3          	sb	a5,-1(s11)
   1297c:	a2a01753          	flt.d	a4,ft0,fa0
   12980:	fc0704e3          	beqz	a4,12948 <_dtoa_r+0x4a4>
   12984:	000a8b93          	mv	s7,s5
   12988:	03012583          	lw	a1,48(sp)
   1298c:	00040513          	mv	a0,s0
   12990:	001b8b93          	addi	s7,s7,1
   12994:	41c020ef          	jal	14db0 <_Bfree>
   12998:	02c12783          	lw	a5,44(sp)
   1299c:	0c012603          	lw	a2,192(sp)
   129a0:	000d8023          	sb	zero,0(s11)
   129a4:	0177a023          	sw	s7,0(a5)
   129a8:	74060e63          	beqz	a2,13104 <_dtoa_r+0xc60>
   129ac:	01b62023          	sw	s11,0(a2)
   129b0:	00048513          	mv	a0,s1
   129b4:	bd9ff06f          	j	1258c <_dtoa_r+0xe8>
   129b8:	00c49793          	slli	a5,s1,0xc
   129bc:	c2079ce3          	bnez	a5,125f4 <_dtoa_r+0x150>
   129c0:	0001b537          	lui	a0,0x1b
   129c4:	ad050493          	addi	s1,a0,-1328 # 1aad0 <__clz_tab+0x148>
   129c8:	c35ff06f          	j	125fc <_dtoa_r+0x158>
   129cc:	02412783          	lw	a5,36(sp)
   129d0:	00100637          	lui	a2,0x100
   129d4:	fff60613          	addi	a2,a2,-1 # fffff <_gp+0xe326f>
   129d8:	3ff006b7          	lui	a3,0x3ff00
   129dc:	00c7f633          	and	a2,a5,a2
   129e0:	00d667b3          	or	a5,a2,a3
   129e4:	c0180693          	addi	a3,a6,-1023
   129e8:	02012703          	lw	a4,32(sp)
   129ec:	04812803          	lw	a6,72(sp)
   129f0:	00000913          	li	s2,0
   129f4:	cc5ff06f          	j	126b8 <_dtoa_r+0x214>
   129f8:	0001b4b7          	lui	s1,0x1b
   129fc:	acc48513          	addi	a0,s1,-1332 # 1aacc <__clz_tab+0x144>
   12a00:	b8dff06f          	j	1258c <_dtoa_r+0xe8>
   12a04:	41a00cb3          	neg	s9,s10
   12a08:	00000d13          	li	s10,0
   12a0c:	d31ff06f          	j	1273c <_dtoa_r+0x298>
   12a10:	04042223          	sw	zero,68(s0)
   12a14:	00000593          	li	a1,0
   12a18:	00040513          	mv	a0,s0
   12a1c:	2f0020ef          	jal	14d0c <_Balloc>
   12a20:	fff00b13          	li	s6,-1
   12a24:	00100793          	li	a5,1
   12a28:	00050493          	mv	s1,a0
   12a2c:	04a42023          	sw	a0,64(s0)
   12a30:	03612e23          	sw	s6,60(sp)
   12a34:	00000993          	li	s3,0
   12a38:	00000a13          	li	s4,0
   12a3c:	02f12023          	sw	a5,32(sp)
   12a40:	04c12783          	lw	a5,76(sp)
   12a44:	0e07cc63          	bltz	a5,12b3c <_dtoa_r+0x698>
   12a48:	00e00713          	li	a4,14
   12a4c:	0f774863          	blt	a4,s7,12b3c <_dtoa_r+0x698>
   12a50:	0001a737          	lui	a4,0x1a
   12a54:	003b9793          	slli	a5,s7,0x3
   12a58:	6c070713          	addi	a4,a4,1728 # 1a6c0 <__mprec_tens>
   12a5c:	00e787b3          	add	a5,a5,a4
   12a60:	0007b407          	fld	fs0,0(a5)
   12a64:	5a09c663          	bltz	s3,13010 <_dtoa_r+0xb6c>
   12a68:	01813487          	fld	fs1,24(sp)
   12a6c:	22840653          	fmv.d	fa2,fs0
   12a70:	22841b53          	fneg.d	fs6,fs0
   12a74:	22948553          	fmv.d	fa0,fs1
   12a78:	00148d93          	addi	s11,s1,1
   12a7c:	778060ef          	jal	191f4 <__divdf3>
   12a80:	c2051753          	fcvt.w.d	a4,fa0,rtz
   12a84:	03070793          	addi	a5,a4,48
   12a88:	d2070053          	fcvt.d.w	ft0,a4
   12a8c:	00f48023          	sb	a5,0(s1)
   12a90:	00100793          	li	a5,1
   12a94:	4a0b74c3          	fmadd.d	fs1,fs6,ft0,fs1
   12a98:	04fb0e63          	beq	s6,a5,12af4 <_dtoa_r+0x650>
   12a9c:	8481ba07          	fld	fs4,-1976(gp) # 1c5d8 <__wctomb+0x30>
   12aa0:	d2000953          	fcvt.d.w	fs2,zero
   12aa4:	00248913          	addi	s2,s1,2
   12aa8:	1344f4d3          	fmul.d	fs1,fs1,fs4
   12aac:	01648b33          	add	s6,s1,s6
   12ab0:	a324a7d3          	feq.d	a5,fs1,fs2
   12ab4:	00078c63          	beqz	a5,12acc <_dtoa_r+0x628>
   12ab8:	ed1ff06f          	j	12988 <_dtoa_r+0x4e4>
   12abc:	1344f4d3          	fmul.d	fs1,fs1,fs4
   12ac0:	00190913          	addi	s2,s2,1
   12ac4:	a324a7d3          	feq.d	a5,fs1,fs2
   12ac8:	ec0790e3          	bnez	a5,12988 <_dtoa_r+0x4e4>
   12acc:	22948553          	fmv.d	fa0,fs1
   12ad0:	22840653          	fmv.d	fa2,fs0
   12ad4:	00090d93          	mv	s11,s2
   12ad8:	71c060ef          	jal	191f4 <__divdf3>
   12adc:	c2051753          	fcvt.w.d	a4,fa0,rtz
   12ae0:	d2070053          	fcvt.d.w	ft0,a4
   12ae4:	03070793          	addi	a5,a4,48
   12ae8:	fef90fa3          	sb	a5,-1(s2)
   12aec:	4a0b74c3          	fmadd.d	fs1,fs6,ft0,fs1
   12af0:	fd2b16e3          	bne	s6,s2,12abc <_dtoa_r+0x618>
   12af4:	0294f4d3          	fadd.d	fs1,fs1,fs1
   12af8:	a29417d3          	flt.d	a5,fs0,fs1
   12afc:	00079a63          	bnez	a5,12b10 <_dtoa_r+0x66c>
   12b00:	a29427d3          	feq.d	a5,fs0,fs1
   12b04:	e80782e3          	beqz	a5,12988 <_dtoa_r+0x4e4>
   12b08:	00177713          	andi	a4,a4,1
   12b0c:	e6070ee3          	beqz	a4,12988 <_dtoa_r+0x4e4>
   12b10:	fffdc783          	lbu	a5,-1(s11)
   12b14:	03900693          	li	a3,57
   12b18:	0100006f          	j	12b28 <_dtoa_r+0x684>
   12b1c:	74970e63          	beq	a4,s1,13278 <_dtoa_r+0xdd4>
   12b20:	fff74783          	lbu	a5,-1(a4)
   12b24:	00070d93          	mv	s11,a4
   12b28:	fffd8713          	addi	a4,s11,-1
   12b2c:	fed788e3          	beq	a5,a3,12b1c <_dtoa_r+0x678>
   12b30:	00178793          	addi	a5,a5,1
   12b34:	00f70023          	sb	a5,0(a4)
   12b38:	e51ff06f          	j	12988 <_dtoa_r+0x4e4>
   12b3c:	02012703          	lw	a4,32(sp)
   12b40:	14070863          	beqz	a4,12c90 <_dtoa_r+0x7ec>
   12b44:	00100713          	li	a4,1
   12b48:	51475463          	ble	s4,a4,13050 <_dtoa_r+0xbac>
   12b4c:	fffb0713          	addi	a4,s6,-1
   12b50:	6eec4263          	blt	s8,a4,13234 <_dtoa_r+0xd90>
   12b54:	40ec0733          	sub	a4,s8,a4
   12b58:	000c8d93          	mv	s11,s9
   12b5c:	000b0793          	mv	a5,s6
   12b60:	0a0b40e3          	bltz	s6,13400 <_dtoa_r+0xf5c>
   12b64:	00100593          	li	a1,1
   12b68:	00040513          	mv	a0,s0
   12b6c:	00e12623          	sw	a4,12(sp)
   12b70:	00fc8cb3          	add	s9,s9,a5
   12b74:	00fd0d33          	add	s10,s10,a5
   12b78:	59c020ef          	jal	15114 <__i2b>
   12b7c:	00c12703          	lw	a4,12(sp)
   12b80:	00050a93          	mv	s5,a0
   12b84:	000d8e63          	beqz	s11,12ba0 <_dtoa_r+0x6fc>
   12b88:	01a05c63          	blez	s10,12ba0 <_dtoa_r+0x6fc>
   12b8c:	000d8793          	mv	a5,s11
   12b90:	41bd4863          	blt	s10,s11,12fa0 <_dtoa_r+0xafc>
   12b94:	40fc8cb3          	sub	s9,s9,a5
   12b98:	40fd8db3          	sub	s11,s11,a5
   12b9c:	40fd0d33          	sub	s10,s10,a5
   12ba0:	03012903          	lw	s2,48(sp)
   12ba4:	07805663          	blez	s8,12c10 <_dtoa_r+0x76c>
   12ba8:	02012783          	lw	a5,32(sp)
   12bac:	66078863          	beqz	a5,1321c <_dtoa_r+0xd78>
   12bb0:	04070663          	beqz	a4,12bfc <_dtoa_r+0x758>
   12bb4:	00070613          	mv	a2,a4
   12bb8:	000a8593          	mv	a1,s5
   12bbc:	00040513          	mv	a0,s0
   12bc0:	00e12623          	sw	a4,12(sp)
   12bc4:	774020ef          	jal	15338 <__pow5mult>
   12bc8:	03012603          	lw	a2,48(sp)
   12bcc:	00050593          	mv	a1,a0
   12bd0:	00050a93          	mv	s5,a0
   12bd4:	00040513          	mv	a0,s0
   12bd8:	570020ef          	jal	15148 <__multiply>
   12bdc:	00c12703          	lw	a4,12(sp)
   12be0:	03012583          	lw	a1,48(sp)
   12be4:	00050913          	mv	s2,a0
   12be8:	40ec0c33          	sub	s8,s8,a4
   12bec:	00040513          	mv	a0,s0
   12bf0:	1c0020ef          	jal	14db0 <_Bfree>
   12bf4:	000c0e63          	beqz	s8,12c10 <_dtoa_r+0x76c>
   12bf8:	03212823          	sw	s2,48(sp)
   12bfc:	03012583          	lw	a1,48(sp)
   12c00:	000c0613          	mv	a2,s8
   12c04:	00040513          	mv	a0,s0
   12c08:	730020ef          	jal	15338 <__pow5mult>
   12c0c:	00050913          	mv	s2,a0
   12c10:	00100593          	li	a1,1
   12c14:	00040513          	mv	a0,s0
   12c18:	4fc020ef          	jal	15114 <__i2b>
   12c1c:	03812703          	lw	a4,56(sp)
   12c20:	00050c13          	mv	s8,a0
   12c24:	08070a63          	beqz	a4,12cb8 <_dtoa_r+0x814>
   12c28:	00050593          	mv	a1,a0
   12c2c:	00070613          	mv	a2,a4
   12c30:	00040513          	mv	a0,s0
   12c34:	704020ef          	jal	15338 <__pow5mult>
   12c38:	00100793          	li	a5,1
   12c3c:	00050c13          	mv	s8,a0
   12c40:	3747d463          	ble	s4,a5,12fa8 <_dtoa_r+0xb04>
   12c44:	02012823          	sw	zero,48(sp)
   12c48:	010c2783          	lw	a5,16(s8)
   12c4c:	00378793          	addi	a5,a5,3
   12c50:	00279793          	slli	a5,a5,0x2
   12c54:	00fc07b3          	add	a5,s8,a5
   12c58:	0047a503          	lw	a0,4(a5)
   12c5c:	38c020ef          	jal	14fe8 <__hi0bits>
   12c60:	02000793          	li	a5,32
   12c64:	40a78533          	sub	a0,a5,a0
   12c68:	05c0006f          	j	12cc4 <_dtoa_r+0x820>
   12c6c:	417c8cb3          	sub	s9,s9,s7
   12c70:	41700c33          	neg	s8,s7
   12c74:	02012c23          	sw	zero,56(sp)
   12c78:	ad5ff06f          	j	1274c <_dtoa_r+0x2a8>
   12c7c:	d20b80d3          	fcvt.d.w	ft1,s7
   12c80:	a21027d3          	feq.d	a5,ft0,ft1
   12c84:	0017b793          	seqz	a5,a5
   12c88:	40fb8bb3          	sub	s7,s7,a5
   12c8c:	a69ff06f          	j	126f4 <_dtoa_r+0x250>
   12c90:	000c0713          	mv	a4,s8
   12c94:	000c8d93          	mv	s11,s9
   12c98:	00000a93          	li	s5,0
   12c9c:	ee9ff06f          	j	12b84 <_dtoa_r+0x6e0>
   12ca0:	02012a23          	sw	zero,52(sp)
   12ca4:	a89ff06f          	j	1272c <_dtoa_r+0x288>
   12ca8:	40c784b3          	sub	s1,a5,a2
   12cac:	01812603          	lw	a2,24(sp)
   12cb0:	009614b3          	sll	s1,a2,s1
   12cb4:	9e5ff06f          	j	12698 <_dtoa_r+0x1f4>
   12cb8:	00100513          	li	a0,1
   12cbc:	43455463          	ble	s4,a0,130e4 <_dtoa_r+0xc40>
   12cc0:	02012823          	sw	zero,48(sp)
   12cc4:	01a50533          	add	a0,a0,s10
   12cc8:	01f57513          	andi	a0,a0,31
   12ccc:	1a050663          	beqz	a0,12e78 <_dtoa_r+0x9d4>
   12cd0:	02000793          	li	a5,32
   12cd4:	40a787b3          	sub	a5,a5,a0
   12cd8:	00400713          	li	a4,4
   12cdc:	00f75ae3          	ble	a5,a4,134f0 <_dtoa_r+0x104c>
   12ce0:	01c00793          	li	a5,28
   12ce4:	40a78533          	sub	a0,a5,a0
   12ce8:	00ac8cb3          	add	s9,s9,a0
   12cec:	00ad8db3          	add	s11,s11,a0
   12cf0:	00ad0d33          	add	s10,s10,a0
   12cf4:	01905c63          	blez	s9,12d0c <_dtoa_r+0x868>
   12cf8:	00090593          	mv	a1,s2
   12cfc:	000c8613          	mv	a2,s9
   12d00:	00040513          	mv	a0,s0
   12d04:	76c020ef          	jal	15470 <__lshift>
   12d08:	00050913          	mv	s2,a0
   12d0c:	01a05c63          	blez	s10,12d24 <_dtoa_r+0x880>
   12d10:	000c0593          	mv	a1,s8
   12d14:	000d0613          	mv	a2,s10
   12d18:	00040513          	mv	a0,s0
   12d1c:	754020ef          	jal	15470 <__lshift>
   12d20:	00050c13          	mv	s8,a0
   12d24:	03412783          	lw	a5,52(sp)
   12d28:	16079263          	bnez	a5,12e8c <_dtoa_r+0x9e8>
   12d2c:	43605c63          	blez	s6,13164 <_dtoa_r+0xcc0>
   12d30:	02012703          	lw	a4,32(sp)
   12d34:	1a070263          	beqz	a4,12ed8 <_dtoa_r+0xa34>
   12d38:	01b05c63          	blez	s11,12d50 <_dtoa_r+0x8ac>
   12d3c:	000a8593          	mv	a1,s5
   12d40:	000d8613          	mv	a2,s11
   12d44:	00040513          	mv	a0,s0
   12d48:	728020ef          	jal	15470 <__lshift>
   12d4c:	00050a93          	mv	s5,a0
   12d50:	03012783          	lw	a5,48(sp)
   12d54:	000a8d13          	mv	s10,s5
   12d58:	58079a63          	bnez	a5,132ec <_dtoa_r+0xe48>
   12d5c:	01812703          	lw	a4,24(sp)
   12d60:	01648b33          	add	s6,s1,s6
   12d64:	00148993          	addi	s3,s1,1
   12d68:	00177713          	andi	a4,a4,1
   12d6c:	03612823          	sw	s6,48(sp)
   12d70:	02e12023          	sw	a4,32(sp)
   12d74:	000c0593          	mv	a1,s8
   12d78:	00090513          	mv	a0,s2
   12d7c:	d40ff0ef          	jal	122bc <quorem>
   12d80:	00050d93          	mv	s11,a0
   12d84:	000a8593          	mv	a1,s5
   12d88:	00090513          	mv	a0,s2
   12d8c:	035020ef          	jal	155c0 <__mcmp>
   12d90:	00050b13          	mv	s6,a0
   12d94:	000d0613          	mv	a2,s10
   12d98:	000c0593          	mv	a1,s8
   12d9c:	00040513          	mv	a0,s0
   12da0:	081020ef          	jal	15620 <__mdiff>
   12da4:	00c52683          	lw	a3,12(a0)
   12da8:	fff98713          	addi	a4,s3,-1
   12dac:	00e12c23          	sw	a4,24(sp)
   12db0:	00050793          	mv	a5,a0
   12db4:	030d8c93          	addi	s9,s11,48
   12db8:	00100713          	li	a4,1
   12dbc:	00069e63          	bnez	a3,12dd8 <_dtoa_r+0x934>
   12dc0:	00050593          	mv	a1,a0
   12dc4:	00090513          	mv	a0,s2
   12dc8:	00f12823          	sw	a5,16(sp)
   12dcc:	7f4020ef          	jal	155c0 <__mcmp>
   12dd0:	01012783          	lw	a5,16(sp)
   12dd4:	00050713          	mv	a4,a0
   12dd8:	00078593          	mv	a1,a5
   12ddc:	00040513          	mv	a0,s0
   12de0:	00e12623          	sw	a4,12(sp)
   12de4:	7cd010ef          	jal	14db0 <_Bfree>
   12de8:	00c12703          	lw	a4,12(sp)
   12dec:	014767b3          	or	a5,a4,s4
   12df0:	00079663          	bnez	a5,12dfc <_dtoa_r+0x958>
   12df4:	02012783          	lw	a5,32(sp)
   12df8:	26078663          	beqz	a5,13064 <_dtoa_r+0xbc0>
   12dfc:	280b4a63          	bltz	s6,13090 <_dtoa_r+0xbec>
   12e00:	014b6b33          	or	s6,s6,s4
   12e04:	000b1663          	bnez	s6,12e10 <_dtoa_r+0x96c>
   12e08:	02012783          	lw	a5,32(sp)
   12e0c:	28078263          	beqz	a5,13090 <_dtoa_r+0xbec>
   12e10:	5ae04e63          	bgtz	a4,133cc <_dtoa_r+0xf28>
   12e14:	03012703          	lw	a4,48(sp)
   12e18:	00098d93          	mv	s11,s3
   12e1c:	ff998fa3          	sb	s9,-1(s3)
   12e20:	5d370a63          	beq	a4,s3,133f4 <_dtoa_r+0xf50>
   12e24:	00090593          	mv	a1,s2
   12e28:	00000693          	li	a3,0
   12e2c:	00a00613          	li	a2,10
   12e30:	00040513          	mv	a0,s0
   12e34:	7a1010ef          	jal	14dd4 <__multadd>
   12e38:	00050913          	mv	s2,a0
   12e3c:	00000693          	li	a3,0
   12e40:	00a00613          	li	a2,10
   12e44:	000a8593          	mv	a1,s5
   12e48:	00040513          	mv	a0,s0
   12e4c:	2baa8263          	beq	s5,s10,130f0 <_dtoa_r+0xc4c>
   12e50:	785010ef          	jal	14dd4 <__multadd>
   12e54:	00050a93          	mv	s5,a0
   12e58:	000d0593          	mv	a1,s10
   12e5c:	00000693          	li	a3,0
   12e60:	00a00613          	li	a2,10
   12e64:	00040513          	mv	a0,s0
   12e68:	76d010ef          	jal	14dd4 <__multadd>
   12e6c:	00050d13          	mv	s10,a0
   12e70:	00198993          	addi	s3,s3,1
   12e74:	f01ff06f          	j	12d74 <_dtoa_r+0x8d0>
   12e78:	01c00513          	li	a0,28
   12e7c:	00ac8cb3          	add	s9,s9,a0
   12e80:	00ad8db3          	add	s11,s11,a0
   12e84:	00ad0d33          	add	s10,s10,a0
   12e88:	e6dff06f          	j	12cf4 <_dtoa_r+0x850>
   12e8c:	000c0593          	mv	a1,s8
   12e90:	00090513          	mv	a0,s2
   12e94:	72c020ef          	jal	155c0 <__mcmp>
   12e98:	e8055ae3          	bgez	a0,12d2c <_dtoa_r+0x888>
   12e9c:	00090593          	mv	a1,s2
   12ea0:	00000693          	li	a3,0
   12ea4:	00a00613          	li	a2,10
   12ea8:	00040513          	mv	a0,s0
   12eac:	729010ef          	jal	14dd4 <__multadd>
   12eb0:	02012703          	lw	a4,32(sp)
   12eb4:	00050913          	mv	s2,a0
   12eb8:	fffb8b93          	addi	s7,s7,-1
   12ebc:	60071063          	bnez	a4,134bc <_dtoa_r+0x1018>
   12ec0:	03c12703          	lw	a4,60(sp)
   12ec4:	00070b13          	mv	s6,a4
   12ec8:	00e04863          	bgtz	a4,12ed8 <_dtoa_r+0xa34>
   12ecc:	00200793          	li	a5,2
   12ed0:	6347c863          	blt	a5,s4,13500 <_dtoa_r+0x105c>
   12ed4:	03c12b03          	lw	s6,60(sp)
   12ed8:	00048993          	mv	s3,s1
   12edc:	00c0006f          	j	12ee8 <_dtoa_r+0xa44>
   12ee0:	6f5010ef          	jal	14dd4 <__multadd>
   12ee4:	00050913          	mv	s2,a0
   12ee8:	000c0593          	mv	a1,s8
   12eec:	00090513          	mv	a0,s2
   12ef0:	bccff0ef          	jal	122bc <quorem>
   12ef4:	00198993          	addi	s3,s3,1
   12ef8:	03050c93          	addi	s9,a0,48
   12efc:	409987b3          	sub	a5,s3,s1
   12f00:	00000693          	li	a3,0
   12f04:	00a00613          	li	a2,10
   12f08:	00090593          	mv	a1,s2
   12f0c:	00040513          	mv	a0,s0
   12f10:	ff998fa3          	sb	s9,-1(s3)
   12f14:	fd67c6e3          	blt	a5,s6,12ee0 <_dtoa_r+0xa3c>
   12f18:	4f605a63          	blez	s6,1340c <_dtoa_r+0xf68>
   12f1c:	01648db3          	add	s11,s1,s6
   12f20:	00000993          	li	s3,0
   12f24:	00090593          	mv	a1,s2
   12f28:	00100613          	li	a2,1
   12f2c:	00040513          	mv	a0,s0
   12f30:	540020ef          	jal	15470 <__lshift>
   12f34:	000c0593          	mv	a1,s8
   12f38:	02a12823          	sw	a0,48(sp)
   12f3c:	684020ef          	jal	155c0 <__mcmp>
   12f40:	30a05863          	blez	a0,13250 <_dtoa_r+0xdac>
   12f44:	fffdc703          	lbu	a4,-1(s11)
   12f48:	03900693          	li	a3,57
   12f4c:	0100006f          	j	12f5c <_dtoa_r+0xab8>
   12f50:	26978063          	beq	a5,s1,131b0 <_dtoa_r+0xd0c>
   12f54:	fff7c703          	lbu	a4,-1(a5)
   12f58:	00078d93          	mv	s11,a5
   12f5c:	fffd8793          	addi	a5,s11,-1
   12f60:	fed708e3          	beq	a4,a3,12f50 <_dtoa_r+0xaac>
   12f64:	00170713          	addi	a4,a4,1
   12f68:	00e78023          	sb	a4,0(a5)
   12f6c:	000c0593          	mv	a1,s8
   12f70:	00040513          	mv	a0,s0
   12f74:	63d010ef          	jal	14db0 <_Bfree>
   12f78:	a00a88e3          	beqz	s5,12988 <_dtoa_r+0x4e4>
   12f7c:	00098a63          	beqz	s3,12f90 <_dtoa_r+0xaec>
   12f80:	01598863          	beq	s3,s5,12f90 <_dtoa_r+0xaec>
   12f84:	00098593          	mv	a1,s3
   12f88:	00040513          	mv	a0,s0
   12f8c:	625010ef          	jal	14db0 <_Bfree>
   12f90:	000a8593          	mv	a1,s5
   12f94:	00040513          	mv	a0,s0
   12f98:	619010ef          	jal	14db0 <_Bfree>
   12f9c:	9edff06f          	j	12988 <_dtoa_r+0x4e4>
   12fa0:	000d0793          	mv	a5,s10
   12fa4:	bf1ff06f          	j	12b94 <_dtoa_r+0x6f0>
   12fa8:	01812603          	lw	a2,24(sp)
   12fac:	c8061ce3          	bnez	a2,12c44 <_dtoa_r+0x7a0>
   12fb0:	01c12783          	lw	a5,28(sp)
   12fb4:	02012823          	sw	zero,48(sp)
   12fb8:	00c79613          	slli	a2,a5,0xc
   12fbc:	02061263          	bnez	a2,12fe0 <_dtoa_r+0xb3c>
   12fc0:	01c12703          	lw	a4,28(sp)
   12fc4:	7ff007b7          	lui	a5,0x7ff00
   12fc8:	00e7f7b3          	and	a5,a5,a4
   12fcc:	00078a63          	beqz	a5,12fe0 <_dtoa_r+0xb3c>
   12fd0:	00100793          	li	a5,1
   12fd4:	001c8c93          	addi	s9,s9,1
   12fd8:	001d0d13          	addi	s10,s10,1
   12fdc:	02f12823          	sw	a5,48(sp)
   12fe0:	03812703          	lw	a4,56(sp)
   12fe4:	00100513          	li	a0,1
   12fe8:	cc070ee3          	beqz	a4,12cc4 <_dtoa_r+0x820>
   12fec:	c5dff06f          	j	12c48 <_dtoa_r+0x7a4>
   12ff0:	00100713          	li	a4,1
   12ff4:	02e12023          	sw	a4,32(sp)
   12ff8:	11305a63          	blez	s3,1310c <_dtoa_r+0xc68>
   12ffc:	00098613          	mv	a2,s3
   13000:	00098a93          	mv	s5,s3
   13004:	03312e23          	sw	s3,60(sp)
   13008:	00098b13          	mv	s6,s3
   1300c:	f98ff06f          	j	127a4 <_dtoa_r+0x300>
   13010:	a5604ce3          	bgtz	s6,12a68 <_dtoa_r+0x5c4>
   13014:	1e0b1e63          	bnez	s6,13210 <_dtoa_r+0xd6c>
   13018:	8581b007          	fld	ft0,-1960(gp) # 1c5e8 <__wctomb+0x40>
   1301c:	00000c13          	li	s8,0
   13020:	00000a93          	li	s5,0
   13024:	12047453          	fmul.d	fs0,fs0,ft0
   13028:	01813007          	fld	ft0,24(sp)
   1302c:	a28007d3          	fle.d	a5,ft0,fs0
   13030:	16078663          	beqz	a5,1319c <_dtoa_r+0xcf8>
   13034:	fff9cb93          	not	s7,s3
   13038:	00048d93          	mv	s11,s1
   1303c:	000c0593          	mv	a1,s8
   13040:	00040513          	mv	a0,s0
   13044:	56d010ef          	jal	14db0 <_Bfree>
   13048:	940a80e3          	beqz	s5,12988 <_dtoa_r+0x4e4>
   1304c:	f45ff06f          	j	12f90 <_dtoa_r+0xaec>
   13050:	3c090263          	beqz	s2,13414 <_dtoa_r+0xf70>
   13054:	43378793          	addi	a5,a5,1075 # 7ff00433 <_gp+0x7fee36a3>
   13058:	000c0713          	mv	a4,s8
   1305c:	000c8d93          	mv	s11,s9
   13060:	b05ff06f          	j	12b64 <_dtoa_r+0x6c0>
   13064:	03900793          	li	a5,57
   13068:	04fc8a63          	beq	s9,a5,130bc <_dtoa_r+0xc18>
   1306c:	01605463          	blez	s6,13074 <_dtoa_r+0xbd0>
   13070:	031d8c93          	addi	s9,s11,49
   13074:	01812703          	lw	a4,24(sp)
   13078:	000a8993          	mv	s3,s5
   1307c:	03212823          	sw	s2,48(sp)
   13080:	00170d93          	addi	s11,a4,1
   13084:	01970023          	sb	s9,0(a4)
   13088:	000d0a93          	mv	s5,s10
   1308c:	ee1ff06f          	j	12f6c <_dtoa_r+0xac8>
   13090:	fee052e3          	blez	a4,13074 <_dtoa_r+0xbd0>
   13094:	00090593          	mv	a1,s2
   13098:	00100613          	li	a2,1
   1309c:	00040513          	mv	a0,s0
   130a0:	3d0020ef          	jal	15470 <__lshift>
   130a4:	000c0593          	mv	a1,s8
   130a8:	00050913          	mv	s2,a0
   130ac:	514020ef          	jal	155c0 <__mcmp>
   130b0:	3ea05e63          	blez	a0,134ac <_dtoa_r+0x1008>
   130b4:	03900793          	li	a5,57
   130b8:	fafc9ce3          	bne	s9,a5,13070 <_dtoa_r+0xbcc>
   130bc:	01812783          	lw	a5,24(sp)
   130c0:	01812703          	lw	a4,24(sp)
   130c4:	000a8993          	mv	s3,s5
   130c8:	00178d93          	addi	s11,a5,1
   130cc:	03900793          	li	a5,57
   130d0:	00f70023          	sb	a5,0(a4)
   130d4:	000d0a93          	mv	s5,s10
   130d8:	03212823          	sw	s2,48(sp)
   130dc:	03900713          	li	a4,57
   130e0:	e69ff06f          	j	12f48 <_dtoa_r+0xaa4>
   130e4:	01812703          	lw	a4,24(sp)
   130e8:	bc071ce3          	bnez	a4,12cc0 <_dtoa_r+0x81c>
   130ec:	ec5ff06f          	j	12fb0 <_dtoa_r+0xb0c>
   130f0:	4e5010ef          	jal	14dd4 <__multadd>
   130f4:	00050a93          	mv	s5,a0
   130f8:	00050d13          	mv	s10,a0
   130fc:	00198993          	addi	s3,s3,1
   13100:	c75ff06f          	j	12d74 <_dtoa_r+0x8d0>
   13104:	00048513          	mv	a0,s1
   13108:	c84ff06f          	j	1258c <_dtoa_r+0xe8>
   1310c:	00100a93          	li	s5,1
   13110:	03512e23          	sw	s5,60(sp)
   13114:	000a8b13          	mv	s6,s5
   13118:	000a8993          	mv	s3,s5
   1311c:	04042223          	sw	zero,68(s0)
   13120:	00000593          	li	a1,0
   13124:	eb0ff06f          	j	127d4 <_dtoa_r+0x330>
   13128:	00200793          	li	a5,2
   1312c:	02012023          	sw	zero,32(sp)
   13130:	ecfa04e3          	beq	s4,a5,12ff8 <_dtoa_r+0xb54>
   13134:	04042223          	sw	zero,68(s0)
   13138:	00000593          	li	a1,0
   1313c:	00040513          	mv	a0,s0
   13140:	3cd010ef          	jal	14d0c <_Balloc>
   13144:	fff00b13          	li	s6,-1
   13148:	00100713          	li	a4,1
   1314c:	00050493          	mv	s1,a0
   13150:	04a42023          	sw	a0,64(s0)
   13154:	03612e23          	sw	s6,60(sp)
   13158:	00000993          	li	s3,0
   1315c:	02e12023          	sw	a4,32(sp)
   13160:	8e1ff06f          	j	12a40 <_dtoa_r+0x59c>
   13164:	00200793          	li	a5,2
   13168:	bd47d4e3          	ble	s4,a5,12d30 <_dtoa_r+0x88c>
   1316c:	300b1263          	bnez	s6,13470 <_dtoa_r+0xfcc>
   13170:	000c0593          	mv	a1,s8
   13174:	00000693          	li	a3,0
   13178:	00500613          	li	a2,5
   1317c:	00040513          	mv	a0,s0
   13180:	455010ef          	jal	14dd4 <__multadd>
   13184:	00050593          	mv	a1,a0
   13188:	00050c13          	mv	s8,a0
   1318c:	00090513          	mv	a0,s2
   13190:	430020ef          	jal	155c0 <__mcmp>
   13194:	03212823          	sw	s2,48(sp)
   13198:	e8a05ee3          	blez	a0,13034 <_dtoa_r+0xb90>
   1319c:	03100793          	li	a5,49
   131a0:	00148d93          	addi	s11,s1,1
   131a4:	00f48023          	sb	a5,0(s1)
   131a8:	001b8b93          	addi	s7,s7,1
   131ac:	e91ff06f          	j	1303c <_dtoa_r+0xb98>
   131b0:	03100793          	li	a5,49
   131b4:	001b8b93          	addi	s7,s7,1
   131b8:	00f48023          	sb	a5,0(s1)
   131bc:	db1ff06f          	j	12f6c <_dtoa_r+0xac8>
   131c0:	02012023          	sw	zero,32(sp)
   131c4:	dc8ff06f          	j	1278c <_dtoa_r+0x2e8>
   131c8:	8501b087          	fld	ft1,-1968(gp) # 1c5e0 <__wctomb+0x38>
   131cc:	d20d8053          	fcvt.d.w	ft0,s11
   131d0:	fcc006b7          	lui	a3,0xfcc00
   131d4:	0a0470c3          	fmadd.d	ft1,fs0,ft0,ft1
   131d8:	00113027          	fsd	ft1,0(sp)
   131dc:	00412783          	lw	a5,4(sp)
   131e0:	00012703          	lw	a4,0(sp)
   131e4:	00f687b3          	add	a5,a3,a5
   131e8:	00f12223          	sw	a5,4(sp)
   131ec:	8581b007          	fld	ft0,-1960(gp) # 1c5e8 <__wctomb+0x40>
   131f0:	00e12023          	sw	a4,0(sp)
   131f4:	00013087          	fld	ft1,0(sp)
   131f8:	0a047053          	fsub.d	ft0,fs0,ft0
   131fc:	a20097d3          	flt.d	a5,ft1,ft0
   13200:	1c079063          	bnez	a5,133c0 <_dtoa_r+0xf1c>
   13204:	221090d3          	fneg.d	ft1,ft1
   13208:	a21017d3          	flt.d	a5,ft0,ft1
   1320c:	82078ae3          	beqz	a5,12a40 <_dtoa_r+0x59c>
   13210:	00000c13          	li	s8,0
   13214:	00000a93          	li	s5,0
   13218:	e1dff06f          	j	13034 <_dtoa_r+0xb90>
   1321c:	00090593          	mv	a1,s2
   13220:	000c0613          	mv	a2,s8
   13224:	00040513          	mv	a0,s0
   13228:	110020ef          	jal	15338 <__pow5mult>
   1322c:	00050913          	mv	s2,a0
   13230:	9e1ff06f          	j	12c10 <_dtoa_r+0x76c>
   13234:	03812783          	lw	a5,56(sp)
   13238:	41870c33          	sub	s8,a4,s8
   1323c:	018787b3          	add	a5,a5,s8
   13240:	02f12c23          	sw	a5,56(sp)
   13244:	00070c13          	mv	s8,a4
   13248:	00000713          	li	a4,0
   1324c:	90dff06f          	j	12b58 <_dtoa_r+0x6b4>
   13250:	00051663          	bnez	a0,1325c <_dtoa_r+0xdb8>
   13254:	001cfc93          	andi	s9,s9,1
   13258:	ce0c96e3          	bnez	s9,12f44 <_dtoa_r+0xaa0>
   1325c:	03000693          	li	a3,48
   13260:	0080006f          	j	13268 <_dtoa_r+0xdc4>
   13264:	00070d93          	mv	s11,a4
   13268:	fffdc783          	lbu	a5,-1(s11)
   1326c:	fffd8713          	addi	a4,s11,-1
   13270:	fed78ae3          	beq	a5,a3,13264 <_dtoa_r+0xdc0>
   13274:	cf9ff06f          	j	12f6c <_dtoa_r+0xac8>
   13278:	03000793          	li	a5,48
   1327c:	00f48023          	sb	a5,0(s1)
   13280:	001b8b93          	addi	s7,s7,1
   13284:	fffdc783          	lbu	a5,-1(s11)
   13288:	8a9ff06f          	j	12b30 <_dtoa_r+0x68c>
   1328c:	417007b3          	neg	a5,s7
   13290:	01813407          	fld	fs0,24(sp)
   13294:	00200d93          	li	s11,2
   13298:	dc078c63          	beqz	a5,12870 <_dtoa_r+0x3cc>
   1329c:	00f7f713          	andi	a4,a5,15
   132a0:	00371693          	slli	a3,a4,0x3
   132a4:	0001a737          	lui	a4,0x1a
   132a8:	6c070713          	addi	a4,a4,1728 # 1a6c0 <__mprec_tens>
   132ac:	00e68733          	add	a4,a3,a4
   132b0:	00073007          	fld	ft0,0(a4)
   132b4:	4047d793          	srai	a5,a5,0x4
   132b8:	12047453          	fmul.d	fs0,fs0,ft0
   132bc:	da078a63          	beqz	a5,12870 <_dtoa_r+0x3cc>
   132c0:	0001a737          	lui	a4,0x1a
   132c4:	7b070713          	addi	a4,a4,1968 # 1a7b0 <__mprec_bigtens>
   132c8:	0017f693          	andi	a3,a5,1
   132cc:	4017d793          	srai	a5,a5,0x1
   132d0:	00068863          	beqz	a3,132e0 <_dtoa_r+0xe3c>
   132d4:	00073007          	fld	ft0,0(a4)
   132d8:	001d8d93          	addi	s11,s11,1
   132dc:	12047453          	fmul.d	fs0,fs0,ft0
   132e0:	00870713          	addi	a4,a4,8
   132e4:	fe0792e3          	bnez	a5,132c8 <_dtoa_r+0xe24>
   132e8:	d88ff06f          	j	12870 <_dtoa_r+0x3cc>
   132ec:	004aa583          	lw	a1,4(s5)
   132f0:	00040513          	mv	a0,s0
   132f4:	219010ef          	jal	14d0c <_Balloc>
   132f8:	010aa603          	lw	a2,16(s5)
   132fc:	00050993          	mv	s3,a0
   13300:	00ca8593          	addi	a1,s5,12
   13304:	00260613          	addi	a2,a2,2
   13308:	00261613          	slli	a2,a2,0x2
   1330c:	00c50513          	addi	a0,a0,12
   13310:	7f8010ef          	jal	14b08 <memcpy>
   13314:	00100613          	li	a2,1
   13318:	00098593          	mv	a1,s3
   1331c:	00040513          	mv	a0,s0
   13320:	150020ef          	jal	15470 <__lshift>
   13324:	00050d13          	mv	s10,a0
   13328:	a35ff06f          	j	12d5c <_dtoa_r+0x8b8>
   1332c:	fff68593          	addi	a1,a3,-1 # fcbfffff <_gp+0xfcbe326f>
   13330:	0001a637          	lui	a2,0x1a
   13334:	00359513          	slli	a0,a1,0x3
   13338:	6c060613          	addi	a2,a2,1728 # 1a6c0 <__mprec_tens>
   1333c:	00f12223          	sw	a5,4(sp)
   13340:	00c50633          	add	a2,a0,a2
   13344:	00e12023          	sw	a4,0(sp)
   13348:	00063187          	fld	ft3,0(a2)
   1334c:	00013107          	fld	ft2,0(sp)
   13350:	c2041653          	fcvt.w.d	a2,fs0,rtz
   13354:	d2060053          	fcvt.d.w	ft0,a2
   13358:	00100793          	li	a5,1
   1335c:	03060613          	addi	a2,a2,48
   13360:	1221f1d3          	fmul.d	ft3,ft3,ft2
   13364:	0a047053          	fsub.d	ft0,fs0,ft0
   13368:	00148d93          	addi	s11,s1,1
   1336c:	00c48023          	sb	a2,0(s1)
   13370:	02f68a63          	beq	a3,a5,133a4 <_dtoa_r+0xf00>
   13374:	8481b107          	fld	ft2,-1976(gp) # 1c5d8 <__wctomb+0x30>
   13378:	00d486b3          	add	a3,s1,a3
   1337c:	000d8713          	mv	a4,s11
   13380:	12207053          	fmul.d	ft0,ft0,ft2
   13384:	00170713          	addi	a4,a4,1
   13388:	c20017d3          	fcvt.w.d	a5,ft0,rtz
   1338c:	d20780d3          	fcvt.d.w	ft1,a5
   13390:	03078793          	addi	a5,a5,48
   13394:	0a107053          	fsub.d	ft0,ft0,ft1
   13398:	fef70fa3          	sb	a5,-1(a4)
   1339c:	fee692e3          	bne	a3,a4,13380 <_dtoa_r+0xedc>
   133a0:	00bd8db3          	add	s11,s11,a1
   133a4:	8601b087          	fld	ft1,-1952(gp) # 1c5f0 <__wctomb+0x48>
   133a8:	0211f153          	fadd.d	ft2,ft3,ft1
   133ac:	a20117d3          	flt.d	a5,ft2,ft0
   133b0:	0c078463          	beqz	a5,13478 <_dtoa_r+0xfd4>
   133b4:	fffdc783          	lbu	a5,-1(s11)
   133b8:	000a8b93          	mv	s7,s5
   133bc:	f58ff06f          	j	12b14 <_dtoa_r+0x670>
   133c0:	00000c13          	li	s8,0
   133c4:	00000a93          	li	s5,0
   133c8:	dd5ff06f          	j	1319c <_dtoa_r+0xcf8>
   133cc:	03900793          	li	a5,57
   133d0:	cefc86e3          	beq	s9,a5,130bc <_dtoa_r+0xc18>
   133d4:	01812783          	lw	a5,24(sp)
   133d8:	001c8c93          	addi	s9,s9,1
   133dc:	000a8993          	mv	s3,s5
   133e0:	00178d93          	addi	s11,a5,1
   133e4:	01978023          	sb	s9,0(a5)
   133e8:	000d0a93          	mv	s5,s10
   133ec:	03212823          	sw	s2,48(sp)
   133f0:	b7dff06f          	j	12f6c <_dtoa_r+0xac8>
   133f4:	000a8993          	mv	s3,s5
   133f8:	000d0a93          	mv	s5,s10
   133fc:	b29ff06f          	j	12f24 <_dtoa_r+0xa80>
   13400:	416c8db3          	sub	s11,s9,s6
   13404:	00000793          	li	a5,0
   13408:	f5cff06f          	j	12b64 <_dtoa_r+0x6c0>
   1340c:	00100b13          	li	s6,1
   13410:	b0dff06f          	j	12f1c <_dtoa_r+0xa78>
   13414:	04812683          	lw	a3,72(sp)
   13418:	03600793          	li	a5,54
   1341c:	000c0713          	mv	a4,s8
   13420:	40d787b3          	sub	a5,a5,a3
   13424:	000c8d93          	mv	s11,s9
   13428:	f3cff06f          	j	12b64 <_dtoa_r+0x6c0>
   1342c:	d80b0ee3          	beqz	s6,131c8 <_dtoa_r+0xd24>
   13430:	03c12783          	lw	a5,60(sp)
   13434:	e0f05663          	blez	a5,12a40 <_dtoa_r+0x59c>
   13438:	8481b007          	fld	ft0,-1976(gp) # 1c5d8 <__wctomb+0x30>
   1343c:	8501b087          	fld	ft1,-1968(gp) # 1c5e0 <__wctomb+0x38>
   13440:	12047453          	fmul.d	fs0,fs0,ft0
   13444:	001d8d93          	addi	s11,s11,1
   13448:	d20d8053          	fcvt.d.w	ft0,s11
   1344c:	fcc00637          	lui	a2,0xfcc00
   13450:	fffb8a93          	addi	s5,s7,-1
   13454:	03c12683          	lw	a3,60(sp)
   13458:	0a0470c3          	fmadd.d	ft1,fs0,ft0,ft1
   1345c:	00113027          	fsd	ft1,0(sp)
   13460:	00412783          	lw	a5,4(sp)
   13464:	00012703          	lw	a4,0(sp)
   13468:	00f607b3          	add	a5,a2,a5
   1346c:	c44ff06f          	j	128b0 <_dtoa_r+0x40c>
   13470:	03212823          	sw	s2,48(sp)
   13474:	bc1ff06f          	j	13034 <_dtoa_r+0xb90>
   13478:	0a30f1d3          	fsub.d	ft3,ft1,ft3
   1347c:	03000693          	li	a3,48
   13480:	a23017d3          	flt.d	a5,ft0,ft3
   13484:	00079663          	bnez	a5,13490 <_dtoa_r+0xfec>
   13488:	db8ff06f          	j	12a40 <_dtoa_r+0x59c>
   1348c:	00070d93          	mv	s11,a4
   13490:	fffdc783          	lbu	a5,-1(s11)
   13494:	fffd8713          	addi	a4,s11,-1
   13498:	fed78ae3          	beq	a5,a3,1348c <_dtoa_r+0xfe8>
   1349c:	000a8b93          	mv	s7,s5
   134a0:	ce8ff06f          	j	12988 <_dtoa_r+0x4e4>
   134a4:	000a8b93          	mv	s7,s5
   134a8:	e6cff06f          	j	12b14 <_dtoa_r+0x670>
   134ac:	bc0514e3          	bnez	a0,13074 <_dtoa_r+0xbd0>
   134b0:	001cf793          	andi	a5,s9,1
   134b4:	bc0780e3          	beqz	a5,13074 <_dtoa_r+0xbd0>
   134b8:	bfdff06f          	j	130b4 <_dtoa_r+0xc10>
   134bc:	000a8593          	mv	a1,s5
   134c0:	00000693          	li	a3,0
   134c4:	00a00613          	li	a2,10
   134c8:	00040513          	mv	a0,s0
   134cc:	109010ef          	jal	14dd4 <__multadd>
   134d0:	03c12783          	lw	a5,60(sp)
   134d4:	00050a93          	mv	s5,a0
   134d8:	00078b13          	mv	s6,a5
   134dc:	84f04ee3          	bgtz	a5,12d38 <_dtoa_r+0x894>
   134e0:	00200793          	li	a5,2
   134e4:	0147ce63          	blt	a5,s4,13500 <_dtoa_r+0x105c>
   134e8:	03c12b03          	lw	s6,60(sp)
   134ec:	84dff06f          	j	12d38 <_dtoa_r+0x894>
   134f0:	80e782e3          	beq	a5,a4,12cf4 <_dtoa_r+0x850>
   134f4:	03c00793          	li	a5,60
   134f8:	40a78533          	sub	a0,a5,a0
   134fc:	981ff06f          	j	12e7c <_dtoa_r+0x9d8>
   13500:	03c12b03          	lw	s6,60(sp)
   13504:	c69ff06f          	j	1316c <_dtoa_r+0xcc8>

00013508 <_fflush_r>:
   13508:	fe010113          	addi	sp,sp,-32
   1350c:	00812c23          	sw	s0,24(sp)
   13510:	01312623          	sw	s3,12(sp)
   13514:	00112e23          	sw	ra,28(sp)
   13518:	00912a23          	sw	s1,20(sp)
   1351c:	01212823          	sw	s2,16(sp)
   13520:	00050993          	mv	s3,a0
   13524:	00058413          	mv	s0,a1
   13528:	00050663          	beqz	a0,13534 <_fflush_r+0x2c>
   1352c:	03852783          	lw	a5,56(a0)
   13530:	18078863          	beqz	a5,136c0 <_fflush_r+0x1b8>
   13534:	00c41783          	lh	a5,12(s0)
   13538:	10078063          	beqz	a5,13638 <_fflush_r+0x130>
   1353c:	0087f713          	andi	a4,a5,8
   13540:	10071c63          	bnez	a4,13658 <_fflush_r+0x150>
   13544:	00001737          	lui	a4,0x1
   13548:	00442683          	lw	a3,4(s0)
   1354c:	80070713          	addi	a4,a4,-2048 # 800 <_ftext-0xf800>
   13550:	00e7e7b3          	or	a5,a5,a4
   13554:	00f41623          	sh	a5,12(s0)
   13558:	1ad05663          	blez	a3,13704 <_fflush_r+0x1fc>
   1355c:	02842803          	lw	a6,40(s0)
   13560:	0c080c63          	beqz	a6,13638 <_fflush_r+0x130>
   13564:	01079793          	slli	a5,a5,0x10
   13568:	0107d793          	srli	a5,a5,0x10
   1356c:	01379693          	slli	a3,a5,0x13
   13570:	0009a483          	lw	s1,0(s3)
   13574:	0009a023          	sw	zero,0(s3)
   13578:	1406dc63          	bgez	a3,136d0 <_fflush_r+0x1c8>
   1357c:	05042603          	lw	a2,80(s0)
   13580:	41f65693          	srai	a3,a2,0x1f
   13584:	0047f793          	andi	a5,a5,4
   13588:	04078263          	beqz	a5,135cc <_fflush_r+0xc4>
   1358c:	00442503          	lw	a0,4(s0)
   13590:	03042703          	lw	a4,48(s0)
   13594:	40a607b3          	sub	a5,a2,a0
   13598:	41f55513          	srai	a0,a0,0x1f
   1359c:	00f635b3          	sltu	a1,a2,a5
   135a0:	40a686b3          	sub	a3,a3,a0
   135a4:	00078613          	mv	a2,a5
   135a8:	40b686b3          	sub	a3,a3,a1
   135ac:	02070063          	beqz	a4,135cc <_fflush_r+0xc4>
   135b0:	03c42503          	lw	a0,60(s0)
   135b4:	40a787b3          	sub	a5,a5,a0
   135b8:	41f55513          	srai	a0,a0,0x1f
   135bc:	00f63733          	sltu	a4,a2,a5
   135c0:	40a686b3          	sub	a3,a3,a0
   135c4:	00078613          	mv	a2,a5
   135c8:	40e686b3          	sub	a3,a3,a4
   135cc:	01c42583          	lw	a1,28(s0)
   135d0:	00000713          	li	a4,0
   135d4:	00098513          	mv	a0,s3
   135d8:	000800e7          	jalr	a6
   135dc:	fff00793          	li	a5,-1
   135e0:	12f50863          	beq	a0,a5,13710 <_fflush_r+0x208>
   135e4:	00c45683          	lhu	a3,12(s0)
   135e8:	fffff7b7          	lui	a5,0xfffff
   135ec:	7ff78793          	addi	a5,a5,2047 # fffff7ff <_gp+0xfffe2a6f>
   135f0:	01042703          	lw	a4,16(s0)
   135f4:	00f6f7b3          	and	a5,a3,a5
   135f8:	01079793          	slli	a5,a5,0x10
   135fc:	4107d793          	srai	a5,a5,0x10
   13600:	00e42023          	sw	a4,0(s0)
   13604:	01379713          	slli	a4,a5,0x13
   13608:	00f41623          	sh	a5,12(s0)
   1360c:	00042223          	sw	zero,4(s0)
   13610:	00075463          	bgez	a4,13618 <_fflush_r+0x110>
   13614:	04a42823          	sw	a0,80(s0)
   13618:	03042583          	lw	a1,48(s0)
   1361c:	0099a023          	sw	s1,0(s3)
   13620:	00058c63          	beqz	a1,13638 <_fflush_r+0x130>
   13624:	04040793          	addi	a5,s0,64
   13628:	00f58663          	beq	a1,a5,13634 <_fflush_r+0x12c>
   1362c:	00098513          	mv	a0,s3
   13630:	608000ef          	jal	13c38 <_free_r>
   13634:	02042823          	sw	zero,48(s0)
   13638:	00000513          	li	a0,0
   1363c:	01c12083          	lw	ra,28(sp)
   13640:	01812403          	lw	s0,24(sp)
   13644:	01412483          	lw	s1,20(sp)
   13648:	01012903          	lw	s2,16(sp)
   1364c:	00c12983          	lw	s3,12(sp)
   13650:	02010113          	addi	sp,sp,32
   13654:	00008067          	ret
   13658:	01042903          	lw	s2,16(s0)
   1365c:	fc090ee3          	beqz	s2,13638 <_fflush_r+0x130>
   13660:	00042483          	lw	s1,0(s0)
   13664:	0037f793          	andi	a5,a5,3
   13668:	01242023          	sw	s2,0(s0)
   1366c:	412484b3          	sub	s1,s1,s2
   13670:	00000713          	li	a4,0
   13674:	04078a63          	beqz	a5,136c8 <_fflush_r+0x1c0>
   13678:	00e42423          	sw	a4,8(s0)
   1367c:	00904863          	bgtz	s1,1368c <_fflush_r+0x184>
   13680:	fb9ff06f          	j	13638 <_fflush_r+0x130>
   13684:	00a90933          	add	s2,s2,a0
   13688:	fa9058e3          	blez	s1,13638 <_fflush_r+0x130>
   1368c:	02442783          	lw	a5,36(s0)
   13690:	01c42583          	lw	a1,28(s0)
   13694:	00048693          	mv	a3,s1
   13698:	00090613          	mv	a2,s2
   1369c:	00098513          	mv	a0,s3
   136a0:	000780e7          	jalr	a5
   136a4:	40a484b3          	sub	s1,s1,a0
   136a8:	fca04ee3          	bgtz	a0,13684 <_fflush_r+0x17c>
   136ac:	00c45783          	lhu	a5,12(s0)
   136b0:	fff00513          	li	a0,-1
   136b4:	0407e793          	ori	a5,a5,64
   136b8:	00f41623          	sh	a5,12(s0)
   136bc:	f81ff06f          	j	1363c <_fflush_r+0x134>
   136c0:	438000ef          	jal	13af8 <__sinit>
   136c4:	e71ff06f          	j	13534 <_fflush_r+0x2c>
   136c8:	01442703          	lw	a4,20(s0)
   136cc:	fadff06f          	j	13678 <_fflush_r+0x170>
   136d0:	01c42583          	lw	a1,28(s0)
   136d4:	00000613          	li	a2,0
   136d8:	00000693          	li	a3,0
   136dc:	00100713          	li	a4,1
   136e0:	00098513          	mv	a0,s3
   136e4:	000800e7          	jalr	a6
   136e8:	fff00793          	li	a5,-1
   136ec:	00050613          	mv	a2,a0
   136f0:	00058693          	mv	a3,a1
   136f4:	06f50c63          	beq	a0,a5,1376c <_fflush_r+0x264>
   136f8:	00c45783          	lhu	a5,12(s0)
   136fc:	02842803          	lw	a6,40(s0)
   13700:	e85ff06f          	j	13584 <_fflush_r+0x7c>
   13704:	03c42703          	lw	a4,60(s0)
   13708:	e4e04ae3          	bgtz	a4,1355c <_fflush_r+0x54>
   1370c:	f2dff06f          	j	13638 <_fflush_r+0x130>
   13710:	eca59ae3          	bne	a1,a0,135e4 <_fflush_r+0xdc>
   13714:	0009a703          	lw	a4,0(s3)
   13718:	01d00793          	li	a5,29
   1371c:	f8e7e8e3          	bltu	a5,a4,136ac <_fflush_r+0x1a4>
   13720:	204007b7          	lui	a5,0x20400
   13724:	00178793          	addi	a5,a5,1 # 20400001 <_gp+0x203e3271>
   13728:	00e7d7b3          	srl	a5,a5,a4
   1372c:	0017f793          	andi	a5,a5,1
   13730:	f6078ee3          	beqz	a5,136ac <_fflush_r+0x1a4>
   13734:	00c45603          	lhu	a2,12(s0)
   13738:	fffff7b7          	lui	a5,0xfffff
   1373c:	7ff78793          	addi	a5,a5,2047 # fffff7ff <_gp+0xfffe2a6f>
   13740:	01042683          	lw	a3,16(s0)
   13744:	00f677b3          	and	a5,a2,a5
   13748:	01079793          	slli	a5,a5,0x10
   1374c:	4107d793          	srai	a5,a5,0x10
   13750:	00d42023          	sw	a3,0(s0)
   13754:	01379693          	slli	a3,a5,0x13
   13758:	00f41623          	sh	a5,12(s0)
   1375c:	00042223          	sw	zero,4(s0)
   13760:	ea06dce3          	bgez	a3,13618 <_fflush_r+0x110>
   13764:	ea071ae3          	bnez	a4,13618 <_fflush_r+0x110>
   13768:	eadff06f          	j	13614 <_fflush_r+0x10c>
   1376c:	f8a596e3          	bne	a1,a0,136f8 <_fflush_r+0x1f0>
   13770:	0009a783          	lw	a5,0(s3)
   13774:	f80782e3          	beqz	a5,136f8 <_fflush_r+0x1f0>
   13778:	01d00713          	li	a4,29
   1377c:	00e78663          	beq	a5,a4,13788 <_fflush_r+0x280>
   13780:	01600713          	li	a4,22
   13784:	00e79863          	bne	a5,a4,13794 <_fflush_r+0x28c>
   13788:	0099a023          	sw	s1,0(s3)
   1378c:	00000513          	li	a0,0
   13790:	eadff06f          	j	1363c <_fflush_r+0x134>
   13794:	00c45783          	lhu	a5,12(s0)
   13798:	00058513          	mv	a0,a1
   1379c:	0407e793          	ori	a5,a5,64
   137a0:	00f41623          	sh	a5,12(s0)
   137a4:	e99ff06f          	j	1363c <_fflush_r+0x134>

000137a8 <fflush>:
   137a8:	00050593          	mv	a1,a0
   137ac:	00050663          	beqz	a0,137b8 <fflush+0x10>
   137b0:	8081a503          	lw	a0,-2040(gp) # 1c598 <_impure_ptr>
   137b4:	d55ff06f          	j	13508 <_fflush_r>
   137b8:	8041a503          	lw	a0,-2044(gp) # 1c594 <_global_impure_ptr>
   137bc:	000135b7          	lui	a1,0x13
   137c0:	50858593          	addi	a1,a1,1288 # 13508 <_fflush_r>
   137c4:	7f40006f          	j	13fb8 <_fwalk_reent>

000137c8 <__fp_unlock>:
   137c8:	00000513          	li	a0,0
   137cc:	00008067          	ret

000137d0 <_cleanup_r>:
   137d0:	000175b7          	lui	a1,0x17
   137d4:	3f858593          	addi	a1,a1,1016 # 173f8 <fclose>
   137d8:	73c0006f          	j	13f14 <_fwalk>

000137dc <__sinit.part.1>:
   137dc:	fd010113          	addi	sp,sp,-48
   137e0:	000137b7          	lui	a5,0x13
   137e4:	02812423          	sw	s0,40(sp)
   137e8:	7d078793          	addi	a5,a5,2000 # 137d0 <_cleanup_r>
   137ec:	00452403          	lw	s0,4(a0)
   137f0:	02112623          	sw	ra,44(sp)
   137f4:	02912223          	sw	s1,36(sp)
   137f8:	03212023          	sw	s2,32(sp)
   137fc:	01312e23          	sw	s3,28(sp)
   13800:	01412c23          	sw	s4,24(sp)
   13804:	01512a23          	sw	s5,20(sp)
   13808:	01612823          	sw	s6,16(sp)
   1380c:	01712623          	sw	s7,12(sp)
   13810:	02f52e23          	sw	a5,60(a0)
   13814:	00300793          	li	a5,3
   13818:	2ef52223          	sw	a5,740(a0)
   1381c:	2ec50713          	addi	a4,a0,748
   13820:	00100b93          	li	s7,1
   13824:	00400793          	li	a5,4
   13828:	2ee52423          	sw	a4,744(a0)
   1382c:	03752c23          	sw	s7,56(a0)
   13830:	2e052023          	sw	zero,736(a0)
   13834:	00050913          	mv	s2,a0
   13838:	00f41623          	sh	a5,12(s0)
   1383c:	00800613          	li	a2,8
   13840:	00000593          	li	a1,0
   13844:	00042023          	sw	zero,0(s0)
   13848:	00042223          	sw	zero,4(s0)
   1384c:	00042423          	sw	zero,8(s0)
   13850:	06042223          	sw	zero,100(s0)
   13854:	00041723          	sh	zero,14(s0)
   13858:	00042823          	sw	zero,16(s0)
   1385c:	00042a23          	sw	zero,20(s0)
   13860:	00042c23          	sw	zero,24(s0)
   13864:	05c40513          	addi	a0,s0,92
   13868:	3c0010ef          	jal	14c28 <memset>
   1386c:	00892483          	lw	s1,8(s2)
   13870:	00016b37          	lui	s6,0x16
   13874:	00016ab7          	lui	s5,0x16
   13878:	00016a37          	lui	s4,0x16
   1387c:	000169b7          	lui	s3,0x16
   13880:	d7cb0b13          	addi	s6,s6,-644 # 15d7c <__sread>
   13884:	de8a8a93          	addi	s5,s5,-536 # 15de8 <__swrite>
   13888:	e60a0a13          	addi	s4,s4,-416 # 15e60 <__sseek>
   1388c:	ec898993          	addi	s3,s3,-312 # 15ec8 <__sclose>
   13890:	00900793          	li	a5,9
   13894:	03642023          	sw	s6,32(s0)
   13898:	03542223          	sw	s5,36(s0)
   1389c:	03442423          	sw	s4,40(s0)
   138a0:	03342623          	sw	s3,44(s0)
   138a4:	00842e23          	sw	s0,28(s0)
   138a8:	00800613          	li	a2,8
   138ac:	00f49623          	sh	a5,12(s1)
   138b0:	01749723          	sh	s7,14(s1)
   138b4:	00000593          	li	a1,0
   138b8:	0004a023          	sw	zero,0(s1)
   138bc:	0004a223          	sw	zero,4(s1)
   138c0:	0004a423          	sw	zero,8(s1)
   138c4:	0604a223          	sw	zero,100(s1)
   138c8:	0004a823          	sw	zero,16(s1)
   138cc:	0004aa23          	sw	zero,20(s1)
   138d0:	0004ac23          	sw	zero,24(s1)
   138d4:	05c48513          	addi	a0,s1,92
   138d8:	350010ef          	jal	14c28 <memset>
   138dc:	00c92403          	lw	s0,12(s2)
   138e0:	01200793          	li	a5,18
   138e4:	0364a023          	sw	s6,32(s1)
   138e8:	0354a223          	sw	s5,36(s1)
   138ec:	0344a423          	sw	s4,40(s1)
   138f0:	0334a623          	sw	s3,44(s1)
   138f4:	0094ae23          	sw	s1,28(s1)
   138f8:	00f41623          	sh	a5,12(s0)
   138fc:	00200793          	li	a5,2
   13900:	00042023          	sw	zero,0(s0)
   13904:	00042223          	sw	zero,4(s0)
   13908:	00042423          	sw	zero,8(s0)
   1390c:	06042223          	sw	zero,100(s0)
   13910:	00f41723          	sh	a5,14(s0)
   13914:	00042823          	sw	zero,16(s0)
   13918:	00042a23          	sw	zero,20(s0)
   1391c:	00042c23          	sw	zero,24(s0)
   13920:	05c40513          	addi	a0,s0,92
   13924:	00800613          	li	a2,8
   13928:	00000593          	li	a1,0
   1392c:	2fc010ef          	jal	14c28 <memset>
   13930:	02c12083          	lw	ra,44(sp)
   13934:	03642023          	sw	s6,32(s0)
   13938:	03542223          	sw	s5,36(s0)
   1393c:	03442423          	sw	s4,40(s0)
   13940:	03342623          	sw	s3,44(s0)
   13944:	00842e23          	sw	s0,28(s0)
   13948:	02412483          	lw	s1,36(sp)
   1394c:	02812403          	lw	s0,40(sp)
   13950:	02012903          	lw	s2,32(sp)
   13954:	01c12983          	lw	s3,28(sp)
   13958:	01812a03          	lw	s4,24(sp)
   1395c:	01412a83          	lw	s5,20(sp)
   13960:	01012b03          	lw	s6,16(sp)
   13964:	00c12b83          	lw	s7,12(sp)
   13968:	03010113          	addi	sp,sp,48
   1396c:	00008067          	ret

00013970 <__fp_lock>:
   13970:	00000513          	li	a0,0
   13974:	00008067          	ret

00013978 <__sfmoreglue>:
   13978:	ff010113          	addi	sp,sp,-16
   1397c:	00912223          	sw	s1,4(sp)
   13980:	06800493          	li	s1,104
   13984:	029584b3          	mul	s1,a1,s1
   13988:	01212023          	sw	s2,0(sp)
   1398c:	00058913          	mv	s2,a1
   13990:	00812423          	sw	s0,8(sp)
   13994:	00112623          	sw	ra,12(sp)
   13998:	00c48593          	addi	a1,s1,12
   1399c:	121000ef          	jal	142bc <_malloc_r>
   139a0:	00050413          	mv	s0,a0
   139a4:	02050063          	beqz	a0,139c4 <__sfmoreglue+0x4c>
   139a8:	00c50513          	addi	a0,a0,12
   139ac:	00042023          	sw	zero,0(s0)
   139b0:	01242223          	sw	s2,4(s0)
   139b4:	00a42423          	sw	a0,8(s0)
   139b8:	00048613          	mv	a2,s1
   139bc:	00000593          	li	a1,0
   139c0:	268010ef          	jal	14c28 <memset>
   139c4:	00c12083          	lw	ra,12(sp)
   139c8:	00040513          	mv	a0,s0
   139cc:	00412483          	lw	s1,4(sp)
   139d0:	00812403          	lw	s0,8(sp)
   139d4:	00012903          	lw	s2,0(sp)
   139d8:	01010113          	addi	sp,sp,16
   139dc:	00008067          	ret

000139e0 <__sfp>:
   139e0:	fe010113          	addi	sp,sp,-32
   139e4:	01212823          	sw	s2,16(sp)
   139e8:	8041a903          	lw	s2,-2044(gp) # 1c594 <_global_impure_ptr>
   139ec:	01312623          	sw	s3,12(sp)
   139f0:	00112e23          	sw	ra,28(sp)
   139f4:	03892783          	lw	a5,56(s2)
   139f8:	00812c23          	sw	s0,24(sp)
   139fc:	00912a23          	sw	s1,20(sp)
   13a00:	00050993          	mv	s3,a0
   13a04:	00079663          	bnez	a5,13a10 <__sfp+0x30>
   13a08:	00090513          	mv	a0,s2
   13a0c:	dd1ff0ef          	jal	137dc <__sinit.part.1>
   13a10:	2e090913          	addi	s2,s2,736
   13a14:	fff00493          	li	s1,-1
   13a18:	00492783          	lw	a5,4(s2)
   13a1c:	00892403          	lw	s0,8(s2)
   13a20:	fff78793          	addi	a5,a5,-1
   13a24:	0007da63          	bgez	a5,13a38 <__sfp+0x58>
   13a28:	0840006f          	j	13aac <__sfp+0xcc>
   13a2c:	fff78793          	addi	a5,a5,-1
   13a30:	06840413          	addi	s0,s0,104
   13a34:	06978c63          	beq	a5,s1,13aac <__sfp+0xcc>
   13a38:	00c41703          	lh	a4,12(s0)
   13a3c:	fe0718e3          	bnez	a4,13a2c <__sfp+0x4c>
   13a40:	fff00793          	li	a5,-1
   13a44:	00f41723          	sh	a5,14(s0)
   13a48:	00100793          	li	a5,1
   13a4c:	00f41623          	sh	a5,12(s0)
   13a50:	06042223          	sw	zero,100(s0)
   13a54:	00042023          	sw	zero,0(s0)
   13a58:	00042423          	sw	zero,8(s0)
   13a5c:	00042223          	sw	zero,4(s0)
   13a60:	00042823          	sw	zero,16(s0)
   13a64:	00042a23          	sw	zero,20(s0)
   13a68:	00042c23          	sw	zero,24(s0)
   13a6c:	00800613          	li	a2,8
   13a70:	00000593          	li	a1,0
   13a74:	05c40513          	addi	a0,s0,92
   13a78:	1b0010ef          	jal	14c28 <memset>
   13a7c:	02042823          	sw	zero,48(s0)
   13a80:	02042a23          	sw	zero,52(s0)
   13a84:	04042223          	sw	zero,68(s0)
   13a88:	04042423          	sw	zero,72(s0)
   13a8c:	00040513          	mv	a0,s0
   13a90:	01c12083          	lw	ra,28(sp)
   13a94:	01812403          	lw	s0,24(sp)
   13a98:	01412483          	lw	s1,20(sp)
   13a9c:	01012903          	lw	s2,16(sp)
   13aa0:	00c12983          	lw	s3,12(sp)
   13aa4:	02010113          	addi	sp,sp,32
   13aa8:	00008067          	ret
   13aac:	00092783          	lw	a5,0(s2)
   13ab0:	00078663          	beqz	a5,13abc <__sfp+0xdc>
   13ab4:	00078913          	mv	s2,a5
   13ab8:	f61ff06f          	j	13a18 <__sfp+0x38>
   13abc:	00400593          	li	a1,4
   13ac0:	00098513          	mv	a0,s3
   13ac4:	eb5ff0ef          	jal	13978 <__sfmoreglue>
   13ac8:	00a92023          	sw	a0,0(s2)
   13acc:	00050663          	beqz	a0,13ad8 <__sfp+0xf8>
   13ad0:	00050913          	mv	s2,a0
   13ad4:	f45ff06f          	j	13a18 <__sfp+0x38>
   13ad8:	00c00793          	li	a5,12
   13adc:	00f9a023          	sw	a5,0(s3)
   13ae0:	00000513          	li	a0,0
   13ae4:	fadff06f          	j	13a90 <__sfp+0xb0>

00013ae8 <_cleanup>:
   13ae8:	8041a503          	lw	a0,-2044(gp) # 1c594 <_global_impure_ptr>
   13aec:	000175b7          	lui	a1,0x17
   13af0:	3f858593          	addi	a1,a1,1016 # 173f8 <fclose>
   13af4:	4200006f          	j	13f14 <_fwalk>

00013af8 <__sinit>:
   13af8:	03852783          	lw	a5,56(a0)
   13afc:	00078463          	beqz	a5,13b04 <__sinit+0xc>
   13b00:	00008067          	ret
   13b04:	cd9ff06f          	j	137dc <__sinit.part.1>

00013b08 <__sfp_lock_acquire>:
   13b08:	00008067          	ret

00013b0c <__sfp_lock_release>:
   13b0c:	00008067          	ret

00013b10 <__sinit_lock_acquire>:
   13b10:	00008067          	ret

00013b14 <__sinit_lock_release>:
   13b14:	00008067          	ret

00013b18 <__fp_lock_all>:
   13b18:	8081a503          	lw	a0,-2040(gp) # 1c598 <_impure_ptr>
   13b1c:	000145b7          	lui	a1,0x14
   13b20:	97058593          	addi	a1,a1,-1680 # 13970 <__fp_lock>
   13b24:	3f00006f          	j	13f14 <_fwalk>

00013b28 <__fp_unlock_all>:
   13b28:	8081a503          	lw	a0,-2040(gp) # 1c598 <_impure_ptr>
   13b2c:	000135b7          	lui	a1,0x13
   13b30:	7c858593          	addi	a1,a1,1992 # 137c8 <__fp_unlock>
   13b34:	3e00006f          	j	13f14 <_fwalk>

00013b38 <_malloc_trim_r>:
   13b38:	fe010113          	addi	sp,sp,-32
   13b3c:	01212823          	sw	s2,16(sp)
   13b40:	0001c937          	lui	s2,0x1c
   13b44:	18890913          	addi	s2,s2,392 # 1c188 <__malloc_av_>
   13b48:	00812c23          	sw	s0,24(sp)
   13b4c:	00912a23          	sw	s1,20(sp)
   13b50:	00058413          	mv	s0,a1
   13b54:	01312623          	sw	s3,12(sp)
   13b58:	00112e23          	sw	ra,28(sp)
   13b5c:	00050993          	mv	s3,a0
   13b60:	1a4010ef          	jal	14d04 <__malloc_lock>
   13b64:	00892703          	lw	a4,8(s2)
   13b68:	000017b7          	lui	a5,0x1
   13b6c:	fef78593          	addi	a1,a5,-17 # fef <_ftext-0xf011>
   13b70:	00472483          	lw	s1,4(a4)
   13b74:	ffc4f493          	andi	s1,s1,-4
   13b78:	40848433          	sub	s0,s1,s0
   13b7c:	00b40433          	add	s0,s0,a1
   13b80:	00c45413          	srli	s0,s0,0xc
   13b84:	fff40413          	addi	s0,s0,-1
   13b88:	00c41413          	slli	s0,s0,0xc
   13b8c:	00f44c63          	blt	s0,a5,13ba4 <_malloc_trim_r+0x6c>
   13b90:	00000513          	li	a0,0
   13b94:	435040ef          	jal	187c8 <sbrk>
   13b98:	00892783          	lw	a5,8(s2)
   13b9c:	009787b3          	add	a5,a5,s1
   13ba0:	02f50663          	beq	a0,a5,13bcc <_malloc_trim_r+0x94>
   13ba4:	00098513          	mv	a0,s3
   13ba8:	160010ef          	jal	14d08 <__malloc_unlock>
   13bac:	00000513          	li	a0,0
   13bb0:	01c12083          	lw	ra,28(sp)
   13bb4:	01812403          	lw	s0,24(sp)
   13bb8:	01412483          	lw	s1,20(sp)
   13bbc:	01012903          	lw	s2,16(sp)
   13bc0:	00c12983          	lw	s3,12(sp)
   13bc4:	02010113          	addi	sp,sp,32
   13bc8:	00008067          	ret
   13bcc:	40800533          	neg	a0,s0
   13bd0:	3f9040ef          	jal	187c8 <sbrk>
   13bd4:	fff00793          	li	a5,-1
   13bd8:	02f50863          	beq	a0,a5,13c08 <_malloc_trim_r+0xd0>
   13bdc:	8b41a783          	lw	a5,-1868(gp) # 1c644 <__malloc_current_mallinfo>
   13be0:	00892683          	lw	a3,8(s2)
   13be4:	408484b3          	sub	s1,s1,s0
   13be8:	0014e493          	ori	s1,s1,1
   13bec:	40878433          	sub	s0,a5,s0
   13bf0:	00098513          	mv	a0,s3
   13bf4:	0096a223          	sw	s1,4(a3)
   13bf8:	8a81aa23          	sw	s0,-1868(gp) # 1c644 <__malloc_current_mallinfo>
   13bfc:	10c010ef          	jal	14d08 <__malloc_unlock>
   13c00:	00100513          	li	a0,1
   13c04:	fadff06f          	j	13bb0 <_malloc_trim_r+0x78>
   13c08:	00000513          	li	a0,0
   13c0c:	3bd040ef          	jal	187c8 <sbrk>
   13c10:	00892703          	lw	a4,8(s2)
   13c14:	00f00693          	li	a3,15
   13c18:	40e507b3          	sub	a5,a0,a4
   13c1c:	f8f6d4e3          	ble	a5,a3,13ba4 <_malloc_trim_r+0x6c>
   13c20:	8101a683          	lw	a3,-2032(gp) # 1c5a0 <__malloc_sbrk_base>
   13c24:	0017e793          	ori	a5,a5,1
   13c28:	00f72223          	sw	a5,4(a4)
   13c2c:	40d50533          	sub	a0,a0,a3
   13c30:	8aa1aa23          	sw	a0,-1868(gp) # 1c644 <__malloc_current_mallinfo>
   13c34:	f71ff06f          	j	13ba4 <_malloc_trim_r+0x6c>

00013c38 <_free_r>:
   13c38:	0e058e63          	beqz	a1,13d34 <_free_r+0xfc>
   13c3c:	ff010113          	addi	sp,sp,-16
   13c40:	00812423          	sw	s0,8(sp)
   13c44:	00058413          	mv	s0,a1
   13c48:	00912223          	sw	s1,4(sp)
   13c4c:	00112623          	sw	ra,12(sp)
   13c50:	00050493          	mv	s1,a0
   13c54:	0b0010ef          	jal	14d04 <__malloc_lock>
   13c58:	ffc42503          	lw	a0,-4(s0)
   13c5c:	ff840613          	addi	a2,s0,-8
   13c60:	0001c5b7          	lui	a1,0x1c
   13c64:	ffe57793          	andi	a5,a0,-2
   13c68:	00f606b3          	add	a3,a2,a5
   13c6c:	18858593          	addi	a1,a1,392 # 1c188 <__malloc_av_>
   13c70:	0046a703          	lw	a4,4(a3)
   13c74:	0085a803          	lw	a6,8(a1)
   13c78:	00157513          	andi	a0,a0,1
   13c7c:	ffc77713          	andi	a4,a4,-4
   13c80:	15068463          	beq	a3,a6,13dc8 <_free_r+0x190>
   13c84:	00e6a223          	sw	a4,4(a3)
   13c88:	02051663          	bnez	a0,13cb4 <_free_r+0x7c>
   13c8c:	ff842503          	lw	a0,-8(s0)
   13c90:	40a60633          	sub	a2,a2,a0
   13c94:	00862803          	lw	a6,8(a2) # fcc00008 <_gp+0xfcbe3278>
   13c98:	00a787b3          	add	a5,a5,a0
   13c9c:	0001c537          	lui	a0,0x1c
   13ca0:	19050513          	addi	a0,a0,400 # 1c190 <__malloc_av_+0x8>
   13ca4:	16a80663          	beq	a6,a0,13e10 <_free_r+0x1d8>
   13ca8:	00c62503          	lw	a0,12(a2)
   13cac:	00a82623          	sw	a0,12(a6)
   13cb0:	01052423          	sw	a6,8(a0)
   13cb4:	00e68533          	add	a0,a3,a4
   13cb8:	00452503          	lw	a0,4(a0)
   13cbc:	00157513          	andi	a0,a0,1
   13cc0:	0c050a63          	beqz	a0,13d94 <_free_r+0x15c>
   13cc4:	0017e693          	ori	a3,a5,1
   13cc8:	00f60733          	add	a4,a2,a5
   13ccc:	00d62223          	sw	a3,4(a2)
   13cd0:	00f72023          	sw	a5,0(a4)
   13cd4:	1ff00713          	li	a4,511
   13cd8:	06f76063          	bltu	a4,a5,13d38 <_free_r+0x100>
   13cdc:	0037d793          	srli	a5,a5,0x3
   13ce0:	00178713          	addi	a4,a5,1
   13ce4:	00371713          	slli	a4,a4,0x3
   13ce8:	0045a683          	lw	a3,4(a1)
   13cec:	00e58733          	add	a4,a1,a4
   13cf0:	00072803          	lw	a6,0(a4)
   13cf4:	4027d793          	srai	a5,a5,0x2
   13cf8:	00100513          	li	a0,1
   13cfc:	00f517b3          	sll	a5,a0,a5
   13d00:	00d7e7b3          	or	a5,a5,a3
   13d04:	ff870693          	addi	a3,a4,-8
   13d08:	00d62623          	sw	a3,12(a2)
   13d0c:	01062423          	sw	a6,8(a2)
   13d10:	00f5a223          	sw	a5,4(a1)
   13d14:	00c72023          	sw	a2,0(a4)
   13d18:	00c82623          	sw	a2,12(a6)
   13d1c:	00048513          	mv	a0,s1
   13d20:	00c12083          	lw	ra,12(sp)
   13d24:	00812403          	lw	s0,8(sp)
   13d28:	00412483          	lw	s1,4(sp)
   13d2c:	01010113          	addi	sp,sp,16
   13d30:	7d90006f          	j	14d08 <__malloc_unlock>
   13d34:	00008067          	ret
   13d38:	0097d713          	srli	a4,a5,0x9
   13d3c:	00400693          	li	a3,4
   13d40:	10e6e463          	bltu	a3,a4,13e48 <_free_r+0x210>
   13d44:	0067d713          	srli	a4,a5,0x6
   13d48:	03970513          	addi	a0,a4,57
   13d4c:	03870693          	addi	a3,a4,56
   13d50:	00151513          	slli	a0,a0,0x1
   13d54:	00251513          	slli	a0,a0,0x2
   13d58:	00a58533          	add	a0,a1,a0
   13d5c:	00052703          	lw	a4,0(a0)
   13d60:	ff850513          	addi	a0,a0,-8
   13d64:	0ee50e63          	beq	a0,a4,13e60 <_free_r+0x228>
   13d68:	00472683          	lw	a3,4(a4)
   13d6c:	ffc6f693          	andi	a3,a3,-4
   13d70:	00d7f663          	bleu	a3,a5,13d7c <_free_r+0x144>
   13d74:	00872703          	lw	a4,8(a4)
   13d78:	fee518e3          	bne	a0,a4,13d68 <_free_r+0x130>
   13d7c:	00c72503          	lw	a0,12(a4)
   13d80:	00a62623          	sw	a0,12(a2)
   13d84:	00e62423          	sw	a4,8(a2)
   13d88:	00c52423          	sw	a2,8(a0)
   13d8c:	00c72623          	sw	a2,12(a4)
   13d90:	f8dff06f          	j	13d1c <_free_r+0xe4>
   13d94:	0086a503          	lw	a0,8(a3)
   13d98:	00e787b3          	add	a5,a5,a4
   13d9c:	0001c737          	lui	a4,0x1c
   13da0:	19070713          	addi	a4,a4,400 # 1c190 <__malloc_av_+0x8>
   13da4:	0ce50e63          	beq	a0,a4,13e80 <_free_r+0x248>
   13da8:	00c6a803          	lw	a6,12(a3)
   13dac:	00f60733          	add	a4,a2,a5
   13db0:	0017e693          	ori	a3,a5,1
   13db4:	01052623          	sw	a6,12(a0)
   13db8:	00a82423          	sw	a0,8(a6)
   13dbc:	00d62223          	sw	a3,4(a2)
   13dc0:	00f72023          	sw	a5,0(a4)
   13dc4:	f11ff06f          	j	13cd4 <_free_r+0x9c>
   13dc8:	00e787b3          	add	a5,a5,a4
   13dcc:	02051063          	bnez	a0,13dec <_free_r+0x1b4>
   13dd0:	ff842503          	lw	a0,-8(s0)
   13dd4:	40a60633          	sub	a2,a2,a0
   13dd8:	00c62703          	lw	a4,12(a2)
   13ddc:	00862683          	lw	a3,8(a2)
   13de0:	00a787b3          	add	a5,a5,a0
   13de4:	00e6a623          	sw	a4,12(a3)
   13de8:	00d72423          	sw	a3,8(a4)
   13dec:	8141a703          	lw	a4,-2028(gp) # 1c5a4 <__malloc_trim_threshold>
   13df0:	0017e693          	ori	a3,a5,1
   13df4:	00d62223          	sw	a3,4(a2)
   13df8:	00c5a423          	sw	a2,8(a1)
   13dfc:	f2e7e0e3          	bltu	a5,a4,13d1c <_free_r+0xe4>
   13e00:	88c1a583          	lw	a1,-1908(gp) # 1c61c <__malloc_top_pad>
   13e04:	00048513          	mv	a0,s1
   13e08:	d31ff0ef          	jal	13b38 <_malloc_trim_r>
   13e0c:	f11ff06f          	j	13d1c <_free_r+0xe4>
   13e10:	00e685b3          	add	a1,a3,a4
   13e14:	0045a583          	lw	a1,4(a1)
   13e18:	0015f593          	andi	a1,a1,1
   13e1c:	0e059263          	bnez	a1,13f00 <_free_r+0x2c8>
   13e20:	0086a583          	lw	a1,8(a3)
   13e24:	00c6a683          	lw	a3,12(a3)
   13e28:	00f707b3          	add	a5,a4,a5
   13e2c:	0017e513          	ori	a0,a5,1
   13e30:	00f60733          	add	a4,a2,a5
   13e34:	00d5a623          	sw	a3,12(a1)
   13e38:	00b6a423          	sw	a1,8(a3)
   13e3c:	00a62223          	sw	a0,4(a2)
   13e40:	00f72023          	sw	a5,0(a4)
   13e44:	ed9ff06f          	j	13d1c <_free_r+0xe4>
   13e48:	01400693          	li	a3,20
   13e4c:	04e6ec63          	bltu	a3,a4,13ea4 <_free_r+0x26c>
   13e50:	05c70513          	addi	a0,a4,92
   13e54:	05b70693          	addi	a3,a4,91
   13e58:	00151513          	slli	a0,a0,0x1
   13e5c:	ef9ff06f          	j	13d54 <_free_r+0x11c>
   13e60:	0045a783          	lw	a5,4(a1)
   13e64:	4026d713          	srai	a4,a3,0x2
   13e68:	00100693          	li	a3,1
   13e6c:	00e69733          	sll	a4,a3,a4
   13e70:	00f76733          	or	a4,a4,a5
   13e74:	00e5a223          	sw	a4,4(a1)
   13e78:	00050713          	mv	a4,a0
   13e7c:	f05ff06f          	j	13d80 <_free_r+0x148>
   13e80:	0017e693          	ori	a3,a5,1
   13e84:	00f60733          	add	a4,a2,a5
   13e88:	00c5aa23          	sw	a2,20(a1)
   13e8c:	00c5a823          	sw	a2,16(a1)
   13e90:	00a62623          	sw	a0,12(a2)
   13e94:	00a62423          	sw	a0,8(a2)
   13e98:	00d62223          	sw	a3,4(a2)
   13e9c:	00f72023          	sw	a5,0(a4)
   13ea0:	e7dff06f          	j	13d1c <_free_r+0xe4>
   13ea4:	05400693          	li	a3,84
   13ea8:	00e6ec63          	bltu	a3,a4,13ec0 <_free_r+0x288>
   13eac:	00c7d713          	srli	a4,a5,0xc
   13eb0:	06f70513          	addi	a0,a4,111
   13eb4:	06e70693          	addi	a3,a4,110
   13eb8:	00151513          	slli	a0,a0,0x1
   13ebc:	e99ff06f          	j	13d54 <_free_r+0x11c>
   13ec0:	15400693          	li	a3,340
   13ec4:	00e6ec63          	bltu	a3,a4,13edc <_free_r+0x2a4>
   13ec8:	00f7d713          	srli	a4,a5,0xf
   13ecc:	07870513          	addi	a0,a4,120
   13ed0:	07770693          	addi	a3,a4,119
   13ed4:	00151513          	slli	a0,a0,0x1
   13ed8:	e7dff06f          	j	13d54 <_free_r+0x11c>
   13edc:	55400813          	li	a6,1364
   13ee0:	0fe00513          	li	a0,254
   13ee4:	07e00693          	li	a3,126
   13ee8:	e6e866e3          	bltu	a6,a4,13d54 <_free_r+0x11c>
   13eec:	0127d713          	srli	a4,a5,0x12
   13ef0:	07d70513          	addi	a0,a4,125
   13ef4:	07c70693          	addi	a3,a4,124
   13ef8:	00151513          	slli	a0,a0,0x1
   13efc:	e59ff06f          	j	13d54 <_free_r+0x11c>
   13f00:	0017e693          	ori	a3,a5,1
   13f04:	00f60733          	add	a4,a2,a5
   13f08:	00d62223          	sw	a3,4(a2)
   13f0c:	00f72023          	sw	a5,0(a4)
   13f10:	e0dff06f          	j	13d1c <_free_r+0xe4>

00013f14 <_fwalk>:
   13f14:	fe010113          	addi	sp,sp,-32
   13f18:	01312623          	sw	s3,12(sp)
   13f1c:	2e050993          	addi	s3,a0,736
   13f20:	01412423          	sw	s4,8(sp)
   13f24:	01512223          	sw	s5,4(sp)
   13f28:	00112e23          	sw	ra,28(sp)
   13f2c:	00812c23          	sw	s0,24(sp)
   13f30:	00912a23          	sw	s1,20(sp)
   13f34:	01212823          	sw	s2,16(sp)
   13f38:	00058a93          	mv	s5,a1
   13f3c:	00000a13          	li	s4,0
   13f40:	bc9ff0ef          	jal	13b08 <__sfp_lock_acquire>
   13f44:	04098463          	beqz	s3,13f8c <_fwalk+0x78>
   13f48:	fff00913          	li	s2,-1
   13f4c:	0049a483          	lw	s1,4(s3)
   13f50:	0089a403          	lw	s0,8(s3)
   13f54:	fff48493          	addi	s1,s1,-1
   13f58:	0204c663          	bltz	s1,13f84 <_fwalk+0x70>
   13f5c:	00c41783          	lh	a5,12(s0)
   13f60:	fff48493          	addi	s1,s1,-1
   13f64:	00078c63          	beqz	a5,13f7c <_fwalk+0x68>
   13f68:	00e41783          	lh	a5,14(s0)
   13f6c:	00040513          	mv	a0,s0
   13f70:	01278663          	beq	a5,s2,13f7c <_fwalk+0x68>
   13f74:	000a80e7          	jalr	s5
   13f78:	00aa6a33          	or	s4,s4,a0
   13f7c:	06840413          	addi	s0,s0,104
   13f80:	fd249ee3          	bne	s1,s2,13f5c <_fwalk+0x48>
   13f84:	0009a983          	lw	s3,0(s3)
   13f88:	fc0992e3          	bnez	s3,13f4c <_fwalk+0x38>
   13f8c:	b81ff0ef          	jal	13b0c <__sfp_lock_release>
   13f90:	01c12083          	lw	ra,28(sp)
   13f94:	000a0513          	mv	a0,s4
   13f98:	01812403          	lw	s0,24(sp)
   13f9c:	01412483          	lw	s1,20(sp)
   13fa0:	01012903          	lw	s2,16(sp)
   13fa4:	00c12983          	lw	s3,12(sp)
   13fa8:	00812a03          	lw	s4,8(sp)
   13fac:	00412a83          	lw	s5,4(sp)
   13fb0:	02010113          	addi	sp,sp,32
   13fb4:	00008067          	ret

00013fb8 <_fwalk_reent>:
   13fb8:	fe010113          	addi	sp,sp,-32
   13fbc:	01312623          	sw	s3,12(sp)
   13fc0:	2e050993          	addi	s3,a0,736
   13fc4:	01412423          	sw	s4,8(sp)
   13fc8:	01512223          	sw	s5,4(sp)
   13fcc:	01612023          	sw	s6,0(sp)
   13fd0:	00112e23          	sw	ra,28(sp)
   13fd4:	00812c23          	sw	s0,24(sp)
   13fd8:	00912a23          	sw	s1,20(sp)
   13fdc:	01212823          	sw	s2,16(sp)
   13fe0:	00050a93          	mv	s5,a0
   13fe4:	00058b13          	mv	s6,a1
   13fe8:	00000a13          	li	s4,0
   13fec:	b1dff0ef          	jal	13b08 <__sfp_lock_acquire>
   13ff0:	04098663          	beqz	s3,1403c <_fwalk_reent+0x84>
   13ff4:	fff00913          	li	s2,-1
   13ff8:	0049a483          	lw	s1,4(s3)
   13ffc:	0089a403          	lw	s0,8(s3)
   14000:	fff48493          	addi	s1,s1,-1
   14004:	0204c863          	bltz	s1,14034 <_fwalk_reent+0x7c>
   14008:	00c41783          	lh	a5,12(s0)
   1400c:	fff48493          	addi	s1,s1,-1
   14010:	00078e63          	beqz	a5,1402c <_fwalk_reent+0x74>
   14014:	00e41783          	lh	a5,14(s0)
   14018:	00040593          	mv	a1,s0
   1401c:	000a8513          	mv	a0,s5
   14020:	01278663          	beq	a5,s2,1402c <_fwalk_reent+0x74>
   14024:	000b00e7          	jalr	s6
   14028:	00aa6a33          	or	s4,s4,a0
   1402c:	06840413          	addi	s0,s0,104
   14030:	fd249ce3          	bne	s1,s2,14008 <_fwalk_reent+0x50>
   14034:	0009a983          	lw	s3,0(s3)
   14038:	fc0990e3          	bnez	s3,13ff8 <_fwalk_reent+0x40>
   1403c:	ad1ff0ef          	jal	13b0c <__sfp_lock_release>
   14040:	01c12083          	lw	ra,28(sp)
   14044:	000a0513          	mv	a0,s4
   14048:	01812403          	lw	s0,24(sp)
   1404c:	01412483          	lw	s1,20(sp)
   14050:	01012903          	lw	s2,16(sp)
   14054:	00c12983          	lw	s3,12(sp)
   14058:	00812a03          	lw	s4,8(sp)
   1405c:	00412a83          	lw	s5,4(sp)
   14060:	00012b03          	lw	s6,0(sp)
   14064:	02010113          	addi	sp,sp,32
   14068:	00008067          	ret

0001406c <_setlocale_r>:
   1406c:	ff010113          	addi	sp,sp,-16
   14070:	00912223          	sw	s1,4(sp)
   14074:	00112623          	sw	ra,12(sp)
   14078:	00812423          	sw	s0,8(sp)
   1407c:	0001b4b7          	lui	s1,0x1b
   14080:	02060063          	beqz	a2,140a0 <_setlocale_r+0x34>
   14084:	0001b5b7          	lui	a1,0x1b
   14088:	ae058593          	addi	a1,a1,-1312 # 1aae0 <__clz_tab+0x158>
   1408c:	00060513          	mv	a0,a2
   14090:	00060413          	mv	s0,a2
   14094:	63d010ef          	jal	15ed0 <strcmp>
   14098:	0001b4b7          	lui	s1,0x1b
   1409c:	00051e63          	bnez	a0,140b8 <_setlocale_r+0x4c>
   140a0:	a8848513          	addi	a0,s1,-1400 # 1aa88 <__clz_tab+0x100>
   140a4:	00c12083          	lw	ra,12(sp)
   140a8:	00812403          	lw	s0,8(sp)
   140ac:	00412483          	lw	s1,4(sp)
   140b0:	01010113          	addi	sp,sp,16
   140b4:	00008067          	ret
   140b8:	a8848593          	addi	a1,s1,-1400
   140bc:	00040513          	mv	a0,s0
   140c0:	611010ef          	jal	15ed0 <strcmp>
   140c4:	fc050ee3          	beqz	a0,140a0 <_setlocale_r+0x34>
   140c8:	0001b5b7          	lui	a1,0x1b
   140cc:	aac58593          	addi	a1,a1,-1364 # 1aaac <__clz_tab+0x124>
   140d0:	00040513          	mv	a0,s0
   140d4:	5fd010ef          	jal	15ed0 <strcmp>
   140d8:	fc0504e3          	beqz	a0,140a0 <_setlocale_r+0x34>
   140dc:	00000513          	li	a0,0
   140e0:	fc5ff06f          	j	140a4 <_setlocale_r+0x38>

000140e4 <__locale_charset>:
   140e4:	0001c537          	lui	a0,0x1c
   140e8:	14850513          	addi	a0,a0,328 # 1c148 <lc_ctype_charset>
   140ec:	00008067          	ret

000140f0 <__locale_msgcharset>:
   140f0:	0001c537          	lui	a0,0x1c
   140f4:	16850513          	addi	a0,a0,360 # 1c168 <lc_message_charset>
   140f8:	00008067          	ret

000140fc <__locale_cjk_lang>:
   140fc:	00000513          	li	a0,0
   14100:	00008067          	ret

00014104 <_localeconv_r>:
   14104:	0001a537          	lui	a0,0x1a
   14108:	67450513          	addi	a0,a0,1652 # 1a674 <lconv>
   1410c:	00008067          	ret

00014110 <setlocale>:
   14110:	00058613          	mv	a2,a1
   14114:	00050593          	mv	a1,a0
   14118:	8081a503          	lw	a0,-2040(gp) # 1c598 <_impure_ptr>
   1411c:	f51ff06f          	j	1406c <_setlocale_r>

00014120 <localeconv>:
   14120:	0001a537          	lui	a0,0x1a
   14124:	67450513          	addi	a0,a0,1652 # 1a674 <lconv>
   14128:	00008067          	ret

0001412c <__smakebuf_r>:
   1412c:	00c59783          	lh	a5,12(a1)
   14130:	f6010113          	addi	sp,sp,-160
   14134:	08912a23          	sw	s1,148(sp)
   14138:	01079493          	slli	s1,a5,0x10
   1413c:	0104d493          	srli	s1,s1,0x10
   14140:	0024f713          	andi	a4,s1,2
   14144:	08112e23          	sw	ra,156(sp)
   14148:	08812c23          	sw	s0,152(sp)
   1414c:	09212823          	sw	s2,144(sp)
   14150:	09312623          	sw	s3,140(sp)
   14154:	0e071063          	bnez	a4,14234 <__smakebuf_r+0x108>
   14158:	00050913          	mv	s2,a0
   1415c:	00e59503          	lh	a0,14(a1)
   14160:	00058413          	mv	s0,a1
   14164:	04054c63          	bltz	a0,141bc <__smakebuf_r+0x90>
   14168:	00010593          	mv	a1,sp
   1416c:	3a8040ef          	jal	18514 <fstat>
   14170:	04054063          	bltz	a0,141b0 <__smakebuf_r+0x84>
   14174:	01012703          	lw	a4,16(sp)
   14178:	0000f7b7          	lui	a5,0xf
   1417c:	ffffe9b7          	lui	s3,0xffffe
   14180:	00f777b3          	and	a5,a4,a5
   14184:	013789b3          	add	s3,a5,s3
   14188:	00008737          	lui	a4,0x8
   1418c:	0019b993          	seqz	s3,s3
   14190:	0ae78e63          	beq	a5,a4,1424c <__smakebuf_r+0x120>
   14194:	00c45703          	lhu	a4,12(s0)
   14198:	000017b7          	lui	a5,0x1
   1419c:	80078793          	addi	a5,a5,-2048 # 800 <_ftext-0xf800>
   141a0:	00f767b3          	or	a5,a4,a5
   141a4:	00f41623          	sh	a5,12(s0)
   141a8:	40000493          	li	s1,1024
   141ac:	0340006f          	j	141e0 <__smakebuf_r+0xb4>
   141b0:	00c41783          	lh	a5,12(s0)
   141b4:	01079493          	slli	s1,a5,0x10
   141b8:	0104d493          	srli	s1,s1,0x10
   141bc:	01849493          	slli	s1,s1,0x18
   141c0:	00001737          	lui	a4,0x1
   141c4:	41f4d493          	srai	s1,s1,0x1f
   141c8:	80070713          	addi	a4,a4,-2048 # 800 <_ftext-0xf800>
   141cc:	c404f493          	andi	s1,s1,-960
   141d0:	00e7e7b3          	or	a5,a5,a4
   141d4:	40048493          	addi	s1,s1,1024
   141d8:	00f41623          	sh	a5,12(s0)
   141dc:	00000993          	li	s3,0
   141e0:	00048593          	mv	a1,s1
   141e4:	00090513          	mv	a0,s2
   141e8:	0d4000ef          	jal	142bc <_malloc_r>
   141ec:	0a050263          	beqz	a0,14290 <__smakebuf_r+0x164>
   141f0:	00c45783          	lhu	a5,12(s0)
   141f4:	00013737          	lui	a4,0x13
   141f8:	7d070713          	addi	a4,a4,2000 # 137d0 <_cleanup_r>
   141fc:	0807e793          	ori	a5,a5,128
   14200:	02e92e23          	sw	a4,60(s2)
   14204:	00f41623          	sh	a5,12(s0)
   14208:	00a42023          	sw	a0,0(s0)
   1420c:	00a42823          	sw	a0,16(s0)
   14210:	00942a23          	sw	s1,20(s0)
   14214:	06099063          	bnez	s3,14274 <__smakebuf_r+0x148>
   14218:	09c12083          	lw	ra,156(sp)
   1421c:	09812403          	lw	s0,152(sp)
   14220:	09412483          	lw	s1,148(sp)
   14224:	09012903          	lw	s2,144(sp)
   14228:	08c12983          	lw	s3,140(sp)
   1422c:	0a010113          	addi	sp,sp,160
   14230:	00008067          	ret
   14234:	04358793          	addi	a5,a1,67
   14238:	00f5a023          	sw	a5,0(a1)
   1423c:	00f5a823          	sw	a5,16(a1)
   14240:	00100793          	li	a5,1
   14244:	00f5aa23          	sw	a5,20(a1)
   14248:	fd1ff06f          	j	14218 <__smakebuf_r+0xec>
   1424c:	02842703          	lw	a4,40(s0)
   14250:	000167b7          	lui	a5,0x16
   14254:	e6078793          	addi	a5,a5,-416 # 15e60 <__sseek>
   14258:	f2f71ee3          	bne	a4,a5,14194 <__smakebuf_r+0x68>
   1425c:	00c45783          	lhu	a5,12(s0)
   14260:	40000493          	li	s1,1024
   14264:	04942623          	sw	s1,76(s0)
   14268:	0097e7b3          	or	a5,a5,s1
   1426c:	00f41623          	sh	a5,12(s0)
   14270:	f71ff06f          	j	141e0 <__smakebuf_r+0xb4>
   14274:	00e41503          	lh	a0,14(s0)
   14278:	404040ef          	jal	1867c <isatty>
   1427c:	f8050ee3          	beqz	a0,14218 <__smakebuf_r+0xec>
   14280:	00c45783          	lhu	a5,12(s0)
   14284:	0017e793          	ori	a5,a5,1
   14288:	00f41623          	sh	a5,12(s0)
   1428c:	f8dff06f          	j	14218 <__smakebuf_r+0xec>
   14290:	00c41783          	lh	a5,12(s0)
   14294:	2007f713          	andi	a4,a5,512
   14298:	f80710e3          	bnez	a4,14218 <__smakebuf_r+0xec>
   1429c:	0027e793          	ori	a5,a5,2
   142a0:	04340713          	addi	a4,s0,67
   142a4:	00f41623          	sh	a5,12(s0)
   142a8:	00100793          	li	a5,1
   142ac:	00e42023          	sw	a4,0(s0)
   142b0:	00e42823          	sw	a4,16(s0)
   142b4:	00f42a23          	sw	a5,20(s0)
   142b8:	f61ff06f          	j	14218 <__smakebuf_r+0xec>

000142bc <_malloc_r>:
   142bc:	fd010113          	addi	sp,sp,-48
   142c0:	02912223          	sw	s1,36(sp)
   142c4:	01600793          	li	a5,22
   142c8:	00b58493          	addi	s1,a1,11
   142cc:	01312e23          	sw	s3,28(sp)
   142d0:	02112623          	sw	ra,44(sp)
   142d4:	02812423          	sw	s0,40(sp)
   142d8:	03212023          	sw	s2,32(sp)
   142dc:	01412c23          	sw	s4,24(sp)
   142e0:	01512a23          	sw	s5,20(sp)
   142e4:	01612823          	sw	s6,16(sp)
   142e8:	01712623          	sw	s7,12(sp)
   142ec:	01812423          	sw	s8,8(sp)
   142f0:	01912223          	sw	s9,4(sp)
   142f4:	00050993          	mv	s3,a0
   142f8:	1a97fc63          	bleu	s1,a5,144b0 <_malloc_r+0x1f4>
   142fc:	ff84f493          	andi	s1,s1,-8
   14300:	2404c463          	bltz	s1,14548 <_malloc_r+0x28c>
   14304:	24b4e263          	bltu	s1,a1,14548 <_malloc_r+0x28c>
   14308:	1fd000ef          	jal	14d04 <__malloc_lock>
   1430c:	1f700793          	li	a5,503
   14310:	7097fa63          	bleu	s1,a5,14a24 <_malloc_r+0x768>
   14314:	0094d793          	srli	a5,s1,0x9
   14318:	08000693          	li	a3,128
   1431c:	04000513          	li	a0,64
   14320:	03f00593          	li	a1,63
   14324:	22079a63          	bnez	a5,14558 <_malloc_r+0x29c>
   14328:	0001c937          	lui	s2,0x1c
   1432c:	18890913          	addi	s2,s2,392 # 1c188 <__malloc_av_>
   14330:	00269693          	slli	a3,a3,0x2
   14334:	00d906b3          	add	a3,s2,a3
   14338:	0046a403          	lw	s0,4(a3)
   1433c:	ff868693          	addi	a3,a3,-8
   14340:	22868a63          	beq	a3,s0,14574 <_malloc_r+0x2b8>
   14344:	00442783          	lw	a5,4(s0)
   14348:	00f00613          	li	a2,15
   1434c:	ffc7f793          	andi	a5,a5,-4
   14350:	40978733          	sub	a4,a5,s1
   14354:	02e64063          	blt	a2,a4,14374 <_malloc_r+0xb8>
   14358:	22075263          	bgez	a4,1457c <_malloc_r+0x2c0>
   1435c:	00c42403          	lw	s0,12(s0)
   14360:	20868a63          	beq	a3,s0,14574 <_malloc_r+0x2b8>
   14364:	00442783          	lw	a5,4(s0)
   14368:	ffc7f793          	andi	a5,a5,-4
   1436c:	40978733          	sub	a4,a5,s1
   14370:	fee654e3          	ble	a4,a2,14358 <_malloc_r+0x9c>
   14374:	00058693          	mv	a3,a1
   14378:	01092403          	lw	s0,16(s2)
   1437c:	00890813          	addi	a6,s2,8
   14380:	4b040263          	beq	s0,a6,14824 <_malloc_r+0x568>
   14384:	00442783          	lw	a5,4(s0)
   14388:	00f00613          	li	a2,15
   1438c:	ffc7f793          	andi	a5,a5,-4
   14390:	40978733          	sub	a4,a5,s1
   14394:	44e64a63          	blt	a2,a4,147e8 <_malloc_r+0x52c>
   14398:	01092a23          	sw	a6,20(s2)
   1439c:	01092823          	sw	a6,16(s2)
   143a0:	20075663          	bgez	a4,145ac <_malloc_r+0x2f0>
   143a4:	1ff00713          	li	a4,511
   143a8:	3cf76e63          	bltu	a4,a5,14784 <_malloc_r+0x4c8>
   143ac:	0037d793          	srli	a5,a5,0x3
   143b0:	00178613          	addi	a2,a5,1
   143b4:	00361613          	slli	a2,a2,0x3
   143b8:	00492703          	lw	a4,4(s2)
   143bc:	00c90633          	add	a2,s2,a2
   143c0:	00062503          	lw	a0,0(a2)
   143c4:	4027d793          	srai	a5,a5,0x2
   143c8:	00100593          	li	a1,1
   143cc:	00f597b3          	sll	a5,a1,a5
   143d0:	00e7e7b3          	or	a5,a5,a4
   143d4:	ff860713          	addi	a4,a2,-8
   143d8:	00e42623          	sw	a4,12(s0)
   143dc:	00a42423          	sw	a0,8(s0)
   143e0:	00f92223          	sw	a5,4(s2)
   143e4:	00862023          	sw	s0,0(a2)
   143e8:	00852623          	sw	s0,12(a0)
   143ec:	4026d713          	srai	a4,a3,0x2
   143f0:	00100613          	li	a2,1
   143f4:	00e61633          	sll	a2,a2,a4
   143f8:	1cc7ea63          	bltu	a5,a2,145cc <_malloc_r+0x310>
   143fc:	00f67733          	and	a4,a2,a5
   14400:	02071463          	bnez	a4,14428 <_malloc_r+0x16c>
   14404:	00161613          	slli	a2,a2,0x1
   14408:	ffc6f693          	andi	a3,a3,-4
   1440c:	00f67733          	and	a4,a2,a5
   14410:	00468693          	addi	a3,a3,4
   14414:	00071a63          	bnez	a4,14428 <_malloc_r+0x16c>
   14418:	00161613          	slli	a2,a2,0x1
   1441c:	00f67733          	and	a4,a2,a5
   14420:	00468693          	addi	a3,a3,4
   14424:	fe070ae3          	beqz	a4,14418 <_malloc_r+0x15c>
   14428:	00f00513          	li	a0,15
   1442c:	00369893          	slli	a7,a3,0x3
   14430:	012888b3          	add	a7,a7,s2
   14434:	00088593          	mv	a1,a7
   14438:	00068293          	mv	t0,a3
   1443c:	00c5a403          	lw	s0,12(a1)
   14440:	00859a63          	bne	a1,s0,14454 <_malloc_r+0x198>
   14444:	3e80006f          	j	1482c <_malloc_r+0x570>
   14448:	40075463          	bgez	a4,14850 <_malloc_r+0x594>
   1444c:	00c42403          	lw	s0,12(s0)
   14450:	3c858e63          	beq	a1,s0,1482c <_malloc_r+0x570>
   14454:	00442783          	lw	a5,4(s0)
   14458:	ffc7f793          	andi	a5,a5,-4
   1445c:	40978733          	sub	a4,a5,s1
   14460:	fee554e3          	ble	a4,a0,14448 <_malloc_r+0x18c>
   14464:	00c42683          	lw	a3,12(s0)
   14468:	00842603          	lw	a2,8(s0)
   1446c:	009407b3          	add	a5,s0,s1
   14470:	00176893          	ori	a7,a4,1
   14474:	00e785b3          	add	a1,a5,a4
   14478:	0014e493          	ori	s1,s1,1
   1447c:	00942223          	sw	s1,4(s0)
   14480:	00098513          	mv	a0,s3
   14484:	00d62623          	sw	a3,12(a2)
   14488:	00c6a423          	sw	a2,8(a3)
   1448c:	00f92a23          	sw	a5,20(s2)
   14490:	00f92823          	sw	a5,16(s2)
   14494:	0107a623          	sw	a6,12(a5)
   14498:	0107a423          	sw	a6,8(a5)
   1449c:	0117a223          	sw	a7,4(a5)
   144a0:	00e5a023          	sw	a4,0(a1)
   144a4:	065000ef          	jal	14d08 <__malloc_unlock>
   144a8:	00840513          	addi	a0,s0,8
   144ac:	0680006f          	j	14514 <_malloc_r+0x258>
   144b0:	01000493          	li	s1,16
   144b4:	08b4ea63          	bltu	s1,a1,14548 <_malloc_r+0x28c>
   144b8:	04d000ef          	jal	14d04 <__malloc_lock>
   144bc:	00600793          	li	a5,6
   144c0:	00200693          	li	a3,2
   144c4:	0001c937          	lui	s2,0x1c
   144c8:	18890913          	addi	s2,s2,392 # 1c188 <__malloc_av_>
   144cc:	00279793          	slli	a5,a5,0x2
   144d0:	00f907b3          	add	a5,s2,a5
   144d4:	0047a403          	lw	s0,4(a5)
   144d8:	ff878713          	addi	a4,a5,-8
   144dc:	36e40263          	beq	s0,a4,14840 <_malloc_r+0x584>
   144e0:	00442783          	lw	a5,4(s0)
   144e4:	00c42683          	lw	a3,12(s0)
   144e8:	00842603          	lw	a2,8(s0)
   144ec:	ffc7f793          	andi	a5,a5,-4
   144f0:	00f407b3          	add	a5,s0,a5
   144f4:	0047a703          	lw	a4,4(a5)
   144f8:	00098513          	mv	a0,s3
   144fc:	00d62623          	sw	a3,12(a2)
   14500:	00176713          	ori	a4,a4,1
   14504:	00c6a423          	sw	a2,8(a3)
   14508:	00e7a223          	sw	a4,4(a5)
   1450c:	7fc000ef          	jal	14d08 <__malloc_unlock>
   14510:	00840513          	addi	a0,s0,8
   14514:	02c12083          	lw	ra,44(sp)
   14518:	02812403          	lw	s0,40(sp)
   1451c:	02412483          	lw	s1,36(sp)
   14520:	02012903          	lw	s2,32(sp)
   14524:	01c12983          	lw	s3,28(sp)
   14528:	01812a03          	lw	s4,24(sp)
   1452c:	01412a83          	lw	s5,20(sp)
   14530:	01012b03          	lw	s6,16(sp)
   14534:	00c12b83          	lw	s7,12(sp)
   14538:	00812c03          	lw	s8,8(sp)
   1453c:	00412c83          	lw	s9,4(sp)
   14540:	03010113          	addi	sp,sp,48
   14544:	00008067          	ret
   14548:	00c00793          	li	a5,12
   1454c:	00f9a023          	sw	a5,0(s3) # ffffe000 <_gp+0xfffe1270>
   14550:	00000513          	li	a0,0
   14554:	fc1ff06f          	j	14514 <_malloc_r+0x258>
   14558:	00400713          	li	a4,4
   1455c:	20f76263          	bltu	a4,a5,14760 <_malloc_r+0x4a4>
   14560:	0064d593          	srli	a1,s1,0x6
   14564:	03958513          	addi	a0,a1,57
   14568:	00151693          	slli	a3,a0,0x1
   1456c:	03858593          	addi	a1,a1,56
   14570:	db9ff06f          	j	14328 <_malloc_r+0x6c>
   14574:	00050693          	mv	a3,a0
   14578:	e01ff06f          	j	14378 <_malloc_r+0xbc>
   1457c:	00f407b3          	add	a5,s0,a5
   14580:	0047a703          	lw	a4,4(a5)
   14584:	00c42683          	lw	a3,12(s0)
   14588:	00842603          	lw	a2,8(s0)
   1458c:	00176713          	ori	a4,a4,1
   14590:	00098513          	mv	a0,s3
   14594:	00d62623          	sw	a3,12(a2)
   14598:	00c6a423          	sw	a2,8(a3)
   1459c:	00e7a223          	sw	a4,4(a5)
   145a0:	768000ef          	jal	14d08 <__malloc_unlock>
   145a4:	00840513          	addi	a0,s0,8
   145a8:	f6dff06f          	j	14514 <_malloc_r+0x258>
   145ac:	00f407b3          	add	a5,s0,a5
   145b0:	0047a703          	lw	a4,4(a5)
   145b4:	00098513          	mv	a0,s3
   145b8:	00176713          	ori	a4,a4,1
   145bc:	00e7a223          	sw	a4,4(a5)
   145c0:	748000ef          	jal	14d08 <__malloc_unlock>
   145c4:	00840513          	addi	a0,s0,8
   145c8:	f4dff06f          	j	14514 <_malloc_r+0x258>
   145cc:	00892403          	lw	s0,8(s2)
   145d0:	00442a03          	lw	s4,4(s0)
   145d4:	ffca7a93          	andi	s5,s4,-4
   145d8:	009ae863          	bltu	s5,s1,145e8 <_malloc_r+0x32c>
   145dc:	409a87b3          	sub	a5,s5,s1
   145e0:	00f00713          	li	a4,15
   145e4:	14f74a63          	blt	a4,a5,14738 <_malloc_r+0x47c>
   145e8:	88c1a703          	lw	a4,-1908(gp) # 1c61c <__malloc_top_pad>
   145ec:	8101a683          	lw	a3,-2032(gp) # 1c5a0 <__malloc_sbrk_base>
   145f0:	00e48733          	add	a4,s1,a4
   145f4:	fff00793          	li	a5,-1
   145f8:	01540b33          	add	s6,s0,s5
   145fc:	01070a13          	addi	s4,a4,16
   14600:	00f68c63          	beq	a3,a5,14618 <_malloc_r+0x35c>
   14604:	000016b7          	lui	a3,0x1
   14608:	00f68a13          	addi	s4,a3,15 # 100f <_ftext-0xeff1>
   1460c:	014706b3          	add	a3,a4,s4
   14610:	fffff737          	lui	a4,0xfffff
   14614:	00e6fa33          	and	s4,a3,a4
   14618:	000a0513          	mv	a0,s4
   1461c:	1ac040ef          	jal	187c8 <sbrk>
   14620:	fff00793          	li	a5,-1
   14624:	00050b93          	mv	s7,a0
   14628:	28f50063          	beq	a0,a5,148a8 <_malloc_r+0x5ec>
   1462c:	27656c63          	bltu	a0,s6,148a4 <_malloc_r+0x5e8>
   14630:	8b418c13          	addi	s8,gp,-1868 # 1c644 <__malloc_current_mallinfo>
   14634:	000c2703          	lw	a4,0(s8)
   14638:	00ea0733          	add	a4,s4,a4
   1463c:	00ec2023          	sw	a4,0(s8)
   14640:	357b0c63          	beq	s6,s7,14998 <_malloc_r+0x6dc>
   14644:	8101a683          	lw	a3,-2032(gp) # 1c5a0 <__malloc_sbrk_base>
   14648:	fff00793          	li	a5,-1
   1464c:	36f68a63          	beq	a3,a5,149c0 <_malloc_r+0x704>
   14650:	416b8b33          	sub	s6,s7,s6
   14654:	00eb0733          	add	a4,s6,a4
   14658:	00ec2023          	sw	a4,0(s8)
   1465c:	007bf713          	andi	a4,s7,7
   14660:	000017b7          	lui	a5,0x1
   14664:	00070a63          	beqz	a4,14678 <_malloc_r+0x3bc>
   14668:	40eb8bb3          	sub	s7,s7,a4
   1466c:	00878793          	addi	a5,a5,8 # 1008 <_ftext-0xeff8>
   14670:	008b8b93          	addi	s7,s7,8
   14674:	40e787b3          	sub	a5,a5,a4
   14678:	00001737          	lui	a4,0x1
   1467c:	fff70713          	addi	a4,a4,-1 # fff <_ftext-0xf001>
   14680:	014b8a33          	add	s4,s7,s4
   14684:	00ea7a33          	and	s4,s4,a4
   14688:	41478a33          	sub	s4,a5,s4
   1468c:	000a0513          	mv	a0,s4
   14690:	138040ef          	jal	187c8 <sbrk>
   14694:	fff00793          	li	a5,-1
   14698:	30f50e63          	beq	a0,a5,149b4 <_malloc_r+0x6f8>
   1469c:	417507b3          	sub	a5,a0,s7
   146a0:	014787b3          	add	a5,a5,s4
   146a4:	0017e793          	ori	a5,a5,1
   146a8:	000c2703          	lw	a4,0(s8)
   146ac:	01792423          	sw	s7,8(s2)
   146b0:	00fba223          	sw	a5,4(s7)
   146b4:	00ea0733          	add	a4,s4,a4
   146b8:	00ec2023          	sw	a4,0(s8)
   146bc:	03240c63          	beq	s0,s2,146f4 <_malloc_r+0x438>
   146c0:	00f00613          	li	a2,15
   146c4:	29567263          	bleu	s5,a2,14948 <_malloc_r+0x68c>
   146c8:	ff4a8793          	addi	a5,s5,-12
   146cc:	ff87f793          	andi	a5,a5,-8
   146d0:	00f406b3          	add	a3,s0,a5
   146d4:	00500593          	li	a1,5
   146d8:	00b6a223          	sw	a1,4(a3)
   146dc:	00b6a423          	sw	a1,8(a3)
   146e0:	00442683          	lw	a3,4(s0)
   146e4:	0016f693          	andi	a3,a3,1
   146e8:	00f6e6b3          	or	a3,a3,a5
   146ec:	00d42223          	sw	a3,4(s0)
   146f0:	2cf66c63          	bltu	a2,a5,149c8 <_malloc_r+0x70c>
   146f4:	8881a683          	lw	a3,-1912(gp) # 1c618 <__malloc_max_sbrked_mem>
   146f8:	00e6f463          	bleu	a4,a3,14700 <_malloc_r+0x444>
   146fc:	88e1a423          	sw	a4,-1912(gp) # 1c618 <__malloc_max_sbrked_mem>
   14700:	8841a683          	lw	a3,-1916(gp) # 1c614 <__malloc_max_total_mem>
   14704:	00892403          	lw	s0,8(s2)
   14708:	00e6f463          	bleu	a4,a3,14710 <_malloc_r+0x454>
   1470c:	88e1a223          	sw	a4,-1916(gp) # 1c614 <__malloc_max_total_mem>
   14710:	00442703          	lw	a4,4(s0)
   14714:	ffc77713          	andi	a4,a4,-4
   14718:	409707b3          	sub	a5,a4,s1
   1471c:	00976663          	bltu	a4,s1,14728 <_malloc_r+0x46c>
   14720:	00f00713          	li	a4,15
   14724:	00f74a63          	blt	a4,a5,14738 <_malloc_r+0x47c>
   14728:	00098513          	mv	a0,s3
   1472c:	5dc000ef          	jal	14d08 <__malloc_unlock>
   14730:	00000513          	li	a0,0
   14734:	de1ff06f          	j	14514 <_malloc_r+0x258>
   14738:	00940733          	add	a4,s0,s1
   1473c:	0017e793          	ori	a5,a5,1
   14740:	0014e493          	ori	s1,s1,1
   14744:	00942223          	sw	s1,4(s0)
   14748:	00098513          	mv	a0,s3
   1474c:	00e92423          	sw	a4,8(s2)
   14750:	00f72223          	sw	a5,4(a4)
   14754:	5b4000ef          	jal	14d08 <__malloc_unlock>
   14758:	00840513          	addi	a0,s0,8
   1475c:	db9ff06f          	j	14514 <_malloc_r+0x258>
   14760:	01400713          	li	a4,20
   14764:	10f77e63          	bleu	a5,a4,14880 <_malloc_r+0x5c4>
   14768:	05400713          	li	a4,84
   1476c:	1af76063          	bltu	a4,a5,1490c <_malloc_r+0x650>
   14770:	00c4d593          	srli	a1,s1,0xc
   14774:	06f58513          	addi	a0,a1,111
   14778:	00151693          	slli	a3,a0,0x1
   1477c:	06e58593          	addi	a1,a1,110
   14780:	ba9ff06f          	j	14328 <_malloc_r+0x6c>
   14784:	0097d713          	srli	a4,a5,0x9
   14788:	00400613          	li	a2,4
   1478c:	10e67263          	bleu	a4,a2,14890 <_malloc_r+0x5d4>
   14790:	01400613          	li	a2,20
   14794:	1ee66463          	bltu	a2,a4,1497c <_malloc_r+0x6c0>
   14798:	05c70593          	addi	a1,a4,92
   1479c:	05b70613          	addi	a2,a4,91
   147a0:	00159593          	slli	a1,a1,0x1
   147a4:	00259593          	slli	a1,a1,0x2
   147a8:	00b905b3          	add	a1,s2,a1
   147ac:	0005a703          	lw	a4,0(a1)
   147b0:	ff858593          	addi	a1,a1,-8
   147b4:	16e58a63          	beq	a1,a4,14928 <_malloc_r+0x66c>
   147b8:	00472603          	lw	a2,4(a4)
   147bc:	ffc67613          	andi	a2,a2,-4
   147c0:	00c7f663          	bleu	a2,a5,147cc <_malloc_r+0x510>
   147c4:	00872703          	lw	a4,8(a4)
   147c8:	fee598e3          	bne	a1,a4,147b8 <_malloc_r+0x4fc>
   147cc:	00c72583          	lw	a1,12(a4)
   147d0:	00492783          	lw	a5,4(s2)
   147d4:	00b42623          	sw	a1,12(s0)
   147d8:	00e42423          	sw	a4,8(s0)
   147dc:	0085a423          	sw	s0,8(a1)
   147e0:	00872623          	sw	s0,12(a4)
   147e4:	c09ff06f          	j	143ec <_malloc_r+0x130>
   147e8:	009407b3          	add	a5,s0,s1
   147ec:	00176613          	ori	a2,a4,1
   147f0:	00e786b3          	add	a3,a5,a4
   147f4:	0014e493          	ori	s1,s1,1
   147f8:	00942223          	sw	s1,4(s0)
   147fc:	00098513          	mv	a0,s3
   14800:	00f92a23          	sw	a5,20(s2)
   14804:	00f92823          	sw	a5,16(s2)
   14808:	0107a623          	sw	a6,12(a5)
   1480c:	0107a423          	sw	a6,8(a5)
   14810:	00c7a223          	sw	a2,4(a5)
   14814:	00e6a023          	sw	a4,0(a3)
   14818:	4f0000ef          	jal	14d08 <__malloc_unlock>
   1481c:	00840513          	addi	a0,s0,8
   14820:	cf5ff06f          	j	14514 <_malloc_r+0x258>
   14824:	00492783          	lw	a5,4(s2)
   14828:	bc5ff06f          	j	143ec <_malloc_r+0x130>
   1482c:	00128293          	addi	t0,t0,1
   14830:	0032f793          	andi	a5,t0,3
   14834:	00858593          	addi	a1,a1,8
   14838:	c00792e3          	bnez	a5,1443c <_malloc_r+0x180>
   1483c:	0880006f          	j	148c4 <_malloc_r+0x608>
   14840:	00c7a403          	lw	s0,12(a5)
   14844:	00268693          	addi	a3,a3,2
   14848:	b28788e3          	beq	a5,s0,14378 <_malloc_r+0xbc>
   1484c:	c95ff06f          	j	144e0 <_malloc_r+0x224>
   14850:	00f407b3          	add	a5,s0,a5
   14854:	0047a703          	lw	a4,4(a5)
   14858:	00c42683          	lw	a3,12(s0)
   1485c:	00842603          	lw	a2,8(s0)
   14860:	00176713          	ori	a4,a4,1
   14864:	00e7a223          	sw	a4,4(a5)
   14868:	00098513          	mv	a0,s3
   1486c:	00d62623          	sw	a3,12(a2)
   14870:	00c6a423          	sw	a2,8(a3)
   14874:	494000ef          	jal	14d08 <__malloc_unlock>
   14878:	00840513          	addi	a0,s0,8
   1487c:	c99ff06f          	j	14514 <_malloc_r+0x258>
   14880:	05c78513          	addi	a0,a5,92
   14884:	05b78593          	addi	a1,a5,91
   14888:	00151693          	slli	a3,a0,0x1
   1488c:	a9dff06f          	j	14328 <_malloc_r+0x6c>
   14890:	0067d613          	srli	a2,a5,0x6
   14894:	03960593          	addi	a1,a2,57
   14898:	00159593          	slli	a1,a1,0x1
   1489c:	03860613          	addi	a2,a2,56
   148a0:	f05ff06f          	j	147a4 <_malloc_r+0x4e8>
   148a4:	d92406e3          	beq	s0,s2,14630 <_malloc_r+0x374>
   148a8:	00892403          	lw	s0,8(s2)
   148ac:	00442703          	lw	a4,4(s0)
   148b0:	ffc77713          	andi	a4,a4,-4
   148b4:	e65ff06f          	j	14718 <_malloc_r+0x45c>
   148b8:	0088a783          	lw	a5,8(a7)
   148bc:	fff68693          	addi	a3,a3,-1
   148c0:	14f89e63          	bne	a7,a5,14a1c <_malloc_r+0x760>
   148c4:	0036f793          	andi	a5,a3,3
   148c8:	ff888893          	addi	a7,a7,-8
   148cc:	fe0796e3          	bnez	a5,148b8 <_malloc_r+0x5fc>
   148d0:	00492783          	lw	a5,4(s2)
   148d4:	fff64713          	not	a4,a2
   148d8:	00f777b3          	and	a5,a4,a5
   148dc:	00f92223          	sw	a5,4(s2)
   148e0:	00161613          	slli	a2,a2,0x1
   148e4:	cec7e4e3          	bltu	a5,a2,145cc <_malloc_r+0x310>
   148e8:	ce0602e3          	beqz	a2,145cc <_malloc_r+0x310>
   148ec:	00f67733          	and	a4,a2,a5
   148f0:	00028693          	mv	a3,t0
   148f4:	b2071ce3          	bnez	a4,1442c <_malloc_r+0x170>
   148f8:	00161613          	slli	a2,a2,0x1
   148fc:	00f67733          	and	a4,a2,a5
   14900:	00468693          	addi	a3,a3,4
   14904:	fe070ae3          	beqz	a4,148f8 <_malloc_r+0x63c>
   14908:	b25ff06f          	j	1442c <_malloc_r+0x170>
   1490c:	15400713          	li	a4,340
   14910:	04f76263          	bltu	a4,a5,14954 <_malloc_r+0x698>
   14914:	00f4d593          	srli	a1,s1,0xf
   14918:	07858513          	addi	a0,a1,120
   1491c:	00151693          	slli	a3,a0,0x1
   14920:	07758593          	addi	a1,a1,119
   14924:	a05ff06f          	j	14328 <_malloc_r+0x6c>
   14928:	00492703          	lw	a4,4(s2)
   1492c:	40265613          	srai	a2,a2,0x2
   14930:	00100793          	li	a5,1
   14934:	00c797b3          	sll	a5,a5,a2
   14938:	00e7e7b3          	or	a5,a5,a4
   1493c:	00f92223          	sw	a5,4(s2)
   14940:	00058713          	mv	a4,a1
   14944:	e91ff06f          	j	147d4 <_malloc_r+0x518>
   14948:	00100793          	li	a5,1
   1494c:	00fba223          	sw	a5,4(s7)
   14950:	dd9ff06f          	j	14728 <_malloc_r+0x46c>
   14954:	55400713          	li	a4,1364
   14958:	0fe00693          	li	a3,254
   1495c:	07f00513          	li	a0,127
   14960:	07e00593          	li	a1,126
   14964:	9cf762e3          	bltu	a4,a5,14328 <_malloc_r+0x6c>
   14968:	0124d593          	srli	a1,s1,0x12
   1496c:	07d58513          	addi	a0,a1,125
   14970:	00151693          	slli	a3,a0,0x1
   14974:	07c58593          	addi	a1,a1,124
   14978:	9b1ff06f          	j	14328 <_malloc_r+0x6c>
   1497c:	05400613          	li	a2,84
   14980:	04e66e63          	bltu	a2,a4,149dc <_malloc_r+0x720>
   14984:	00c7d613          	srli	a2,a5,0xc
   14988:	06f60593          	addi	a1,a2,111
   1498c:	00159593          	slli	a1,a1,0x1
   14990:	06e60613          	addi	a2,a2,110
   14994:	e11ff06f          	j	147a4 <_malloc_r+0x4e8>
   14998:	014b1793          	slli	a5,s6,0x14
   1499c:	ca0794e3          	bnez	a5,14644 <_malloc_r+0x388>
   149a0:	00892783          	lw	a5,8(s2)
   149a4:	014a8a33          	add	s4,s5,s4
   149a8:	001a6a13          	ori	s4,s4,1
   149ac:	0147a223          	sw	s4,4(a5)
   149b0:	d45ff06f          	j	146f4 <_malloc_r+0x438>
   149b4:	00100793          	li	a5,1
   149b8:	00000a13          	li	s4,0
   149bc:	cedff06f          	j	146a8 <_malloc_r+0x3ec>
   149c0:	8171a823          	sw	s7,-2032(gp) # 1c5a0 <__malloc_sbrk_base>
   149c4:	c99ff06f          	j	1465c <_malloc_r+0x3a0>
   149c8:	00840593          	addi	a1,s0,8
   149cc:	00098513          	mv	a0,s3
   149d0:	a68ff0ef          	jal	13c38 <_free_r>
   149d4:	000c2703          	lw	a4,0(s8)
   149d8:	d1dff06f          	j	146f4 <_malloc_r+0x438>
   149dc:	15400613          	li	a2,340
   149e0:	00e66c63          	bltu	a2,a4,149f8 <_malloc_r+0x73c>
   149e4:	00f7d613          	srli	a2,a5,0xf
   149e8:	07860593          	addi	a1,a2,120
   149ec:	00159593          	slli	a1,a1,0x1
   149f0:	07760613          	addi	a2,a2,119
   149f4:	db1ff06f          	j	147a4 <_malloc_r+0x4e8>
   149f8:	55400513          	li	a0,1364
   149fc:	0fe00593          	li	a1,254
   14a00:	07e00613          	li	a2,126
   14a04:	dae560e3          	bltu	a0,a4,147a4 <_malloc_r+0x4e8>
   14a08:	0127d613          	srli	a2,a5,0x12
   14a0c:	07d60593          	addi	a1,a2,125
   14a10:	00159593          	slli	a1,a1,0x1
   14a14:	07c60613          	addi	a2,a2,124
   14a18:	d8dff06f          	j	147a4 <_malloc_r+0x4e8>
   14a1c:	00492783          	lw	a5,4(s2)
   14a20:	ec1ff06f          	j	148e0 <_malloc_r+0x624>
   14a24:	0034d693          	srli	a3,s1,0x3
   14a28:	00168793          	addi	a5,a3,1
   14a2c:	00179793          	slli	a5,a5,0x1
   14a30:	a95ff06f          	j	144c4 <_malloc_r+0x208>

00014a34 <memchr>:
   14a34:	00357793          	andi	a5,a0,3
   14a38:	0ff5f693          	andi	a3,a1,255
   14a3c:	0c078063          	beqz	a5,14afc <memchr+0xc8>
   14a40:	fff60793          	addi	a5,a2,-1
   14a44:	06060063          	beqz	a2,14aa4 <memchr+0x70>
   14a48:	00054703          	lbu	a4,0(a0)
   14a4c:	00d71c63          	bne	a4,a3,14a64 <memchr+0x30>
   14a50:	0b40006f          	j	14b04 <memchr+0xd0>
   14a54:	04078863          	beqz	a5,14aa4 <memchr+0x70>
   14a58:	00054703          	lbu	a4,0(a0)
   14a5c:	fff78793          	addi	a5,a5,-1
   14a60:	04d70463          	beq	a4,a3,14aa8 <memchr+0x74>
   14a64:	00150513          	addi	a0,a0,1
   14a68:	00357713          	andi	a4,a0,3
   14a6c:	fe0714e3          	bnez	a4,14a54 <memchr+0x20>
   14a70:	00300813          	li	a6,3
   14a74:	02f86c63          	bltu	a6,a5,14aac <memchr+0x78>
   14a78:	02078663          	beqz	a5,14aa4 <memchr+0x70>
   14a7c:	00054703          	lbu	a4,0(a0)
   14a80:	02d70463          	beq	a4,a3,14aa8 <memchr+0x74>
   14a84:	00150713          	addi	a4,a0,1
   14a88:	00f507b3          	add	a5,a0,a5
   14a8c:	0100006f          	j	14a9c <memchr+0x68>
   14a90:	00170713          	addi	a4,a4,1
   14a94:	fff74603          	lbu	a2,-1(a4)
   14a98:	00d60863          	beq	a2,a3,14aa8 <memchr+0x74>
   14a9c:	00070513          	mv	a0,a4
   14aa0:	fee798e3          	bne	a5,a4,14a90 <memchr+0x5c>
   14aa4:	00000513          	li	a0,0
   14aa8:	00008067          	ret
   14aac:	0ff5f593          	andi	a1,a1,255
   14ab0:	00859713          	slli	a4,a1,0x8
   14ab4:	00b765b3          	or	a1,a4,a1
   14ab8:	01059713          	slli	a4,a1,0x10
   14abc:	feff02b7          	lui	t0,0xfeff0
   14ac0:	808088b7          	lui	a7,0x80808
   14ac4:	00e5e5b3          	or	a1,a1,a4
   14ac8:	eff28293          	addi	t0,t0,-257 # fefefeff <_gp+0xfefd316f>
   14acc:	08088893          	addi	a7,a7,128 # 80808080 <_gp+0x807eb2f0>
   14ad0:	00052703          	lw	a4,0(a0)
   14ad4:	00e5c733          	xor	a4,a1,a4
   14ad8:	00570633          	add	a2,a4,t0
   14adc:	fff74713          	not	a4,a4
   14ae0:	00e67733          	and	a4,a2,a4
   14ae4:	01177733          	and	a4,a4,a7
   14ae8:	f8071ae3          	bnez	a4,14a7c <memchr+0x48>
   14aec:	ffc78793          	addi	a5,a5,-4
   14af0:	00450513          	addi	a0,a0,4
   14af4:	fcf86ee3          	bltu	a6,a5,14ad0 <memchr+0x9c>
   14af8:	f81ff06f          	j	14a78 <memchr+0x44>
   14afc:	00060793          	mv	a5,a2
   14b00:	f71ff06f          	j	14a70 <memchr+0x3c>
   14b04:	00008067          	ret

00014b08 <memcpy>:
   14b08:	00a5c7b3          	xor	a5,a1,a0
   14b0c:	0037f793          	andi	a5,a5,3
   14b10:	00c508b3          	add	a7,a0,a2
   14b14:	0e079263          	bnez	a5,14bf8 <memcpy+0xf0>
   14b18:	00300793          	li	a5,3
   14b1c:	0ec7fe63          	bleu	a2,a5,14c18 <memcpy+0x110>
   14b20:	00357793          	andi	a5,a0,3
   14b24:	04079a63          	bnez	a5,14b78 <memcpy+0x70>
   14b28:	ffc8f813          	andi	a6,a7,-4
   14b2c:	fe080793          	addi	a5,a6,-32
   14b30:	00050713          	mv	a4,a0
   14b34:	06f56663          	bltu	a0,a5,14ba0 <memcpy+0x98>
   14b38:	00058693          	mv	a3,a1
   14b3c:	00070793          	mv	a5,a4
   14b40:	03077863          	bleu	a6,a4,14b70 <memcpy+0x68>
   14b44:	0006a603          	lw	a2,0(a3)
   14b48:	00478793          	addi	a5,a5,4
   14b4c:	00468693          	addi	a3,a3,4
   14b50:	fec7ae23          	sw	a2,-4(a5)
   14b54:	ff07e8e3          	bltu	a5,a6,14b44 <memcpy+0x3c>
   14b58:	fff74793          	not	a5,a4
   14b5c:	01078833          	add	a6,a5,a6
   14b60:	ffc87813          	andi	a6,a6,-4
   14b64:	00480813          	addi	a6,a6,4
   14b68:	01070733          	add	a4,a4,a6
   14b6c:	010585b3          	add	a1,a1,a6
   14b70:	09176863          	bltu	a4,a7,14c00 <memcpy+0xf8>
   14b74:	00008067          	ret
   14b78:	00050713          	mv	a4,a0
   14b7c:	0005c683          	lbu	a3,0(a1)
   14b80:	00170713          	addi	a4,a4,1
   14b84:	00377793          	andi	a5,a4,3
   14b88:	00158593          	addi	a1,a1,1
   14b8c:	fed70fa3          	sb	a3,-1(a4)
   14b90:	fe0796e3          	bnez	a5,14b7c <memcpy+0x74>
   14b94:	ffc8f813          	andi	a6,a7,-4
   14b98:	fe080793          	addi	a5,a6,-32
   14b9c:	f8f77ee3          	bleu	a5,a4,14b38 <memcpy+0x30>
   14ba0:	0005af83          	lw	t6,0(a1)
   14ba4:	0045af03          	lw	t5,4(a1)
   14ba8:	0085ae83          	lw	t4,8(a1)
   14bac:	00c5ae03          	lw	t3,12(a1)
   14bb0:	0105a383          	lw	t2,16(a1)
   14bb4:	0145a303          	lw	t1,20(a1)
   14bb8:	0185a283          	lw	t0,24(a1)
   14bbc:	01c5a603          	lw	a2,28(a1)
   14bc0:	02458593          	addi	a1,a1,36
   14bc4:	02470713          	addi	a4,a4,36
   14bc8:	ffc5a683          	lw	a3,-4(a1)
   14bcc:	fdf72e23          	sw	t6,-36(a4)
   14bd0:	ffe72023          	sw	t5,-32(a4)
   14bd4:	ffd72223          	sw	t4,-28(a4)
   14bd8:	ffc72423          	sw	t3,-24(a4)
   14bdc:	fe772623          	sw	t2,-20(a4)
   14be0:	fe672823          	sw	t1,-16(a4)
   14be4:	fe572a23          	sw	t0,-12(a4)
   14be8:	fec72c23          	sw	a2,-8(a4)
   14bec:	fed72e23          	sw	a3,-4(a4)
   14bf0:	faf768e3          	bltu	a4,a5,14ba0 <memcpy+0x98>
   14bf4:	f45ff06f          	j	14b38 <memcpy+0x30>
   14bf8:	00050713          	mv	a4,a0
   14bfc:	03157463          	bleu	a7,a0,14c24 <memcpy+0x11c>
   14c00:	0005c783          	lbu	a5,0(a1)
   14c04:	00170713          	addi	a4,a4,1
   14c08:	00158593          	addi	a1,a1,1
   14c0c:	fef70fa3          	sb	a5,-1(a4)
   14c10:	ff1768e3          	bltu	a4,a7,14c00 <memcpy+0xf8>
   14c14:	00008067          	ret
   14c18:	00050713          	mv	a4,a0
   14c1c:	ff1562e3          	bltu	a0,a7,14c00 <memcpy+0xf8>
   14c20:	f55ff06f          	j	14b74 <memcpy+0x6c>
   14c24:	00008067          	ret

00014c28 <memset>:
   14c28:	00f00813          	li	a6,15
   14c2c:	00050713          	mv	a4,a0
   14c30:	02c87e63          	bleu	a2,a6,14c6c <memset+0x44>
   14c34:	00f77793          	andi	a5,a4,15
   14c38:	0a079063          	bnez	a5,14cd8 <memset+0xb0>
   14c3c:	08059263          	bnez	a1,14cc0 <memset+0x98>
   14c40:	ff067693          	andi	a3,a2,-16
   14c44:	00f67613          	andi	a2,a2,15
   14c48:	00e686b3          	add	a3,a3,a4
   14c4c:	00b72023          	sw	a1,0(a4)
   14c50:	00b72223          	sw	a1,4(a4)
   14c54:	00b72423          	sw	a1,8(a4)
   14c58:	00b72623          	sw	a1,12(a4)
   14c5c:	01070713          	addi	a4,a4,16
   14c60:	fed766e3          	bltu	a4,a3,14c4c <memset+0x24>
   14c64:	00061463          	bnez	a2,14c6c <memset+0x44>
   14c68:	00008067          	ret
   14c6c:	40c806b3          	sub	a3,a6,a2
   14c70:	00269693          	slli	a3,a3,0x2
   14c74:	00000297          	auipc	t0,0x0
   14c78:	005686b3          	add	a3,a3,t0
   14c7c:	00c68067          	jr	a3,12
   14c80:	00b70723          	sb	a1,14(a4)
   14c84:	00b706a3          	sb	a1,13(a4)
   14c88:	00b70623          	sb	a1,12(a4)
   14c8c:	00b705a3          	sb	a1,11(a4)
   14c90:	00b70523          	sb	a1,10(a4)
   14c94:	00b704a3          	sb	a1,9(a4)
   14c98:	00b70423          	sb	a1,8(a4)
   14c9c:	00b703a3          	sb	a1,7(a4)
   14ca0:	00b70323          	sb	a1,6(a4)
   14ca4:	00b702a3          	sb	a1,5(a4)
   14ca8:	00b70223          	sb	a1,4(a4)
   14cac:	00b701a3          	sb	a1,3(a4)
   14cb0:	00b70123          	sb	a1,2(a4)
   14cb4:	00b700a3          	sb	a1,1(a4)
   14cb8:	00b70023          	sb	a1,0(a4)
   14cbc:	00008067          	ret
   14cc0:	0ff5f593          	andi	a1,a1,255
   14cc4:	00859693          	slli	a3,a1,0x8
   14cc8:	00d5e5b3          	or	a1,a1,a3
   14ccc:	01059693          	slli	a3,a1,0x10
   14cd0:	00d5e5b3          	or	a1,a1,a3
   14cd4:	f6dff06f          	j	14c40 <memset+0x18>
   14cd8:	00279693          	slli	a3,a5,0x2
   14cdc:	00000297          	auipc	t0,0x0
   14ce0:	005686b3          	add	a3,a3,t0
   14ce4:	00008293          	mv	t0,ra
   14ce8:	fa0680e7          	jalr	a3,-96
   14cec:	00028093          	mv	ra,t0
   14cf0:	ff078793          	addi	a5,a5,-16
   14cf4:	40f70733          	sub	a4,a4,a5
   14cf8:	00f60633          	add	a2,a2,a5
   14cfc:	f6c878e3          	bleu	a2,a6,14c6c <memset+0x44>
   14d00:	f3dff06f          	j	14c3c <memset+0x14>

00014d04 <__malloc_lock>:
   14d04:	00008067          	ret

00014d08 <__malloc_unlock>:
   14d08:	00008067          	ret

00014d0c <_Balloc>:
   14d0c:	04c52783          	lw	a5,76(a0)
   14d10:	ff010113          	addi	sp,sp,-16
   14d14:	00812423          	sw	s0,8(sp)
   14d18:	00912223          	sw	s1,4(sp)
   14d1c:	00112623          	sw	ra,12(sp)
   14d20:	01212023          	sw	s2,0(sp)
   14d24:	00050413          	mv	s0,a0
   14d28:	00058493          	mv	s1,a1
   14d2c:	02078e63          	beqz	a5,14d68 <_Balloc+0x5c>
   14d30:	00249713          	slli	a4,s1,0x2
   14d34:	00e787b3          	add	a5,a5,a4
   14d38:	0007a503          	lw	a0,0(a5)
   14d3c:	04050663          	beqz	a0,14d88 <_Balloc+0x7c>
   14d40:	00052703          	lw	a4,0(a0)
   14d44:	00e7a023          	sw	a4,0(a5)
   14d48:	00052823          	sw	zero,16(a0)
   14d4c:	00052623          	sw	zero,12(a0)
   14d50:	00c12083          	lw	ra,12(sp)
   14d54:	00812403          	lw	s0,8(sp)
   14d58:	00412483          	lw	s1,4(sp)
   14d5c:	00012903          	lw	s2,0(sp)
   14d60:	01010113          	addi	sp,sp,16
   14d64:	00008067          	ret
   14d68:	02100613          	li	a2,33
   14d6c:	00400593          	li	a1,4
   14d70:	4d4020ef          	jal	17244 <_calloc_r>
   14d74:	00050793          	mv	a5,a0
   14d78:	04a42623          	sw	a0,76(s0)
   14d7c:	fa051ae3          	bnez	a0,14d30 <_Balloc+0x24>
   14d80:	00000513          	li	a0,0
   14d84:	fcdff06f          	j	14d50 <_Balloc+0x44>
   14d88:	00100593          	li	a1,1
   14d8c:	00959933          	sll	s2,a1,s1
   14d90:	00590613          	addi	a2,s2,5
   14d94:	00261613          	slli	a2,a2,0x2
   14d98:	00040513          	mv	a0,s0
   14d9c:	4a8020ef          	jal	17244 <_calloc_r>
   14da0:	fe0500e3          	beqz	a0,14d80 <_Balloc+0x74>
   14da4:	00952223          	sw	s1,4(a0)
   14da8:	01252423          	sw	s2,8(a0)
   14dac:	f9dff06f          	j	14d48 <_Balloc+0x3c>

00014db0 <_Bfree>:
   14db0:	02058063          	beqz	a1,14dd0 <_Bfree+0x20>
   14db4:	0045a783          	lw	a5,4(a1)
   14db8:	04c52703          	lw	a4,76(a0)
   14dbc:	00279793          	slli	a5,a5,0x2
   14dc0:	00f707b3          	add	a5,a4,a5
   14dc4:	0007a703          	lw	a4,0(a5)
   14dc8:	00e5a023          	sw	a4,0(a1)
   14dcc:	00b7a023          	sw	a1,0(a5)
   14dd0:	00008067          	ret

00014dd4 <__multadd>:
   14dd4:	fd010113          	addi	sp,sp,-48
   14dd8:	00010837          	lui	a6,0x10
   14ddc:	02812423          	sw	s0,40(sp)
   14de0:	02912223          	sw	s1,36(sp)
   14de4:	03212023          	sw	s2,32(sp)
   14de8:	00058493          	mv	s1,a1
   14dec:	0105a403          	lw	s0,16(a1)
   14df0:	00050913          	mv	s2,a0
   14df4:	02112623          	sw	ra,44(sp)
   14df8:	01312e23          	sw	s3,28(sp)
   14dfc:	01458593          	addi	a1,a1,20
   14e00:	00000513          	li	a0,0
   14e04:	fff80813          	addi	a6,a6,-1 # ffff <_ftext-0x1>
   14e08:	0005a783          	lw	a5,0(a1)
   14e0c:	00150513          	addi	a0,a0,1
   14e10:	00458593          	addi	a1,a1,4
   14e14:	0107f733          	and	a4,a5,a6
   14e18:	02c70733          	mul	a4,a4,a2
   14e1c:	0107d793          	srli	a5,a5,0x10
   14e20:	02c787b3          	mul	a5,a5,a2
   14e24:	00d70733          	add	a4,a4,a3
   14e28:	01075693          	srli	a3,a4,0x10
   14e2c:	01077733          	and	a4,a4,a6
   14e30:	00d786b3          	add	a3,a5,a3
   14e34:	01069793          	slli	a5,a3,0x10
   14e38:	00e78733          	add	a4,a5,a4
   14e3c:	0106d693          	srli	a3,a3,0x10
   14e40:	fee5ae23          	sw	a4,-4(a1)
   14e44:	fc8542e3          	blt	a0,s0,14e08 <__multadd+0x34>
   14e48:	02068263          	beqz	a3,14e6c <__multadd+0x98>
   14e4c:	0084a783          	lw	a5,8(s1)
   14e50:	02f45e63          	ble	a5,s0,14e8c <__multadd+0xb8>
   14e54:	00440793          	addi	a5,s0,4
   14e58:	00279793          	slli	a5,a5,0x2
   14e5c:	00f487b3          	add	a5,s1,a5
   14e60:	00140413          	addi	s0,s0,1
   14e64:	00d7a223          	sw	a3,4(a5)
   14e68:	0084a823          	sw	s0,16(s1)
   14e6c:	02c12083          	lw	ra,44(sp)
   14e70:	00048513          	mv	a0,s1
   14e74:	02812403          	lw	s0,40(sp)
   14e78:	02412483          	lw	s1,36(sp)
   14e7c:	02012903          	lw	s2,32(sp)
   14e80:	01c12983          	lw	s3,28(sp)
   14e84:	03010113          	addi	sp,sp,48
   14e88:	00008067          	ret
   14e8c:	0044a583          	lw	a1,4(s1)
   14e90:	00090513          	mv	a0,s2
   14e94:	00d12623          	sw	a3,12(sp)
   14e98:	00158593          	addi	a1,a1,1
   14e9c:	e71ff0ef          	jal	14d0c <_Balloc>
   14ea0:	0104a603          	lw	a2,16(s1)
   14ea4:	00050993          	mv	s3,a0
   14ea8:	00c48593          	addi	a1,s1,12
   14eac:	00260613          	addi	a2,a2,2
   14eb0:	00c50513          	addi	a0,a0,12
   14eb4:	00261613          	slli	a2,a2,0x2
   14eb8:	c51ff0ef          	jal	14b08 <memcpy>
   14ebc:	0044a783          	lw	a5,4(s1)
   14ec0:	04c92703          	lw	a4,76(s2)
   14ec4:	00c12683          	lw	a3,12(sp)
   14ec8:	00279793          	slli	a5,a5,0x2
   14ecc:	00f707b3          	add	a5,a4,a5
   14ed0:	0007a703          	lw	a4,0(a5)
   14ed4:	00e4a023          	sw	a4,0(s1)
   14ed8:	0097a023          	sw	s1,0(a5)
   14edc:	00098493          	mv	s1,s3
   14ee0:	f75ff06f          	j	14e54 <__multadd+0x80>

00014ee4 <__s2b>:
   14ee4:	fe010113          	addi	sp,sp,-32
   14ee8:	00868793          	addi	a5,a3,8
   14eec:	01312623          	sw	s3,12(sp)
   14ef0:	00068993          	mv	s3,a3
   14ef4:	00900693          	li	a3,9
   14ef8:	02d7c6b3          	div	a3,a5,a3
   14efc:	00100793          	li	a5,1
   14f00:	00812c23          	sw	s0,24(sp)
   14f04:	00912a23          	sw	s1,20(sp)
   14f08:	01212823          	sw	s2,16(sp)
   14f0c:	01412423          	sw	s4,8(sp)
   14f10:	00058413          	mv	s0,a1
   14f14:	00112e23          	sw	ra,28(sp)
   14f18:	01512223          	sw	s5,4(sp)
   14f1c:	00050913          	mv	s2,a0
   14f20:	00060a13          	mv	s4,a2
   14f24:	00070493          	mv	s1,a4
   14f28:	00000593          	li	a1,0
   14f2c:	00d7d863          	ble	a3,a5,14f3c <__s2b+0x58>
   14f30:	00179793          	slli	a5,a5,0x1
   14f34:	00158593          	addi	a1,a1,1
   14f38:	fed7cce3          	blt	a5,a3,14f30 <__s2b+0x4c>
   14f3c:	00090513          	mv	a0,s2
   14f40:	dcdff0ef          	jal	14d0c <_Balloc>
   14f44:	00100713          	li	a4,1
   14f48:	00900793          	li	a5,9
   14f4c:	00952a23          	sw	s1,20(a0)
   14f50:	00e52823          	sw	a4,16(a0)
   14f54:	0947d463          	ble	s4,a5,14fdc <__s2b+0xf8>
   14f58:	00f40ab3          	add	s5,s0,a5
   14f5c:	000a8493          	mv	s1,s5
   14f60:	01440433          	add	s0,s0,s4
   14f64:	00148493          	addi	s1,s1,1
   14f68:	fff4c683          	lbu	a3,-1(s1)
   14f6c:	00050593          	mv	a1,a0
   14f70:	00a00613          	li	a2,10
   14f74:	fd068693          	addi	a3,a3,-48
   14f78:	00090513          	mv	a0,s2
   14f7c:	e59ff0ef          	jal	14dd4 <__multadd>
   14f80:	fe8492e3          	bne	s1,s0,14f64 <__s2b+0x80>
   14f84:	014a8433          	add	s0,s5,s4
   14f88:	ff840413          	addi	s0,s0,-8
   14f8c:	033a5663          	ble	s3,s4,14fb8 <__s2b+0xd4>
   14f90:	414984b3          	sub	s1,s3,s4
   14f94:	009404b3          	add	s1,s0,s1
   14f98:	00140413          	addi	s0,s0,1
   14f9c:	fff44683          	lbu	a3,-1(s0)
   14fa0:	00050593          	mv	a1,a0
   14fa4:	00a00613          	li	a2,10
   14fa8:	fd068693          	addi	a3,a3,-48
   14fac:	00090513          	mv	a0,s2
   14fb0:	e25ff0ef          	jal	14dd4 <__multadd>
   14fb4:	fe8492e3          	bne	s1,s0,14f98 <__s2b+0xb4>
   14fb8:	01c12083          	lw	ra,28(sp)
   14fbc:	01812403          	lw	s0,24(sp)
   14fc0:	01412483          	lw	s1,20(sp)
   14fc4:	01012903          	lw	s2,16(sp)
   14fc8:	00c12983          	lw	s3,12(sp)
   14fcc:	00812a03          	lw	s4,8(sp)
   14fd0:	00412a83          	lw	s5,4(sp)
   14fd4:	02010113          	addi	sp,sp,32
   14fd8:	00008067          	ret
   14fdc:	00a40413          	addi	s0,s0,10
   14fe0:	00078a13          	mv	s4,a5
   14fe4:	fa9ff06f          	j	14f8c <__s2b+0xa8>

00014fe8 <__hi0bits>:
   14fe8:	ffff06b7          	lui	a3,0xffff0
   14fec:	00d576b3          	and	a3,a0,a3
   14ff0:	00050793          	mv	a5,a0
   14ff4:	00000713          	li	a4,0
   14ff8:	00069663          	bnez	a3,15004 <__hi0bits+0x1c>
   14ffc:	01051793          	slli	a5,a0,0x10
   15000:	01000713          	li	a4,16
   15004:	ff0006b7          	lui	a3,0xff000
   15008:	00d7f6b3          	and	a3,a5,a3
   1500c:	00069663          	bnez	a3,15018 <__hi0bits+0x30>
   15010:	00870713          	addi	a4,a4,8
   15014:	00879793          	slli	a5,a5,0x8
   15018:	f00006b7          	lui	a3,0xf0000
   1501c:	00d7f6b3          	and	a3,a5,a3
   15020:	00069663          	bnez	a3,1502c <__hi0bits+0x44>
   15024:	00470713          	addi	a4,a4,4
   15028:	00479793          	slli	a5,a5,0x4
   1502c:	c00006b7          	lui	a3,0xc0000
   15030:	00d7f6b3          	and	a3,a5,a3
   15034:	00069663          	bnez	a3,15040 <__hi0bits+0x58>
   15038:	00270713          	addi	a4,a4,2
   1503c:	00279793          	slli	a5,a5,0x2
   15040:	0007ce63          	bltz	a5,1505c <__hi0bits+0x74>
   15044:	00179693          	slli	a3,a5,0x1
   15048:	02000513          	li	a0,32
   1504c:	0006c463          	bltz	a3,15054 <__hi0bits+0x6c>
   15050:	00008067          	ret
   15054:	00170513          	addi	a0,a4,1
   15058:	00008067          	ret
   1505c:	00070513          	mv	a0,a4
   15060:	00008067          	ret

00015064 <__lo0bits>:
   15064:	00052783          	lw	a5,0(a0)
   15068:	00050693          	mv	a3,a0
   1506c:	0077f713          	andi	a4,a5,7
   15070:	02070463          	beqz	a4,15098 <__lo0bits+0x34>
   15074:	0017f713          	andi	a4,a5,1
   15078:	00000513          	li	a0,0
   1507c:	08071263          	bnez	a4,15100 <__lo0bits+0x9c>
   15080:	0027f713          	andi	a4,a5,2
   15084:	08071063          	bnez	a4,15104 <__lo0bits+0xa0>
   15088:	0027d793          	srli	a5,a5,0x2
   1508c:	00f6a023          	sw	a5,0(a3) # c0000000 <_gp+0xbffe3270>
   15090:	00200513          	li	a0,2
   15094:	00008067          	ret
   15098:	01079613          	slli	a2,a5,0x10
   1509c:	01065613          	srli	a2,a2,0x10
   150a0:	00000713          	li	a4,0
   150a4:	00061663          	bnez	a2,150b0 <__lo0bits+0x4c>
   150a8:	0107d793          	srli	a5,a5,0x10
   150ac:	01000713          	li	a4,16
   150b0:	0ff7f613          	andi	a2,a5,255
   150b4:	00061663          	bnez	a2,150c0 <__lo0bits+0x5c>
   150b8:	00870713          	addi	a4,a4,8
   150bc:	0087d793          	srli	a5,a5,0x8
   150c0:	00f7f613          	andi	a2,a5,15
   150c4:	00061663          	bnez	a2,150d0 <__lo0bits+0x6c>
   150c8:	00470713          	addi	a4,a4,4
   150cc:	0047d793          	srli	a5,a5,0x4
   150d0:	0037f613          	andi	a2,a5,3
   150d4:	00061663          	bnez	a2,150e0 <__lo0bits+0x7c>
   150d8:	00270713          	addi	a4,a4,2
   150dc:	0027d793          	srli	a5,a5,0x2
   150e0:	0017f613          	andi	a2,a5,1
   150e4:	00061a63          	bnez	a2,150f8 <__lo0bits+0x94>
   150e8:	0017d793          	srli	a5,a5,0x1
   150ec:	02000513          	li	a0,32
   150f0:	00078863          	beqz	a5,15100 <__lo0bits+0x9c>
   150f4:	00170713          	addi	a4,a4,1
   150f8:	00f6a023          	sw	a5,0(a3)
   150fc:	00070513          	mv	a0,a4
   15100:	00008067          	ret
   15104:	0017d793          	srli	a5,a5,0x1
   15108:	00f6a023          	sw	a5,0(a3)
   1510c:	00100513          	li	a0,1
   15110:	00008067          	ret

00015114 <__i2b>:
   15114:	ff010113          	addi	sp,sp,-16
   15118:	00812423          	sw	s0,8(sp)
   1511c:	00058413          	mv	s0,a1
   15120:	00100593          	li	a1,1
   15124:	00112623          	sw	ra,12(sp)
   15128:	be5ff0ef          	jal	14d0c <_Balloc>
   1512c:	00c12083          	lw	ra,12(sp)
   15130:	00100713          	li	a4,1
   15134:	00852a23          	sw	s0,20(a0)
   15138:	00e52823          	sw	a4,16(a0)
   1513c:	00812403          	lw	s0,8(sp)
   15140:	01010113          	addi	sp,sp,16
   15144:	00008067          	ret

00015148 <__multiply>:
   15148:	fe010113          	addi	sp,sp,-32
   1514c:	01312623          	sw	s3,12(sp)
   15150:	01412423          	sw	s4,8(sp)
   15154:	0105a983          	lw	s3,16(a1)
   15158:	01062a03          	lw	s4,16(a2)
   1515c:	00912a23          	sw	s1,20(sp)
   15160:	01212823          	sw	s2,16(sp)
   15164:	00112e23          	sw	ra,28(sp)
   15168:	00812c23          	sw	s0,24(sp)
   1516c:	00058913          	mv	s2,a1
   15170:	00060493          	mv	s1,a2
   15174:	0149dc63          	ble	s4,s3,1518c <__multiply+0x44>
   15178:	00098713          	mv	a4,s3
   1517c:	00060913          	mv	s2,a2
   15180:	000a0993          	mv	s3,s4
   15184:	00058493          	mv	s1,a1
   15188:	00070a13          	mv	s4,a4
   1518c:	00892783          	lw	a5,8(s2)
   15190:	00492583          	lw	a1,4(s2)
   15194:	01498433          	add	s0,s3,s4
   15198:	0087a7b3          	slt	a5,a5,s0
   1519c:	00f585b3          	add	a1,a1,a5
   151a0:	b6dff0ef          	jal	14d0c <_Balloc>
   151a4:	01450293          	addi	t0,a0,20
   151a8:	00241893          	slli	a7,s0,0x2
   151ac:	011288b3          	add	a7,t0,a7
   151b0:	00028793          	mv	a5,t0
   151b4:	0112f863          	bleu	a7,t0,151c4 <__multiply+0x7c>
   151b8:	0007a023          	sw	zero,0(a5)
   151bc:	00478793          	addi	a5,a5,4
   151c0:	ff17ece3          	bltu	a5,a7,151b8 <__multiply+0x70>
   151c4:	01448613          	addi	a2,s1,20
   151c8:	002a1313          	slli	t1,s4,0x2
   151cc:	01490393          	addi	t2,s2,20
   151d0:	00299813          	slli	a6,s3,0x2
   151d4:	000105b7          	lui	a1,0x10
   151d8:	00660333          	add	t1,a2,t1
   151dc:	01038833          	add	a6,t2,a6
   151e0:	fff58593          	addi	a1,a1,-1 # ffff <_ftext-0x1>
   151e4:	10667463          	bleu	t1,a2,152ec <__multiply+0x1a4>
   151e8:	00062f83          	lw	t6,0(a2)
   151ec:	00bff933          	and	s2,t6,a1
   151f0:	06090a63          	beqz	s2,15264 <__multiply+0x11c>
   151f4:	00028f93          	mv	t6,t0
   151f8:	00038f13          	mv	t5,t2
   151fc:	00000693          	li	a3,0
   15200:	0080006f          	j	15208 <__multiply+0xc0>
   15204:	00048f93          	mv	t6,s1
   15208:	000f2e03          	lw	t3,0(t5)
   1520c:	000fae83          	lw	t4,0(t6)
   15210:	004f8493          	addi	s1,t6,4
   15214:	00be7733          	and	a4,t3,a1
   15218:	03270733          	mul	a4,a4,s2
   1521c:	010e5e13          	srli	t3,t3,0x10
   15220:	00bef7b3          	and	a5,t4,a1
   15224:	010ede93          	srli	t4,t4,0x10
   15228:	004f0f13          	addi	t5,t5,4
   1522c:	032e0e33          	mul	t3,t3,s2
   15230:	00f70733          	add	a4,a4,a5
   15234:	00d707b3          	add	a5,a4,a3
   15238:	0107d693          	srli	a3,a5,0x10
   1523c:	00b7f7b3          	and	a5,a5,a1
   15240:	01de0e33          	add	t3,t3,t4
   15244:	00de06b3          	add	a3,t3,a3
   15248:	01069713          	slli	a4,a3,0x10
   1524c:	00f76733          	or	a4,a4,a5
   15250:	0106d693          	srli	a3,a3,0x10
   15254:	fee4ae23          	sw	a4,-4(s1)
   15258:	fb0f66e3          	bltu	t5,a6,15204 <__multiply+0xbc>
   1525c:	00dfa223          	sw	a3,4(t6)
   15260:	00062f83          	lw	t6,0(a2)
   15264:	010fdf93          	srli	t6,t6,0x10
   15268:	060f8c63          	beqz	t6,152e0 <__multiply+0x198>
   1526c:	0002a783          	lw	a5,0(t0) # 14cdc <memset+0xb4>
   15270:	00028f13          	mv	t5,t0
   15274:	00038e93          	mv	t4,t2
   15278:	00078e13          	mv	t3,a5
   1527c:	00000913          	li	s2,0
   15280:	0080006f          	j	15288 <__multiply+0x140>
   15284:	00048f13          	mv	t5,s1
   15288:	000ea703          	lw	a4,0(t4)
   1528c:	010e5693          	srli	a3,t3,0x10
   15290:	00b7f7b3          	and	a5,a5,a1
   15294:	00b77733          	and	a4,a4,a1
   15298:	03f70733          	mul	a4,a4,t6
   1529c:	004f0493          	addi	s1,t5,4
   152a0:	004e8e93          	addi	t4,t4,4
   152a4:	00d706b3          	add	a3,a4,a3
   152a8:	012686b3          	add	a3,a3,s2
   152ac:	01069713          	slli	a4,a3,0x10
   152b0:	00f767b3          	or	a5,a4,a5
   152b4:	fef4ae23          	sw	a5,-4(s1)
   152b8:	ffeed703          	lhu	a4,-2(t4)
   152bc:	004f2e03          	lw	t3,4(t5)
   152c0:	0106d693          	srli	a3,a3,0x10
   152c4:	03f70733          	mul	a4,a4,t6
   152c8:	00be77b3          	and	a5,t3,a1
   152cc:	00f707b3          	add	a5,a4,a5
   152d0:	00d787b3          	add	a5,a5,a3
   152d4:	0107d913          	srli	s2,a5,0x10
   152d8:	fb0ee6e3          	bltu	t4,a6,15284 <__multiply+0x13c>
   152dc:	00ff2223          	sw	a5,4(t5)
   152e0:	00460613          	addi	a2,a2,4
   152e4:	00428293          	addi	t0,t0,4
   152e8:	f06660e3          	bltu	a2,t1,151e8 <__multiply+0xa0>
   152ec:	02805463          	blez	s0,15314 <__multiply+0x1cc>
   152f0:	ffc8a783          	lw	a5,-4(a7)
   152f4:	ffc88893          	addi	a7,a7,-4
   152f8:	00078863          	beqz	a5,15308 <__multiply+0x1c0>
   152fc:	0180006f          	j	15314 <__multiply+0x1cc>
   15300:	0008a783          	lw	a5,0(a7)
   15304:	00079863          	bnez	a5,15314 <__multiply+0x1cc>
   15308:	fff40413          	addi	s0,s0,-1
   1530c:	ffc88893          	addi	a7,a7,-4
   15310:	fe0418e3          	bnez	s0,15300 <__multiply+0x1b8>
   15314:	01c12083          	lw	ra,28(sp)
   15318:	00852823          	sw	s0,16(a0)
   1531c:	01412483          	lw	s1,20(sp)
   15320:	01812403          	lw	s0,24(sp)
   15324:	01012903          	lw	s2,16(sp)
   15328:	00c12983          	lw	s3,12(sp)
   1532c:	00812a03          	lw	s4,8(sp)
   15330:	02010113          	addi	sp,sp,32
   15334:	00008067          	ret

00015338 <__pow5mult>:
   15338:	fe010113          	addi	sp,sp,-32
   1533c:	00367793          	andi	a5,a2,3
   15340:	00812c23          	sw	s0,24(sp)
   15344:	01212823          	sw	s2,16(sp)
   15348:	01312623          	sw	s3,12(sp)
   1534c:	00112e23          	sw	ra,28(sp)
   15350:	00912a23          	sw	s1,20(sp)
   15354:	00060413          	mv	s0,a2
   15358:	00050993          	mv	s3,a0
   1535c:	00058913          	mv	s2,a1
   15360:	0a079e63          	bnez	a5,1541c <__pow5mult+0xe4>
   15364:	40245413          	srai	s0,s0,0x2
   15368:	06040663          	beqz	s0,153d4 <__pow5mult+0x9c>
   1536c:	0489a483          	lw	s1,72(s3)
   15370:	0c048a63          	beqz	s1,15444 <__pow5mult+0x10c>
   15374:	00147793          	andi	a5,s0,1
   15378:	02079063          	bnez	a5,15398 <__pow5mult+0x60>
   1537c:	40145413          	srai	s0,s0,0x1
   15380:	04040a63          	beqz	s0,153d4 <__pow5mult+0x9c>
   15384:	0004a503          	lw	a0,0(s1)
   15388:	06050663          	beqz	a0,153f4 <__pow5mult+0xbc>
   1538c:	00050493          	mv	s1,a0
   15390:	00147793          	andi	a5,s0,1
   15394:	fe0784e3          	beqz	a5,1537c <__pow5mult+0x44>
   15398:	00048613          	mv	a2,s1
   1539c:	00090593          	mv	a1,s2
   153a0:	00098513          	mv	a0,s3
   153a4:	da5ff0ef          	jal	15148 <__multiply>
   153a8:	06090663          	beqz	s2,15414 <__pow5mult+0xdc>
   153ac:	00492783          	lw	a5,4(s2)
   153b0:	04c9a703          	lw	a4,76(s3)
   153b4:	40145413          	srai	s0,s0,0x1
   153b8:	00279793          	slli	a5,a5,0x2
   153bc:	00f707b3          	add	a5,a4,a5
   153c0:	0007a703          	lw	a4,0(a5)
   153c4:	00e92023          	sw	a4,0(s2)
   153c8:	0127a023          	sw	s2,0(a5)
   153cc:	00050913          	mv	s2,a0
   153d0:	fa041ae3          	bnez	s0,15384 <__pow5mult+0x4c>
   153d4:	01c12083          	lw	ra,28(sp)
   153d8:	00090513          	mv	a0,s2
   153dc:	01812403          	lw	s0,24(sp)
   153e0:	01412483          	lw	s1,20(sp)
   153e4:	01012903          	lw	s2,16(sp)
   153e8:	00c12983          	lw	s3,12(sp)
   153ec:	02010113          	addi	sp,sp,32
   153f0:	00008067          	ret
   153f4:	00048613          	mv	a2,s1
   153f8:	00048593          	mv	a1,s1
   153fc:	00098513          	mv	a0,s3
   15400:	d49ff0ef          	jal	15148 <__multiply>
   15404:	00a4a023          	sw	a0,0(s1)
   15408:	00052023          	sw	zero,0(a0)
   1540c:	00050493          	mv	s1,a0
   15410:	f81ff06f          	j	15390 <__pow5mult+0x58>
   15414:	00050913          	mv	s2,a0
   15418:	f65ff06f          	j	1537c <__pow5mult+0x44>
   1541c:	fff78793          	addi	a5,a5,-1
   15420:	0001a737          	lui	a4,0x1a
   15424:	6b070713          	addi	a4,a4,1712 # 1a6b0 <p05.2508>
   15428:	00279793          	slli	a5,a5,0x2
   1542c:	00f707b3          	add	a5,a4,a5
   15430:	0007a603          	lw	a2,0(a5)
   15434:	00000693          	li	a3,0
   15438:	99dff0ef          	jal	14dd4 <__multadd>
   1543c:	00050913          	mv	s2,a0
   15440:	f25ff06f          	j	15364 <__pow5mult+0x2c>
   15444:	00100593          	li	a1,1
   15448:	00098513          	mv	a0,s3
   1544c:	8c1ff0ef          	jal	14d0c <_Balloc>
   15450:	27100793          	li	a5,625
   15454:	00f52a23          	sw	a5,20(a0)
