
HanNo:     file format elf32-littleriscv


Disassembly of section .text:

00800074 <push>:
  800074:	fe010113          	addi	sp,sp,-32
  800078:	00812e23          	sw	s0,28(sp)
  80007c:	02010413          	addi	s0,sp,32
  800080:	fea42623          	sw	a0,-20(s0)
  800084:	8001a703          	lw	a4,-2048(gp) # 801180 <__bss_start>
  800088:	00271713          	slli	a4,a4,0x2
  80008c:	80418793          	addi	a5,gp,-2044 # 801184 <result>
  800090:	00f707b3          	add	a5,a4,a5
  800094:	fec42703          	lw	a4,-20(s0)
  800098:	00e7a023          	sw	a4,0(a5)
  80009c:	8001a783          	lw	a5,-2048(gp) # 801180 <__bss_start>
  8000a0:	00178713          	addi	a4,a5,1
  8000a4:	80e1a023          	sw	a4,-2048(gp) # 801180 <__bss_start>
  8000a8:	00000013          	nop
  8000ac:	01c12403          	lw	s0,28(sp)
  8000b0:	02010113          	addi	sp,sp,32
  8000b4:	00008067          	ret

008000b8 <hanoi>:
  8000b8:	fe010113          	addi	sp,sp,-32
  8000bc:	00112e23          	sw	ra,28(sp)
  8000c0:	00812c23          	sw	s0,24(sp)
  8000c4:	02010413          	addi	s0,sp,32
  8000c8:	fea42623          	sw	a0,-20(s0)
  8000cc:	feb42423          	sw	a1,-24(s0)
  8000d0:	fec42223          	sw	a2,-28(s0)
  8000d4:	fed42023          	sw	a3,-32(s0)
  8000d8:	fec42783          	lw	a5,-20(s0)
  8000dc:	04f05663          	blez	a5,800128 <hanoi+0x70>
  8000e0:	fec42783          	lw	a5,-20(s0)
  8000e4:	fff78793          	addi	a5,a5,-1
  8000e8:	fe442683          	lw	a3,-28(s0)
  8000ec:	fe042603          	lw	a2,-32(s0)
  8000f0:	fe842583          	lw	a1,-24(s0)
  8000f4:	00078513          	mv	a0,a5
  8000f8:	fc1ff0ef          	jal	8000b8 <hanoi>
  8000fc:	fe842503          	lw	a0,-24(s0)
  800100:	f75ff0ef          	jal	800074 <push>
  800104:	fe042503          	lw	a0,-32(s0)
  800108:	f6dff0ef          	jal	800074 <push>
  80010c:	fec42783          	lw	a5,-20(s0)
  800110:	fff78793          	addi	a5,a5,-1
  800114:	fe042683          	lw	a3,-32(s0)
  800118:	fe842603          	lw	a2,-24(s0)
  80011c:	fe442583          	lw	a1,-28(s0)
  800120:	00078513          	mv	a0,a5
  800124:	f95ff0ef          	jal	8000b8 <hanoi>
  800128:	00000013          	nop
  80012c:	01c12083          	lw	ra,28(sp)
  800130:	01812403          	lw	s0,24(sp)
  800134:	02010113          	addi	sp,sp,32
  800138:	00008067          	ret

0080013c <main>:
  80013c:	fe010113          	addi	sp,sp,-32
  800140:	00112e23          	sw	ra,28(sp)
  800144:	00812c23          	sw	s0,24(sp)
  800148:	02010413          	addi	s0,sp,32
  80014c:	00400793          	li	a5,4
  800150:	fef42623          	sw	a5,-20(s0)
  800154:	fe042423          	sw	zero,-24(s0)
  800158:	00300693          	li	a3,3
  80015c:	00200613          	li	a2,2
  800160:	00100593          	li	a1,1
  800164:	fec42503          	lw	a0,-20(s0)
  800168:	f51ff0ef          	jal	8000b8 <hanoi>
  80016c:	00000013          	nop
  800170:	01c12083          	lw	ra,28(sp)
  800174:	01812403          	lw	s0,24(sp)
  800178:	02010113          	addi	sp,sp,32
  80017c:	00008067          	ret
