
quickSort:     file format elf32-littleriscv


Disassembly of section .text:

00800074 <quickSort>:
  800074:	fd010113          	addi	sp,sp,-48
  800078:	02112623          	sw	ra,44(sp)
  80007c:	02812423          	sw	s0,40(sp)
  800080:	03010413          	addi	s0,sp,48
  800084:	fca42e23          	sw	a0,-36(s0)
  800088:	fcb42c23          	sw	a1,-40(s0)
  80008c:	fcc42a23          	sw	a2,-44(s0)
  800090:	fd842703          	lw	a4,-40(s0)
  800094:	fd442783          	lw	a5,-44(s0)
  800098:	18f75063          	ble	a5,a4,800218 <quickSort+0x1a4>
  80009c:	fd842783          	lw	a5,-40(s0)
  8000a0:	fef42623          	sw	a5,-20(s0)
  8000a4:	fd442783          	lw	a5,-44(s0)
  8000a8:	00178793          	addi	a5,a5,1
  8000ac:	fef42423          	sw	a5,-24(s0)
  8000b0:	fd842783          	lw	a5,-40(s0)
  8000b4:	00279793          	slli	a5,a5,0x2
  8000b8:	fdc42703          	lw	a4,-36(s0)
  8000bc:	00f707b3          	add	a5,a4,a5
  8000c0:	0007a783          	lw	a5,0(a5)
  8000c4:	fef42223          	sw	a5,-28(s0)
  8000c8:	0d00006f          	j	800198 <quickSort+0x124>
  8000cc:	fec42783          	lw	a5,-20(s0)
  8000d0:	00178793          	addi	a5,a5,1
  8000d4:	fef42623          	sw	a5,-20(s0)
  8000d8:	fec42783          	lw	a5,-20(s0)
  8000dc:	00279793          	slli	a5,a5,0x2
  8000e0:	fdc42703          	lw	a4,-36(s0)
  8000e4:	00f707b3          	add	a5,a4,a5
  8000e8:	0007a703          	lw	a4,0(a5)
  8000ec:	fe442783          	lw	a5,-28(s0)
  8000f0:	00f75863          	ble	a5,a4,800100 <quickSort+0x8c>
  8000f4:	fec42703          	lw	a4,-20(s0)
  8000f8:	fd442783          	lw	a5,-44(s0)
  8000fc:	fcf748e3          	blt	a4,a5,8000cc <quickSort+0x58>
  800100:	fe842783          	lw	a5,-24(s0)
  800104:	fff78793          	addi	a5,a5,-1
  800108:	fef42423          	sw	a5,-24(s0)
  80010c:	fe842783          	lw	a5,-24(s0)
  800110:	00279793          	slli	a5,a5,0x2
  800114:	fdc42703          	lw	a4,-36(s0)
  800118:	00f707b3          	add	a5,a4,a5
  80011c:	0007a703          	lw	a4,0(a5)
  800120:	fe442783          	lw	a5,-28(s0)
  800124:	00e7d863          	ble	a4,a5,800134 <quickSort+0xc0>
  800128:	fe842703          	lw	a4,-24(s0)
  80012c:	fd842783          	lw	a5,-40(s0)
  800130:	fce7c8e3          	blt	a5,a4,800100 <quickSort+0x8c>
  800134:	fec42703          	lw	a4,-20(s0)
  800138:	fe842783          	lw	a5,-24(s0)
  80013c:	04f75e63          	ble	a5,a4,800198 <quickSort+0x124>
  800140:	fec42783          	lw	a5,-20(s0)
  800144:	00279793          	slli	a5,a5,0x2
  800148:	fdc42703          	lw	a4,-36(s0)
  80014c:	00f707b3          	add	a5,a4,a5
  800150:	0007a783          	lw	a5,0(a5)
  800154:	fef42023          	sw	a5,-32(s0)
  800158:	fec42783          	lw	a5,-20(s0)
  80015c:	00279793          	slli	a5,a5,0x2
  800160:	fdc42703          	lw	a4,-36(s0)
  800164:	00f707b3          	add	a5,a4,a5
  800168:	fe842703          	lw	a4,-24(s0)
  80016c:	00271713          	slli	a4,a4,0x2
  800170:	fdc42683          	lw	a3,-36(s0)
  800174:	00e68733          	add	a4,a3,a4
  800178:	00072703          	lw	a4,0(a4)
  80017c:	00e7a023          	sw	a4,0(a5)
  800180:	fe842783          	lw	a5,-24(s0)
  800184:	00279793          	slli	a5,a5,0x2
  800188:	fdc42703          	lw	a4,-36(s0)
  80018c:	00f707b3          	add	a5,a4,a5
  800190:	fe042703          	lw	a4,-32(s0)
  800194:	00e7a023          	sw	a4,0(a5)
  800198:	fec42703          	lw	a4,-20(s0)
  80019c:	fe842783          	lw	a5,-24(s0)
  8001a0:	f2f746e3          	blt	a4,a5,8000cc <quickSort+0x58>
  8001a4:	fd842783          	lw	a5,-40(s0)
  8001a8:	00279793          	slli	a5,a5,0x2
  8001ac:	fdc42703          	lw	a4,-36(s0)
  8001b0:	00f707b3          	add	a5,a4,a5
  8001b4:	fe842703          	lw	a4,-24(s0)
  8001b8:	00271713          	slli	a4,a4,0x2
  8001bc:	fdc42683          	lw	a3,-36(s0)
  8001c0:	00e68733          	add	a4,a3,a4
  8001c4:	00072703          	lw	a4,0(a4)
  8001c8:	00e7a023          	sw	a4,0(a5)
  8001cc:	fe842783          	lw	a5,-24(s0)
  8001d0:	00279793          	slli	a5,a5,0x2
  8001d4:	fdc42703          	lw	a4,-36(s0)
  8001d8:	00f707b3          	add	a5,a4,a5
  8001dc:	fe442703          	lw	a4,-28(s0)
  8001e0:	00e7a023          	sw	a4,0(a5)
  8001e4:	fe842783          	lw	a5,-24(s0)
  8001e8:	fff78793          	addi	a5,a5,-1
  8001ec:	00078613          	mv	a2,a5
  8001f0:	fd842583          	lw	a1,-40(s0)
  8001f4:	fdc42503          	lw	a0,-36(s0)
  8001f8:	e7dff0ef          	jal	800074 <quickSort>
  8001fc:	fe842783          	lw	a5,-24(s0)
  800200:	00178793          	addi	a5,a5,1
  800204:	fd442603          	lw	a2,-44(s0)
  800208:	00078593          	mv	a1,a5
  80020c:	fdc42503          	lw	a0,-36(s0)
  800210:	e65ff0ef          	jal	800074 <quickSort>
  800214:	0080006f          	j	80021c <quickSort+0x1a8>
  800218:	00000013          	nop
  80021c:	02c12083          	lw	ra,44(sp)
  800220:	02812403          	lw	s0,40(sp)
  800224:	03010113          	addi	sp,sp,48
  800228:	00008067          	ret

0080022c <main>:
  80022c:	fe010113          	addi	sp,sp,-32
  800230:	00112e23          	sw	ra,28(sp)
  800234:	00812c23          	sw	s0,24(sp)
  800238:	02010413          	addi	s0,sp,32
  80023c:	fe042623          	sw	zero,-20(s0)
  800240:	fe042623          	sw	zero,-20(s0)
  800244:	0300006f          	j	800274 <main+0x48>
  800248:	00900713          	li	a4,9
  80024c:	fec42783          	lw	a5,-20(s0)
  800250:	40f70733          	sub	a4,a4,a5
  800254:	fec42683          	lw	a3,-20(s0)
  800258:	00269693          	slli	a3,a3,0x2
  80025c:	80018793          	addi	a5,gp,-2048 # 8012a8 <__bss_start>
  800260:	00f687b3          	add	a5,a3,a5
  800264:	00e7a023          	sw	a4,0(a5)
  800268:	fec42783          	lw	a5,-20(s0)
  80026c:	00178793          	addi	a5,a5,1
  800270:	fef42623          	sw	a5,-20(s0)
  800274:	fec42703          	lw	a4,-20(s0)
  800278:	00900793          	li	a5,9
  80027c:	fce7d6e3          	ble	a4,a5,800248 <main+0x1c>
  800280:	00900613          	li	a2,9
  800284:	00000593          	li	a1,0
  800288:	80018513          	addi	a0,gp,-2048 # 8012a8 <__bss_start>
  80028c:	de9ff0ef          	jal	800074 <quickSort>
  800290:	00000793          	li	a5,0
  800294:	00078513          	mv	a0,a5
  800298:	01c12083          	lw	ra,28(sp)
  80029c:	01812403          	lw	s0,24(sp)
  8002a0:	02010113          	addi	sp,sp,32
  8002a4:	00008067          	ret
